   1              		.cpu cortex-m3
   2              		.eabi_attribute 20, 1
   3              		.eabi_attribute 21, 1
   4              		.eabi_attribute 23, 3
   5              		.eabi_attribute 24, 1
   6              		.eabi_attribute 25, 1
   7              		.eabi_attribute 26, 1
   8              		.eabi_attribute 30, 4
   9              		.eabi_attribute 34, 1
  10              		.eabi_attribute 18, 4
  11              		.file	"encoder.c"
  12              		.text
  13              	.Ltext0:
  14              		.cfi_sections	.debug_frame
  15              		.align	1
  16              		.global	I2C1_Init
  17              		.syntax unified
  18              		.thumb
  19              		.thumb_func
  20              		.fpu softvfp
  22              	I2C1_Init:
  23              	.LFB29:
  24              		.file 1 "src/encoder.c"
   1:src/encoder.c **** 
   2:src/encoder.c **** #include <stm32f10x.h>
   3:src/encoder.c **** #include "encoder.h"
   4:src/encoder.c **** 
   5:src/encoder.c **** 
   6:src/encoder.c **** void I2C1_Init(void){
  25              		.loc 1 6 0
  26              		.cfi_startproc
  27              		@ args = 0, pretend = 0, frame = 24
  28              		@ frame_needed = 0, uses_anonymous_args = 0
  29 0000 10B5     		push	{r4, lr}
  30              	.LCFI0:
  31              		.cfi_def_cfa_offset 8
  32              		.cfi_offset 4, -8
  33              		.cfi_offset 14, -4
   7:src/encoder.c ****     GPIO_InitTypeDef  GPIO_InitStructure;
   8:src/encoder.c ****     I2C_InitTypeDef  I2C_InitStructure;
   9:src/encoder.c **** 
  10:src/encoder.c ****     /* I2C1 clock enable */
  11:src/encoder.c ****     RCC_APB1PeriphClockCmd(RCC_APB1Periph_I2C1, ENABLE);
  34              		.loc 1 11 0
  35 0002 0121     		movs	r1, #1
   6:src/encoder.c ****     GPIO_InitTypeDef  GPIO_InitStructure;
  36              		.loc 1 6 0
  37 0004 86B0     		sub	sp, sp, #24
  38              	.LCFI1:
  39              		.cfi_def_cfa_offset 32
  40              		.loc 1 11 0
  41 0006 4FF40010 		mov	r0, #2097152
  42 000a FFF7FEFF 		bl	RCC_APB1PeriphClockCmd
  43              	.LVL0:
  12:src/encoder.c **** 
  13:src/encoder.c ****     /* I2C1 SDA and SCL configuration */
  14:src/encoder.c ****     GPIO_InitStructure.GPIO_Pin = GPIO_Pin_6 | GPIO_Pin_7;
  44              		.loc 1 14 0
  45 000e C023     		movs	r3, #192
  46 0010 ADF80430 		strh	r3, [sp, #4]	@ movhi
  15:src/encoder.c ****     GPIO_InitStructure.GPIO_Speed = GPIO_Speed_50MHz;
  47              		.loc 1 15 0
  48 0014 0323     		movs	r3, #3
  49 0016 8DF80630 		strb	r3, [sp, #6]
  16:src/encoder.c ****     GPIO_InitStructure.GPIO_Mode = GPIO_Mode_AF_OD;
  50              		.loc 1 16 0
  51 001a 1C23     		movs	r3, #28
  17:src/encoder.c ****     GPIO_Init(GPIOB, &GPIO_InitStructure);
  52              		.loc 1 17 0
  53 001c 01A9     		add	r1, sp, #4
  54 001e 1248     		ldr	r0, .L2
  16:src/encoder.c ****     GPIO_InitStructure.GPIO_Mode = GPIO_Mode_AF_OD;
  55              		.loc 1 16 0
  56 0020 8DF80730 		strb	r3, [sp, #7]
  57              		.loc 1 17 0
  58 0024 FFF7FEFF 		bl	GPIO_Init
  59              	.LVL1:
  18:src/encoder.c ****     /*SCL is pin06 and SDA is pin 07 for I2C1*/
  19:src/encoder.c **** 
  20:src/encoder.c ****     /* I2C1 configuration */
  21:src/encoder.c ****     I2C_InitStructure.I2C_Mode = I2C_Mode_I2C;
  60              		.loc 1 21 0
  61 0028 0023     		movs	r3, #0
  62 002a ADF80C30 		strh	r3, [sp, #12]	@ movhi
  22:src/encoder.c ****     I2C_InitStructure.I2C_DutyCycle = I2C_DutyCycle_2;
  23:src/encoder.c ****     I2C_InitStructure.I2C_OwnAddress1 = 0x00;
  63              		.loc 1 23 0
  64 002e ADF81030 		strh	r3, [sp, #16]	@ movhi
  24:src/encoder.c ****     I2C_InitStructure.I2C_Ack = I2C_Ack_Enable;
  65              		.loc 1 24 0
  66 0032 4FF48063 		mov	r3, #1024
  67 0036 ADF81230 		strh	r3, [sp, #18]	@ movhi
  25:src/encoder.c ****     I2C_InitStructure.I2C_AcknowledgedAddress = I2C_AcknowledgedAddress_7bit;
  68              		.loc 1 25 0
  69 003a 4FF48043 		mov	r3, #16384
  22:src/encoder.c ****     I2C_InitStructure.I2C_DutyCycle = I2C_DutyCycle_2;
  70              		.loc 1 22 0
  71 003e 4BF6FF72 		movw	r2, #49151
  72              		.loc 1 25 0
  73 0042 ADF81430 		strh	r3, [sp, #20]	@ movhi
  26:src/encoder.c ****     I2C_InitStructure.I2C_ClockSpeed = 100000;    // 100 kHz operation
  27:src/encoder.c ****     I2C_Init(I2C1, &I2C_InitStructure);
  74              		.loc 1 27 0
  75 0046 094C     		ldr	r4, .L2+4
  26:src/encoder.c ****     I2C_InitStructure.I2C_ClockSpeed = 100000;    // 100 kHz operation
  76              		.loc 1 26 0
  77 0048 094B     		ldr	r3, .L2+8
  78 004a 06A9     		add	r1, sp, #24
  79 004c 41F8103D 		str	r3, [r1, #-16]!
  80              		.loc 1 27 0
  81 0050 2046     		mov	r0, r4
  22:src/encoder.c ****     I2C_InitStructure.I2C_OwnAddress1 = 0x00;
  82              		.loc 1 22 0
  83 0052 ADF80E20 		strh	r2, [sp, #14]	@ movhi
  84              		.loc 1 27 0
  85 0056 FFF7FEFF 		bl	I2C_Init
  86              	.LVL2:
  28:src/encoder.c **** 
  29:src/encoder.c ****      /*enable I2C*/
  30:src/encoder.c ****     I2C_Cmd(I2C1,ENABLE);
  87              		.loc 1 30 0
  88 005a 0121     		movs	r1, #1
  89 005c 2046     		mov	r0, r4
  90 005e FFF7FEFF 		bl	I2C_Cmd
  91              	.LVL3:
  31:src/encoder.c **** 
  32:src/encoder.c ****     //NVIC_EnableIRQ(I2C1_EV_IRQn);
  33:src/encoder.c **** }
  92              		.loc 1 33 0
  93 0062 06B0     		add	sp, sp, #24
  94              	.LCFI2:
  95              		.cfi_def_cfa_offset 8
  96              		@ sp needed
  97 0064 10BD     		pop	{r4, pc}
  98              	.L3:
  99 0066 00BF     		.align	2
 100              	.L2:
 101 0068 000C0140 		.word	1073810432
 102 006c 00540040 		.word	1073763328
 103 0070 A0860100 		.word	100000
 104              		.cfi_endproc
 105              	.LFE29:
 107              	.Letext0:
 108              		.file 2 "/opt/gcc-arm/gcc-arm-none-eabi-6_2-2016q4/arm-none-eabi/include/machine/_default_types.h"
 109              		.file 3 "/opt/gcc-arm/gcc-arm-none-eabi-6_2-2016q4/arm-none-eabi/include/sys/_stdint.h"
 110              		.file 4 "./lib/CMSIS/CM3/CoreSupport/core_cm3.h"
 111              		.file 5 "./lib/CMSIS/CM3/DeviceSupport/ST/STM32F10x/system_stm32f10x.h"
 112              		.file 6 "./lib/CMSIS/CM3/DeviceSupport/ST/STM32F10x/stm32f10x.h"
 113              		.file 7 "./lib/STM32F10x_StdPeriph_Driver/inc/stm32f10x_gpio.h"
 114              		.file 8 "./lib/STM32F10x_StdPeriph_Driver/inc/stm32f10x_i2c.h"
 115              		.file 9 "./lib/STM32F10x_StdPeriph_Driver/inc/stm32f10x_rcc.h"