   1              		.cpu cortex-m3
   2              		.eabi_attribute 20, 1
   3              		.eabi_attribute 21, 1
   4              		.eabi_attribute 23, 3
   5              		.eabi_attribute 24, 1
   6              		.eabi_attribute 25, 1
   7              		.eabi_attribute 26, 1
   8              		.eabi_attribute 30, 4
   9              		.eabi_attribute 34, 1
  10              		.eabi_attribute 18, 4
  11              		.file	"main.cpp"
  12              		.text
  13              	.Ltext0:
  14              		.cfi_sections	.debug_frame
  15              		.section	.text._ZNK8std_msgs4Time9serializeEPh,"axG",%progbits,_ZNK8std_msgs4Time9serializeEPh,com
  16              		.align	1
  17              		.weak	_ZNK8std_msgs4Time9serializeEPh
  18              		.syntax unified
  19              		.thumb
  20              		.thumb_func
  21              		.fpu softvfp
  23              	_ZNK8std_msgs4Time9serializeEPh:
  24              		.fnstart
  25              	.LFB1381:
  26              		.file 1 "./lib/ros_lib/std_msgs/Time.h"
   1:./lib/ros_lib/std_msgs/Time.h **** #ifndef _ROS_std_msgs_Time_h
   2:./lib/ros_lib/std_msgs/Time.h **** #define _ROS_std_msgs_Time_h
   3:./lib/ros_lib/std_msgs/Time.h **** 
   4:./lib/ros_lib/std_msgs/Time.h **** #include <stdint.h>
   5:./lib/ros_lib/std_msgs/Time.h **** #include <string.h>
   6:./lib/ros_lib/std_msgs/Time.h **** #include <stdlib.h>
   7:./lib/ros_lib/std_msgs/Time.h **** #include "ros/msg.h"
   8:./lib/ros_lib/std_msgs/Time.h **** #include "ros/time.h"
   9:./lib/ros_lib/std_msgs/Time.h **** 
  10:./lib/ros_lib/std_msgs/Time.h **** namespace std_msgs
  11:./lib/ros_lib/std_msgs/Time.h **** {
  12:./lib/ros_lib/std_msgs/Time.h **** 
  13:./lib/ros_lib/std_msgs/Time.h ****   class Time : public ros::Msg
  14:./lib/ros_lib/std_msgs/Time.h ****   {
  15:./lib/ros_lib/std_msgs/Time.h ****     public:
  16:./lib/ros_lib/std_msgs/Time.h ****       ros::Time data;
  17:./lib/ros_lib/std_msgs/Time.h **** 
  18:./lib/ros_lib/std_msgs/Time.h ****     Time():
  19:./lib/ros_lib/std_msgs/Time.h ****       data()
  20:./lib/ros_lib/std_msgs/Time.h ****     {
  21:./lib/ros_lib/std_msgs/Time.h ****     }
  22:./lib/ros_lib/std_msgs/Time.h **** 
  23:./lib/ros_lib/std_msgs/Time.h ****     virtual int serialize(unsigned char *outbuffer) const
  27              		.loc 1 23 0
  28              		.cfi_startproc
  29              		@ args = 0, pretend = 0, frame = 0
  30              		@ frame_needed = 0, uses_anonymous_args = 0
  31              		@ link register save eliminated.
  32              	.LVL0:
  24:./lib/ros_lib/std_msgs/Time.h ****     {
  25:./lib/ros_lib/std_msgs/Time.h ****       int offset = 0;
  26:./lib/ros_lib/std_msgs/Time.h ****       *(outbuffer + offset + 0) = (this->data.sec >> (8 * 0)) & 0xFF;
  33              		.loc 1 26 0
  34 0000 4368     		ldr	r3, [r0, #4]
  35 0002 0B70     		strb	r3, [r1]
  27:./lib/ros_lib/std_msgs/Time.h ****       *(outbuffer + offset + 1) = (this->data.sec >> (8 * 1)) & 0xFF;
  36              		.loc 1 27 0
  37 0004 4368     		ldr	r3, [r0, #4]
  38 0006 1B0A     		lsrs	r3, r3, #8
  39 0008 4B70     		strb	r3, [r1, #1]
  28:./lib/ros_lib/std_msgs/Time.h ****       *(outbuffer + offset + 2) = (this->data.sec >> (8 * 2)) & 0xFF;
  40              		.loc 1 28 0
  41 000a C388     		ldrh	r3, [r0, #6]
  42 000c 8B70     		strb	r3, [r1, #2]
  29:./lib/ros_lib/std_msgs/Time.h ****       *(outbuffer + offset + 3) = (this->data.sec >> (8 * 3)) & 0xFF;
  43              		.loc 1 29 0
  44 000e C379     		ldrb	r3, [r0, #7]	@ zero_extendqisi2
  45 0010 CB70     		strb	r3, [r1, #3]
  46              	.LVL1:
  30:./lib/ros_lib/std_msgs/Time.h ****       offset += sizeof(this->data.sec);
  31:./lib/ros_lib/std_msgs/Time.h ****       *(outbuffer + offset + 0) = (this->data.nsec >> (8 * 0)) & 0xFF;
  47              		.loc 1 31 0
  48 0012 8368     		ldr	r3, [r0, #8]
  49 0014 0B71     		strb	r3, [r1, #4]
  32:./lib/ros_lib/std_msgs/Time.h ****       *(outbuffer + offset + 1) = (this->data.nsec >> (8 * 1)) & 0xFF;
  50              		.loc 1 32 0
  51 0016 8368     		ldr	r3, [r0, #8]
  52 0018 1B0A     		lsrs	r3, r3, #8
  53 001a 4B71     		strb	r3, [r1, #5]
  33:./lib/ros_lib/std_msgs/Time.h ****       *(outbuffer + offset + 2) = (this->data.nsec >> (8 * 2)) & 0xFF;
  54              		.loc 1 33 0
  55 001c 4389     		ldrh	r3, [r0, #10]
  56 001e 8B71     		strb	r3, [r1, #6]
  34:./lib/ros_lib/std_msgs/Time.h ****       *(outbuffer + offset + 3) = (this->data.nsec >> (8 * 3)) & 0xFF;
  57              		.loc 1 34 0
  58 0020 C37A     		ldrb	r3, [r0, #11]	@ zero_extendqisi2
  35:./lib/ros_lib/std_msgs/Time.h ****       offset += sizeof(this->data.nsec);
  36:./lib/ros_lib/std_msgs/Time.h ****       return offset;
  37:./lib/ros_lib/std_msgs/Time.h ****     }
  59              		.loc 1 37 0
  60 0022 0820     		movs	r0, #8
  61              	.LVL2:
  34:./lib/ros_lib/std_msgs/Time.h ****       *(outbuffer + offset + 3) = (this->data.nsec >> (8 * 3)) & 0xFF;
  62              		.loc 1 34 0
  63 0024 CB71     		strb	r3, [r1, #7]
  64              	.LVL3:
  65              		.loc 1 37 0
  66 0026 7047     		bx	lr
  67              		.cfi_endproc
  68              	.LFE1381:
  69              		.cantunwind
  70              		.fnend
  72              		.section	.text._ZN8std_msgs4Time11deserializeEPh,"axG",%progbits,_ZN8std_msgs4Time11deserializeEPh
  73              		.align	1
  74              		.weak	_ZN8std_msgs4Time11deserializeEPh
  75              		.syntax unified
  76              		.thumb
  77              		.thumb_func
  78              		.fpu softvfp
  80              	_ZN8std_msgs4Time11deserializeEPh:
  81              		.fnstart
  82              	.LFB1382:
  38:./lib/ros_lib/std_msgs/Time.h **** 
  39:./lib/ros_lib/std_msgs/Time.h ****     virtual int deserialize(unsigned char *inbuffer)
  83              		.loc 1 39 0
  84              		.cfi_startproc
  85              		@ args = 0, pretend = 0, frame = 0
  86              		@ frame_needed = 0, uses_anonymous_args = 0
  87              		@ link register save eliminated.
  88              	.LVL4:
  40:./lib/ros_lib/std_msgs/Time.h ****     {
  41:./lib/ros_lib/std_msgs/Time.h ****       int offset = 0;
  42:./lib/ros_lib/std_msgs/Time.h ****       this->data.sec =  ((uint32_t) (*(inbuffer + offset)));
  89              		.loc 1 42 0
  90 0000 0B78     		ldrb	r3, [r1]	@ zero_extendqisi2
  91 0002 4360     		str	r3, [r0, #4]
  43:./lib/ros_lib/std_msgs/Time.h ****       this->data.sec |= ((uint32_t) (*(inbuffer + offset + 1))) << (8 * 1);
  92              		.loc 1 43 0
  93 0004 4A78     		ldrb	r2, [r1, #1]	@ zero_extendqisi2
  94 0006 43EA0223 		orr	r3, r3, r2, lsl #8
  95 000a 4360     		str	r3, [r0, #4]
  44:./lib/ros_lib/std_msgs/Time.h ****       this->data.sec |= ((uint32_t) (*(inbuffer + offset + 2))) << (8 * 2);
  96              		.loc 1 44 0
  97 000c 8A78     		ldrb	r2, [r1, #2]	@ zero_extendqisi2
  98 000e 43EA0243 		orr	r3, r3, r2, lsl #16
  99 0012 4360     		str	r3, [r0, #4]
  45:./lib/ros_lib/std_msgs/Time.h ****       this->data.sec |= ((uint32_t) (*(inbuffer + offset + 3))) << (8 * 3);
 100              		.loc 1 45 0
 101 0014 CA78     		ldrb	r2, [r1, #3]	@ zero_extendqisi2
 102 0016 43EA0263 		orr	r3, r3, r2, lsl #24
 103 001a 4360     		str	r3, [r0, #4]
 104              	.LVL5:
  46:./lib/ros_lib/std_msgs/Time.h ****       offset += sizeof(this->data.sec);
  47:./lib/ros_lib/std_msgs/Time.h ****       this->data.nsec =  ((uint32_t) (*(inbuffer + offset)));
 105              		.loc 1 47 0
 106 001c 0B79     		ldrb	r3, [r1, #4]	@ zero_extendqisi2
 107 001e 8360     		str	r3, [r0, #8]
  48:./lib/ros_lib/std_msgs/Time.h ****       this->data.nsec |= ((uint32_t) (*(inbuffer + offset + 1))) << (8 * 1);
 108              		.loc 1 48 0
 109 0020 4A79     		ldrb	r2, [r1, #5]	@ zero_extendqisi2
 110 0022 43EA0223 		orr	r3, r3, r2, lsl #8
 111 0026 8360     		str	r3, [r0, #8]
  49:./lib/ros_lib/std_msgs/Time.h ****       this->data.nsec |= ((uint32_t) (*(inbuffer + offset + 2))) << (8 * 2);
 112              		.loc 1 49 0
 113 0028 8A79     		ldrb	r2, [r1, #6]	@ zero_extendqisi2
 114 002a 43EA0243 		orr	r3, r3, r2, lsl #16
 115 002e 8360     		str	r3, [r0, #8]
  50:./lib/ros_lib/std_msgs/Time.h ****       this->data.nsec |= ((uint32_t) (*(inbuffer + offset + 3))) << (8 * 3);
 116              		.loc 1 50 0
 117 0030 CA79     		ldrb	r2, [r1, #7]	@ zero_extendqisi2
 118 0032 43EA0263 		orr	r3, r3, r2, lsl #24
 119 0036 8360     		str	r3, [r0, #8]
 120              	.LVL6:
  51:./lib/ros_lib/std_msgs/Time.h ****       offset += sizeof(this->data.nsec);
  52:./lib/ros_lib/std_msgs/Time.h ****      return offset;
  53:./lib/ros_lib/std_msgs/Time.h ****     }
 121              		.loc 1 53 0
 122 0038 0820     		movs	r0, #8
 123              	.LVL7:
 124 003a 7047     		bx	lr
 125              		.cfi_endproc
 126              	.LFE1382:
 127              		.cantunwind
 128              		.fnend
 130              		.section	.text._ZN8std_msgs4Time7getTypeEv,"axG",%progbits,_ZN8std_msgs4Time7getTypeEv,comdat
 131              		.align	1
 132              		.weak	_ZN8std_msgs4Time7getTypeEv
 133              		.syntax unified
 134              		.thumb
 135              		.thumb_func
 136              		.fpu softvfp
 138              	_ZN8std_msgs4Time7getTypeEv:
 139              		.fnstart
 140              	.LFB1383:
  54:./lib/ros_lib/std_msgs/Time.h **** 
  55:./lib/ros_lib/std_msgs/Time.h ****     const char * getType(){ return "std_msgs/Time"; };
 141              		.loc 1 55 0
 142              		.cfi_startproc
 143              		@ args = 0, pretend = 0, frame = 0
 144              		@ frame_needed = 0, uses_anonymous_args = 0
 145              		@ link register save eliminated.
 146              	.LVL8:
 147              		.loc 1 55 0
 148 0000 0048     		ldr	r0, .L4
 149              	.LVL9:
 150 0002 7047     		bx	lr
 151              	.L5:
 152              		.align	2
 153              	.L4:
 154 0004 00000000 		.word	.LC2
 155              		.cfi_endproc
 156              	.LFE1383:
 157              		.cantunwind
 158              		.fnend
 160              		.section	.text._ZN8std_msgs4Time6getMD5Ev,"axG",%progbits,_ZN8std_msgs4Time6getMD5Ev,comdat
 161              		.align	1
 162              		.weak	_ZN8std_msgs4Time6getMD5Ev
 163              		.syntax unified
 164              		.thumb
 165              		.thumb_func
 166              		.fpu softvfp
 168              	_ZN8std_msgs4Time6getMD5Ev:
 169              		.fnstart
 170              	.LFB1384:
  56:./lib/ros_lib/std_msgs/Time.h ****     const char * getMD5(){ return "cd7166c74c552c311fbcc2fe5a7bc289"; };
 171              		.loc 1 56 0
 172              		.cfi_startproc
 173              		@ args = 0, pretend = 0, frame = 0
 174              		@ frame_needed = 0, uses_anonymous_args = 0
 175              		@ link register save eliminated.
 176              	.LVL10:
 177              		.loc 1 56 0
 178 0000 0048     		ldr	r0, .L7
 179              	.LVL11:
 180 0002 7047     		bx	lr
 181              	.L8:
 182              		.align	2
 183              	.L7:
 184 0004 00000000 		.word	.LC3
 185              		.cfi_endproc
 186              	.LFE1384:
 187              		.cantunwind
 188              		.fnend
 190              		.section	.text._ZN14rosserial_msgs9TopicInfo11deserializeEPh,"axG",%progbits,_ZN14rosserial_msgs9T
 191              		.align	1
 192              		.weak	_ZN14rosserial_msgs9TopicInfo11deserializeEPh
 193              		.syntax unified
 194              		.thumb
 195              		.thumb_func
 196              		.fpu softvfp
 198              	_ZN14rosserial_msgs9TopicInfo11deserializeEPh:
 199              		.fnstart
 200              	.LFB1389:
 201              		.file 2 "./lib/ros_lib/rosserial_msgs/TopicInfo.h"
   1:./lib/ros_lib/rosserial_msgs/TopicInfo.h **** #ifndef _ROS_rosserial_msgs_TopicInfo_h
   2:./lib/ros_lib/rosserial_msgs/TopicInfo.h **** #define _ROS_rosserial_msgs_TopicInfo_h
   3:./lib/ros_lib/rosserial_msgs/TopicInfo.h **** 
   4:./lib/ros_lib/rosserial_msgs/TopicInfo.h **** #include <stdint.h>
   5:./lib/ros_lib/rosserial_msgs/TopicInfo.h **** #include <string.h>
   6:./lib/ros_lib/rosserial_msgs/TopicInfo.h **** #include <stdlib.h>
   7:./lib/ros_lib/rosserial_msgs/TopicInfo.h **** #include "ros/msg.h"
   8:./lib/ros_lib/rosserial_msgs/TopicInfo.h **** 
   9:./lib/ros_lib/rosserial_msgs/TopicInfo.h **** namespace rosserial_msgs
  10:./lib/ros_lib/rosserial_msgs/TopicInfo.h **** {
  11:./lib/ros_lib/rosserial_msgs/TopicInfo.h **** 
  12:./lib/ros_lib/rosserial_msgs/TopicInfo.h ****   class TopicInfo : public ros::Msg
  13:./lib/ros_lib/rosserial_msgs/TopicInfo.h ****   {
  14:./lib/ros_lib/rosserial_msgs/TopicInfo.h ****     public:
  15:./lib/ros_lib/rosserial_msgs/TopicInfo.h ****       uint16_t topic_id;
  16:./lib/ros_lib/rosserial_msgs/TopicInfo.h ****       const char* topic_name;
  17:./lib/ros_lib/rosserial_msgs/TopicInfo.h ****       const char* message_type;
  18:./lib/ros_lib/rosserial_msgs/TopicInfo.h ****       const char* md5sum;
  19:./lib/ros_lib/rosserial_msgs/TopicInfo.h ****       int32_t buffer_size;
  20:./lib/ros_lib/rosserial_msgs/TopicInfo.h ****       enum { ID_PUBLISHER = 0 };
  21:./lib/ros_lib/rosserial_msgs/TopicInfo.h ****       enum { ID_SUBSCRIBER = 1 };
  22:./lib/ros_lib/rosserial_msgs/TopicInfo.h ****       enum { ID_SERVICE_SERVER = 2 };
  23:./lib/ros_lib/rosserial_msgs/TopicInfo.h ****       enum { ID_SERVICE_CLIENT = 4 };
  24:./lib/ros_lib/rosserial_msgs/TopicInfo.h ****       enum { ID_PARAMETER_REQUEST = 6 };
  25:./lib/ros_lib/rosserial_msgs/TopicInfo.h ****       enum { ID_LOG = 7 };
  26:./lib/ros_lib/rosserial_msgs/TopicInfo.h ****       enum { ID_TIME = 10 };
  27:./lib/ros_lib/rosserial_msgs/TopicInfo.h ****       enum { ID_TX_STOP = 11 };
  28:./lib/ros_lib/rosserial_msgs/TopicInfo.h **** 
  29:./lib/ros_lib/rosserial_msgs/TopicInfo.h ****     TopicInfo():
  30:./lib/ros_lib/rosserial_msgs/TopicInfo.h ****       topic_id(0),
  31:./lib/ros_lib/rosserial_msgs/TopicInfo.h ****       topic_name(""),
  32:./lib/ros_lib/rosserial_msgs/TopicInfo.h ****       message_type(""),
  33:./lib/ros_lib/rosserial_msgs/TopicInfo.h ****       md5sum(""),
  34:./lib/ros_lib/rosserial_msgs/TopicInfo.h ****       buffer_size(0)
  35:./lib/ros_lib/rosserial_msgs/TopicInfo.h ****     {
  36:./lib/ros_lib/rosserial_msgs/TopicInfo.h ****     }
  37:./lib/ros_lib/rosserial_msgs/TopicInfo.h **** 
  38:./lib/ros_lib/rosserial_msgs/TopicInfo.h ****     virtual int serialize(unsigned char *outbuffer) const
  39:./lib/ros_lib/rosserial_msgs/TopicInfo.h ****     {
  40:./lib/ros_lib/rosserial_msgs/TopicInfo.h ****       int offset = 0;
  41:./lib/ros_lib/rosserial_msgs/TopicInfo.h ****       *(outbuffer + offset + 0) = (this->topic_id >> (8 * 0)) & 0xFF;
  42:./lib/ros_lib/rosserial_msgs/TopicInfo.h ****       *(outbuffer + offset + 1) = (this->topic_id >> (8 * 1)) & 0xFF;
  43:./lib/ros_lib/rosserial_msgs/TopicInfo.h ****       offset += sizeof(this->topic_id);
  44:./lib/ros_lib/rosserial_msgs/TopicInfo.h ****       uint32_t length_topic_name = strlen(this->topic_name);
  45:./lib/ros_lib/rosserial_msgs/TopicInfo.h ****       memcpy(outbuffer + offset, &length_topic_name, sizeof(uint32_t));
  46:./lib/ros_lib/rosserial_msgs/TopicInfo.h ****       offset += 4;
  47:./lib/ros_lib/rosserial_msgs/TopicInfo.h ****       memcpy(outbuffer + offset, this->topic_name, length_topic_name);
  48:./lib/ros_lib/rosserial_msgs/TopicInfo.h ****       offset += length_topic_name;
  49:./lib/ros_lib/rosserial_msgs/TopicInfo.h ****       uint32_t length_message_type = strlen(this->message_type);
  50:./lib/ros_lib/rosserial_msgs/TopicInfo.h ****       memcpy(outbuffer + offset, &length_message_type, sizeof(uint32_t));
  51:./lib/ros_lib/rosserial_msgs/TopicInfo.h ****       offset += 4;
  52:./lib/ros_lib/rosserial_msgs/TopicInfo.h ****       memcpy(outbuffer + offset, this->message_type, length_message_type);
  53:./lib/ros_lib/rosserial_msgs/TopicInfo.h ****       offset += length_message_type;
  54:./lib/ros_lib/rosserial_msgs/TopicInfo.h ****       uint32_t length_md5sum = strlen(this->md5sum);
  55:./lib/ros_lib/rosserial_msgs/TopicInfo.h ****       memcpy(outbuffer + offset, &length_md5sum, sizeof(uint32_t));
  56:./lib/ros_lib/rosserial_msgs/TopicInfo.h ****       offset += 4;
  57:./lib/ros_lib/rosserial_msgs/TopicInfo.h ****       memcpy(outbuffer + offset, this->md5sum, length_md5sum);
  58:./lib/ros_lib/rosserial_msgs/TopicInfo.h ****       offset += length_md5sum;
  59:./lib/ros_lib/rosserial_msgs/TopicInfo.h ****       union {
  60:./lib/ros_lib/rosserial_msgs/TopicInfo.h ****         int32_t real;
  61:./lib/ros_lib/rosserial_msgs/TopicInfo.h ****         uint32_t base;
  62:./lib/ros_lib/rosserial_msgs/TopicInfo.h ****       } u_buffer_size;
  63:./lib/ros_lib/rosserial_msgs/TopicInfo.h ****       u_buffer_size.real = this->buffer_size;
  64:./lib/ros_lib/rosserial_msgs/TopicInfo.h ****       *(outbuffer + offset + 0) = (u_buffer_size.base >> (8 * 0)) & 0xFF;
  65:./lib/ros_lib/rosserial_msgs/TopicInfo.h ****       *(outbuffer + offset + 1) = (u_buffer_size.base >> (8 * 1)) & 0xFF;
  66:./lib/ros_lib/rosserial_msgs/TopicInfo.h ****       *(outbuffer + offset + 2) = (u_buffer_size.base >> (8 * 2)) & 0xFF;
  67:./lib/ros_lib/rosserial_msgs/TopicInfo.h ****       *(outbuffer + offset + 3) = (u_buffer_size.base >> (8 * 3)) & 0xFF;
  68:./lib/ros_lib/rosserial_msgs/TopicInfo.h ****       offset += sizeof(this->buffer_size);
  69:./lib/ros_lib/rosserial_msgs/TopicInfo.h ****       return offset;
  70:./lib/ros_lib/rosserial_msgs/TopicInfo.h ****     }
  71:./lib/ros_lib/rosserial_msgs/TopicInfo.h **** 
  72:./lib/ros_lib/rosserial_msgs/TopicInfo.h ****     virtual int deserialize(unsigned char *inbuffer)
 202              		.loc 2 72 0
 203              		.cfi_startproc
 204              		@ args = 0, pretend = 0, frame = 0
 205              		@ frame_needed = 0, uses_anonymous_args = 0
 206              	.LVL12:
 207 0000 30B5     		push	{r4, r5, lr}
 208              	.LCFI0:
 209              		.cfi_def_cfa_offset 12
 210              		.cfi_offset 4, -12
 211              		.cfi_offset 5, -8
 212              		.cfi_offset 14, -4
  73:./lib/ros_lib/rosserial_msgs/TopicInfo.h ****     {
  74:./lib/ros_lib/rosserial_msgs/TopicInfo.h ****       int offset = 0;
  75:./lib/ros_lib/rosserial_msgs/TopicInfo.h ****       this->topic_id =  ((uint16_t) (*(inbuffer + offset)));
 213              		.loc 2 75 0
 214 0002 0B78     		ldrb	r3, [r1]	@ zero_extendqisi2
 215 0004 8380     		strh	r3, [r0, #4]	@ movhi
  76:./lib/ros_lib/rosserial_msgs/TopicInfo.h ****       this->topic_id |= ((uint16_t) (*(inbuffer + offset + 1))) << (8 * 1);
 216              		.loc 2 76 0
 217 0006 4A78     		ldrb	r2, [r1, #1]	@ zero_extendqisi2
 218 0008 43EA0223 		orr	r3, r3, r2, lsl #8
 219 000c 8380     		strh	r3, [r0, #4]	@ movhi
 220              	.LVL13:
  77:./lib/ros_lib/rosserial_msgs/TopicInfo.h ****       offset += sizeof(this->topic_id);
  78:./lib/ros_lib/rosserial_msgs/TopicInfo.h ****       uint32_t length_topic_name;
  79:./lib/ros_lib/rosserial_msgs/TopicInfo.h ****       memcpy(&length_topic_name, (inbuffer + offset), sizeof(uint32_t));
 221              		.loc 2 79 0
 222 000e D1F80220 		ldr	r2, [r1, #2]	@ unaligned
 223              	.LVL14:
 224 0012 8B1D     		adds	r3, r1, #6
 225              	.LBB199:
  80:./lib/ros_lib/rosserial_msgs/TopicInfo.h ****       offset += 4;
  81:./lib/ros_lib/rosserial_msgs/TopicInfo.h ****       for(unsigned int k= offset; k< offset+length_topic_name; ++k){
 226              		.loc 2 81 0
 227 0014 941D     		adds	r4, r2, #6
 228              	.LVL15:
 229              	.L11:
 230              		.loc 2 81 0 is_stmt 0 discriminator 3
 231 0016 5D1A     		subs	r5, r3, r1
 232              	.LVL16:
 233 0018 AC42     		cmp	r4, r5
 234 001a 04D9     		bls	.L10
  82:./lib/ros_lib/rosserial_msgs/TopicInfo.h ****           inbuffer[k-1]=inbuffer[k];
 235              		.loc 2 82 0 is_stmt 1 discriminator 2
 236 001c 13F8015B 		ldrb	r5, [r3], #1	@ zero_extendqisi2
 237              	.LVL17:
 238 0020 03F8025C 		strb	r5, [r3, #-2]
 239              	.LVL18:
  81:./lib/ros_lib/rosserial_msgs/TopicInfo.h ****           inbuffer[k-1]=inbuffer[k];
 240              		.loc 2 81 0 discriminator 2
 241 0024 F7E7     		b	.L11
 242              	.LVL19:
 243              	.L10:
 244              	.LBE199:
  83:./lib/ros_lib/rosserial_msgs/TopicInfo.h ****       }
  84:./lib/ros_lib/rosserial_msgs/TopicInfo.h ****       inbuffer[offset+length_topic_name-1]=0;
 245              		.loc 2 84 0
 246 0026 0025     		movs	r5, #0
 247              	.LVL20:
 248 0028 8B18     		adds	r3, r1, r2
 249              	.LVL21:
 250 002a 5D71     		strb	r5, [r3, #5]
  85:./lib/ros_lib/rosserial_msgs/TopicInfo.h ****       this->topic_name = (char *)(inbuffer + offset-1);
 251              		.loc 2 85 0
 252 002c 4B1D     		adds	r3, r1, #5
 253 002e 8360     		str	r3, [r0, #8]
 254              	.LVL22:
  86:./lib/ros_lib/rosserial_msgs/TopicInfo.h ****       offset += length_topic_name;
  87:./lib/ros_lib/rosserial_msgs/TopicInfo.h ****       uint32_t length_message_type;
  88:./lib/ros_lib/rosserial_msgs/TopicInfo.h ****       memcpy(&length_message_type, (inbuffer + offset), sizeof(uint32_t));
 255              		.loc 2 88 0
 256 0030 0B59     		ldr	r3, [r1, r4]	@ unaligned
 257              	.LVL23:
  89:./lib/ros_lib/rosserial_msgs/TopicInfo.h ****       offset += 4;
 258              		.loc 2 89 0
 259 0032 0A32     		adds	r2, r2, #10
 260              	.LVL24:
 261 0034 8C18     		adds	r4, r1, r2
 262              	.LVL25:
 263              	.LBB200:
  90:./lib/ros_lib/rosserial_msgs/TopicInfo.h ****       for(unsigned int k= offset; k< offset+length_message_type; ++k){
 264              		.loc 2 90 0
 265 0036 1344     		add	r3, r3, r2
 266              	.LVL26:
 267              	.L13:
 268              		.loc 2 90 0 is_stmt 0 discriminator 3
 269 0038 651A     		subs	r5, r4, r1
 270              	.LVL27:
 271 003a AB42     		cmp	r3, r5
 272 003c 04D9     		bls	.L12
  91:./lib/ros_lib/rosserial_msgs/TopicInfo.h ****           inbuffer[k-1]=inbuffer[k];
 273              		.loc 2 91 0 is_stmt 1 discriminator 2
 274 003e 14F8015B 		ldrb	r5, [r4], #1	@ zero_extendqisi2
 275              	.LVL28:
 276 0042 04F8025C 		strb	r5, [r4, #-2]
 277              	.LVL29:
  90:./lib/ros_lib/rosserial_msgs/TopicInfo.h ****       for(unsigned int k= offset; k< offset+length_message_type; ++k){
 278              		.loc 2 90 0 discriminator 2
 279 0046 F7E7     		b	.L13
 280              	.LVL30:
 281              	.L12:
 282              	.LBE200:
  92:./lib/ros_lib/rosserial_msgs/TopicInfo.h ****       }
  93:./lib/ros_lib/rosserial_msgs/TopicInfo.h ****       inbuffer[offset+length_message_type-1]=0;
 283              		.loc 2 93 0
 284 0048 0025     		movs	r5, #0
 285              	.LVL31:
  94:./lib/ros_lib/rosserial_msgs/TopicInfo.h ****       this->message_type = (char *)(inbuffer + offset-1);
 286              		.loc 2 94 0
 287 004a 013A     		subs	r2, r2, #1
 288              	.LVL32:
  93:./lib/ros_lib/rosserial_msgs/TopicInfo.h ****       this->message_type = (char *)(inbuffer + offset-1);
 289              		.loc 2 93 0
 290 004c CC18     		adds	r4, r1, r3
 291              	.LVL33:
 292              		.loc 2 94 0
 293 004e 0A44     		add	r2, r2, r1
 294              	.LVL34:
  93:./lib/ros_lib/rosserial_msgs/TopicInfo.h ****       this->message_type = (char *)(inbuffer + offset-1);
 295              		.loc 2 93 0
 296 0050 04F8015C 		strb	r5, [r4, #-1]
 297              		.loc 2 94 0
 298 0054 C260     		str	r2, [r0, #12]
 299              	.LVL35:
  95:./lib/ros_lib/rosserial_msgs/TopicInfo.h ****       offset += length_message_type;
  96:./lib/ros_lib/rosserial_msgs/TopicInfo.h ****       uint32_t length_md5sum;
  97:./lib/ros_lib/rosserial_msgs/TopicInfo.h ****       memcpy(&length_md5sum, (inbuffer + offset), sizeof(uint32_t));
 300              		.loc 2 97 0
 301 0056 CA58     		ldr	r2, [r1, r3]	@ unaligned
 302              	.LVL36:
  98:./lib/ros_lib/rosserial_msgs/TopicInfo.h ****       offset += 4;
 303              		.loc 2 98 0
 304 0058 0433     		adds	r3, r3, #4
 305              	.LVL37:
 306 005a CC18     		adds	r4, r1, r3
 307              	.LBB201:
  99:./lib/ros_lib/rosserial_msgs/TopicInfo.h ****       for(unsigned int k= offset; k< offset+length_md5sum; ++k){
 308              		.loc 2 99 0
 309 005c 1A44     		add	r2, r2, r3
 310              	.LVL38:
 311              	.L15:
 312              		.loc 2 99 0 is_stmt 0 discriminator 3
 313 005e 651A     		subs	r5, r4, r1
 314              	.LVL39:
 315 0060 AA42     		cmp	r2, r5
 316 0062 04D9     		bls	.L14
 100:./lib/ros_lib/rosserial_msgs/TopicInfo.h ****           inbuffer[k-1]=inbuffer[k];
 317              		.loc 2 100 0 is_stmt 1 discriminator 2
 318 0064 14F8015B 		ldrb	r5, [r4], #1	@ zero_extendqisi2
 319              	.LVL40:
 320 0068 04F8025C 		strb	r5, [r4, #-2]
 321              	.LVL41:
  99:./lib/ros_lib/rosserial_msgs/TopicInfo.h ****       for(unsigned int k= offset; k< offset+length_md5sum; ++k){
 322              		.loc 2 99 0 discriminator 2
 323 006c F7E7     		b	.L15
 324              	.LVL42:
 325              	.L14:
 326              	.LBE201:
 101:./lib/ros_lib/rosserial_msgs/TopicInfo.h ****       }
 102:./lib/ros_lib/rosserial_msgs/TopicInfo.h ****       inbuffer[offset+length_md5sum-1]=0;
 327              		.loc 2 102 0
 328 006e 0025     		movs	r5, #0
 329              	.LVL43:
 103:./lib/ros_lib/rosserial_msgs/TopicInfo.h ****       this->md5sum = (char *)(inbuffer + offset-1);
 330              		.loc 2 103 0
 331 0070 013B     		subs	r3, r3, #1
 332              	.LVL44:
 102:./lib/ros_lib/rosserial_msgs/TopicInfo.h ****       this->md5sum = (char *)(inbuffer + offset-1);
 333              		.loc 2 102 0
 334 0072 8C18     		adds	r4, r1, r2
 335              	.LVL45:
 336              		.loc 2 103 0
 337 0074 0B44     		add	r3, r3, r1
 338              	.LVL46:
 102:./lib/ros_lib/rosserial_msgs/TopicInfo.h ****       this->md5sum = (char *)(inbuffer + offset-1);
 339              		.loc 2 102 0
 340 0076 04F8015C 		strb	r5, [r4, #-1]
 341              		.loc 2 103 0
 342 007a 0361     		str	r3, [r0, #16]
 343              	.LVL47:
 104:./lib/ros_lib/rosserial_msgs/TopicInfo.h ****       offset += length_md5sum;
 105:./lib/ros_lib/rosserial_msgs/TopicInfo.h ****       union {
 106:./lib/ros_lib/rosserial_msgs/TopicInfo.h ****         int32_t real;
 107:./lib/ros_lib/rosserial_msgs/TopicInfo.h ****         uint32_t base;
 108:./lib/ros_lib/rosserial_msgs/TopicInfo.h ****       } u_buffer_size;
 109:./lib/ros_lib/rosserial_msgs/TopicInfo.h ****       u_buffer_size.base = 0;
 110:./lib/ros_lib/rosserial_msgs/TopicInfo.h ****       u_buffer_size.base |= ((uint32_t) (*(inbuffer + offset + 0))) << (8 * 0);
 111:./lib/ros_lib/rosserial_msgs/TopicInfo.h ****       u_buffer_size.base |= ((uint32_t) (*(inbuffer + offset + 1))) << (8 * 1);
 112:./lib/ros_lib/rosserial_msgs/TopicInfo.h ****       u_buffer_size.base |= ((uint32_t) (*(inbuffer + offset + 2))) << (8 * 2);
 344              		.loc 2 112 0
 345 007c A378     		ldrb	r3, [r4, #2]	@ zero_extendqisi2
 111:./lib/ros_lib/rosserial_msgs/TopicInfo.h ****       u_buffer_size.base |= ((uint32_t) (*(inbuffer + offset + 2))) << (8 * 2);
 346              		.loc 2 111 0
 347 007e 6578     		ldrb	r5, [r4, #1]	@ zero_extendqisi2
 110:./lib/ros_lib/rosserial_msgs/TopicInfo.h ****       u_buffer_size.base |= ((uint32_t) (*(inbuffer + offset + 1))) << (8 * 1);
 348              		.loc 2 110 0
 349 0080 895C     		ldrb	r1, [r1, r2]	@ zero_extendqisi2
 350              	.LVL48:
 351              		.loc 2 112 0
 352 0082 1B04     		lsls	r3, r3, #16
 353 0084 43EA0523 		orr	r3, r3, r5, lsl #8
 354 0088 0B43     		orrs	r3, r3, r1
 113:./lib/ros_lib/rosserial_msgs/TopicInfo.h ****       u_buffer_size.base |= ((uint32_t) (*(inbuffer + offset + 3))) << (8 * 3);
 355              		.loc 2 113 0
 356 008a E178     		ldrb	r1, [r4, #3]	@ zero_extendqisi2
 357 008c 43EA0163 		orr	r3, r3, r1, lsl #24
 114:./lib/ros_lib/rosserial_msgs/TopicInfo.h ****       this->buffer_size = u_buffer_size.real;
 358              		.loc 2 114 0
 359 0090 4361     		str	r3, [r0, #20]
 360              	.LVL49:
 115:./lib/ros_lib/rosserial_msgs/TopicInfo.h ****       offset += sizeof(this->buffer_size);
 116:./lib/ros_lib/rosserial_msgs/TopicInfo.h ****      return offset;
 117:./lib/ros_lib/rosserial_msgs/TopicInfo.h ****     }
 361              		.loc 2 117 0
 362 0092 101D     		adds	r0, r2, #4
 363              	.LVL50:
 364 0094 30BD     		pop	{r4, r5, pc}
 365              		.cfi_endproc
 366              	.LFE1389:
 367              		.cantunwind
 368              		.fnend
 370              		.section	.text._ZN14rosserial_msgs9TopicInfo7getTypeEv,"axG",%progbits,_ZN14rosserial_msgs9TopicIn
 371              		.align	1
 372              		.weak	_ZN14rosserial_msgs9TopicInfo7getTypeEv
 373              		.syntax unified
 374              		.thumb
 375              		.thumb_func
 376              		.fpu softvfp
 378              	_ZN14rosserial_msgs9TopicInfo7getTypeEv:
 379              		.fnstart
 380              	.LFB1390:
 118:./lib/ros_lib/rosserial_msgs/TopicInfo.h **** 
 119:./lib/ros_lib/rosserial_msgs/TopicInfo.h ****     const char * getType(){ return "rosserial_msgs/TopicInfo"; };
 381              		.loc 2 119 0
 382              		.cfi_startproc
 383              		@ args = 0, pretend = 0, frame = 0
 384              		@ frame_needed = 0, uses_anonymous_args = 0
 385              		@ link register save eliminated.
 386              	.LVL51:
 387              		.loc 2 119 0
 388 0000 0048     		ldr	r0, .L20
 389              	.LVL52:
 390 0002 7047     		bx	lr
 391              	.L21:
 392              		.align	2
 393              	.L20:
 394 0004 00000000 		.word	.LC4
 395              		.cfi_endproc
 396              	.LFE1390:
 397              		.cantunwind
 398              		.fnend
 400              		.section	.text._ZN14rosserial_msgs9TopicInfo6getMD5Ev,"axG",%progbits,_ZN14rosserial_msgs9TopicInf
 401              		.align	1
 402              		.weak	_ZN14rosserial_msgs9TopicInfo6getMD5Ev
 403              		.syntax unified
 404              		.thumb
 405              		.thumb_func
 406              		.fpu softvfp
 408              	_ZN14rosserial_msgs9TopicInfo6getMD5Ev:
 409              		.fnstart
 410              	.LFB1391:
 120:./lib/ros_lib/rosserial_msgs/TopicInfo.h ****     const char * getMD5(){ return "0ad51f88fc44892f8c10684077646005"; };
 411              		.loc 2 120 0
 412              		.cfi_startproc
 413              		@ args = 0, pretend = 0, frame = 0
 414              		@ frame_needed = 0, uses_anonymous_args = 0
 415              		@ link register save eliminated.
 416              	.LVL53:
 417              		.loc 2 120 0
 418 0000 0048     		ldr	r0, .L23
 419              	.LVL54:
 420 0002 7047     		bx	lr
 421              	.L24:
 422              		.align	2
 423              	.L23:
 424 0004 00000000 		.word	.LC5
 425              		.cfi_endproc
 426              	.LFE1391:
 427              		.cantunwind
 428              		.fnend
 430              		.section	.text._ZN14rosserial_msgs3Log11deserializeEPh,"axG",%progbits,_ZN14rosserial_msgs3Log11de
 431              		.align	1
 432              		.weak	_ZN14rosserial_msgs3Log11deserializeEPh
 433              		.syntax unified
 434              		.thumb
 435              		.thumb_func
 436              		.fpu softvfp
 438              	_ZN14rosserial_msgs3Log11deserializeEPh:
 439              		.fnstart
 440              	.LFB1396:
 441              		.file 3 "./lib/ros_lib/rosserial_msgs/Log.h"
   1:./lib/ros_lib/rosserial_msgs/Log.h **** #ifndef _ROS_rosserial_msgs_Log_h
   2:./lib/ros_lib/rosserial_msgs/Log.h **** #define _ROS_rosserial_msgs_Log_h
   3:./lib/ros_lib/rosserial_msgs/Log.h **** 
   4:./lib/ros_lib/rosserial_msgs/Log.h **** #include <stdint.h>
   5:./lib/ros_lib/rosserial_msgs/Log.h **** #include <string.h>
   6:./lib/ros_lib/rosserial_msgs/Log.h **** #include <stdlib.h>
   7:./lib/ros_lib/rosserial_msgs/Log.h **** #include "ros/msg.h"
   8:./lib/ros_lib/rosserial_msgs/Log.h **** 
   9:./lib/ros_lib/rosserial_msgs/Log.h **** namespace rosserial_msgs
  10:./lib/ros_lib/rosserial_msgs/Log.h **** {
  11:./lib/ros_lib/rosserial_msgs/Log.h **** 
  12:./lib/ros_lib/rosserial_msgs/Log.h ****   class Log : public ros::Msg
  13:./lib/ros_lib/rosserial_msgs/Log.h ****   {
  14:./lib/ros_lib/rosserial_msgs/Log.h ****     public:
  15:./lib/ros_lib/rosserial_msgs/Log.h ****       uint8_t level;
  16:./lib/ros_lib/rosserial_msgs/Log.h ****       const char* msg;
  17:./lib/ros_lib/rosserial_msgs/Log.h ****       enum { ROSDEBUG = 0 };
  18:./lib/ros_lib/rosserial_msgs/Log.h ****       enum { INFO = 1 };
  19:./lib/ros_lib/rosserial_msgs/Log.h ****       enum { WARN = 2 };
  20:./lib/ros_lib/rosserial_msgs/Log.h ****       enum { ERROR = 3 };
  21:./lib/ros_lib/rosserial_msgs/Log.h ****       enum { FATAL = 4 };
  22:./lib/ros_lib/rosserial_msgs/Log.h **** 
  23:./lib/ros_lib/rosserial_msgs/Log.h ****     Log():
  24:./lib/ros_lib/rosserial_msgs/Log.h ****       level(0),
  25:./lib/ros_lib/rosserial_msgs/Log.h ****       msg("")
  26:./lib/ros_lib/rosserial_msgs/Log.h ****     {
  27:./lib/ros_lib/rosserial_msgs/Log.h ****     }
  28:./lib/ros_lib/rosserial_msgs/Log.h **** 
  29:./lib/ros_lib/rosserial_msgs/Log.h ****     virtual int serialize(unsigned char *outbuffer) const
  30:./lib/ros_lib/rosserial_msgs/Log.h ****     {
  31:./lib/ros_lib/rosserial_msgs/Log.h ****       int offset = 0;
  32:./lib/ros_lib/rosserial_msgs/Log.h ****       *(outbuffer + offset + 0) = (this->level >> (8 * 0)) & 0xFF;
  33:./lib/ros_lib/rosserial_msgs/Log.h ****       offset += sizeof(this->level);
  34:./lib/ros_lib/rosserial_msgs/Log.h ****       uint32_t length_msg = strlen(this->msg);
  35:./lib/ros_lib/rosserial_msgs/Log.h ****       memcpy(outbuffer + offset, &length_msg, sizeof(uint32_t));
  36:./lib/ros_lib/rosserial_msgs/Log.h ****       offset += 4;
  37:./lib/ros_lib/rosserial_msgs/Log.h ****       memcpy(outbuffer + offset, this->msg, length_msg);
  38:./lib/ros_lib/rosserial_msgs/Log.h ****       offset += length_msg;
  39:./lib/ros_lib/rosserial_msgs/Log.h ****       return offset;
  40:./lib/ros_lib/rosserial_msgs/Log.h ****     }
  41:./lib/ros_lib/rosserial_msgs/Log.h **** 
  42:./lib/ros_lib/rosserial_msgs/Log.h ****     virtual int deserialize(unsigned char *inbuffer)
 442              		.loc 3 42 0
 443              		.cfi_startproc
 444              		@ args = 0, pretend = 0, frame = 0
 445              		@ frame_needed = 0, uses_anonymous_args = 0
 446              	.LVL55:
 447 0000 30B5     		push	{r4, r5, lr}
 448              	.LCFI1:
 449              		.cfi_def_cfa_offset 12
 450              		.cfi_offset 4, -12
 451              		.cfi_offset 5, -8
 452              		.cfi_offset 14, -4
  43:./lib/ros_lib/rosserial_msgs/Log.h ****     {
  44:./lib/ros_lib/rosserial_msgs/Log.h ****       int offset = 0;
  45:./lib/ros_lib/rosserial_msgs/Log.h ****       this->level =  ((uint8_t) (*(inbuffer + offset)));
 453              		.loc 3 45 0
 454 0002 0B78     		ldrb	r3, [r1]	@ zero_extendqisi2
  42:./lib/ros_lib/rosserial_msgs/Log.h ****     {
 455              		.loc 3 42 0
 456 0004 0446     		mov	r4, r0
 457              		.loc 3 45 0
 458 0006 0371     		strb	r3, [r0, #4]
 459              	.LVL56:
  46:./lib/ros_lib/rosserial_msgs/Log.h ****       offset += sizeof(this->level);
  47:./lib/ros_lib/rosserial_msgs/Log.h ****       uint32_t length_msg;
  48:./lib/ros_lib/rosserial_msgs/Log.h ****       memcpy(&length_msg, (inbuffer + offset), sizeof(uint32_t));
 460              		.loc 3 48 0
 461 0008 D1F80130 		ldr	r3, [r1, #1]	@ unaligned
 462              	.LVL57:
 463 000c 4A1D     		adds	r2, r1, #5
 464              	.LBB202:
  49:./lib/ros_lib/rosserial_msgs/Log.h ****       offset += 4;
  50:./lib/ros_lib/rosserial_msgs/Log.h ****       for(unsigned int k= offset; k< offset+length_msg; ++k){
 465              		.loc 3 50 0
 466 000e 581D     		adds	r0, r3, #5
 467              	.LVL58:
 468              	.L27:
 469              		.loc 3 50 0 is_stmt 0 discriminator 3
 470 0010 551A     		subs	r5, r2, r1
 471              	.LVL59:
 472 0012 A842     		cmp	r0, r5
 473 0014 04D9     		bls	.L26
  51:./lib/ros_lib/rosserial_msgs/Log.h ****           inbuffer[k-1]=inbuffer[k];
 474              		.loc 3 51 0 is_stmt 1 discriminator 2
 475 0016 12F8015B 		ldrb	r5, [r2], #1	@ zero_extendqisi2
 476              	.LVL60:
 477 001a 02F8025C 		strb	r5, [r2, #-2]
 478              	.LVL61:
  50:./lib/ros_lib/rosserial_msgs/Log.h ****           inbuffer[k-1]=inbuffer[k];
 479              		.loc 3 50 0 discriminator 2
 480 001e F7E7     		b	.L27
 481              	.LVL62:
 482              	.L26:
 483              	.LBE202:
  52:./lib/ros_lib/rosserial_msgs/Log.h ****       }
  53:./lib/ros_lib/rosserial_msgs/Log.h ****       inbuffer[offset+length_msg-1]=0;
 484              		.loc 3 53 0
 485 0020 0022     		movs	r2, #0
 486 0022 0B44     		add	r3, r3, r1
 487              	.LVL63:
 488 0024 1A71     		strb	r2, [r3, #4]
  54:./lib/ros_lib/rosserial_msgs/Log.h ****       this->msg = (char *)(inbuffer + offset-1);
 489              		.loc 3 54 0
 490 0026 0431     		adds	r1, r1, #4
 491              	.LVL64:
 492 0028 A160     		str	r1, [r4, #8]
 493              	.LVL65:
  55:./lib/ros_lib/rosserial_msgs/Log.h ****       offset += length_msg;
  56:./lib/ros_lib/rosserial_msgs/Log.h ****      return offset;
  57:./lib/ros_lib/rosserial_msgs/Log.h ****     }
 494              		.loc 3 57 0
 495 002a 30BD     		pop	{r4, r5, pc}
 496              		.cfi_endproc
 497              	.LFE1396:
 498              		.cantunwind
 499              		.fnend
 501              		.section	.text._ZN14rosserial_msgs3Log7getTypeEv,"axG",%progbits,_ZN14rosserial_msgs3Log7getTypeEv
 502              		.align	1
 503              		.weak	_ZN14rosserial_msgs3Log7getTypeEv
 504              		.syntax unified
 505              		.thumb
 506              		.thumb_func
 507              		.fpu softvfp
 509              	_ZN14rosserial_msgs3Log7getTypeEv:
 510              		.fnstart
 511              	.LFB1397:
  58:./lib/ros_lib/rosserial_msgs/Log.h **** 
  59:./lib/ros_lib/rosserial_msgs/Log.h ****     const char * getType(){ return "rosserial_msgs/Log"; };
 512              		.loc 3 59 0
 513              		.cfi_startproc
 514              		@ args = 0, pretend = 0, frame = 0
 515              		@ frame_needed = 0, uses_anonymous_args = 0
 516              		@ link register save eliminated.
 517              	.LVL66:
 518              		.loc 3 59 0
 519 0000 0048     		ldr	r0, .L30
 520              	.LVL67:
 521 0002 7047     		bx	lr
 522              	.L31:
 523              		.align	2
 524              	.L30:
 525 0004 00000000 		.word	.LC6
 526              		.cfi_endproc
 527              	.LFE1397:
 528              		.cantunwind
 529              		.fnend
 531              		.section	.text._ZN14rosserial_msgs3Log6getMD5Ev,"axG",%progbits,_ZN14rosserial_msgs3Log6getMD5Ev,c
 532              		.align	1
 533              		.weak	_ZN14rosserial_msgs3Log6getMD5Ev
 534              		.syntax unified
 535              		.thumb
 536              		.thumb_func
 537              		.fpu softvfp
 539              	_ZN14rosserial_msgs3Log6getMD5Ev:
 540              		.fnstart
 541              	.LFB1398:
  60:./lib/ros_lib/rosserial_msgs/Log.h ****     const char * getMD5(){ return "11abd731c25933261cd6183bd12d6295"; };
 542              		.loc 3 60 0
 543              		.cfi_startproc
 544              		@ args = 0, pretend = 0, frame = 0
 545              		@ frame_needed = 0, uses_anonymous_args = 0
 546              		@ link register save eliminated.
 547              	.LVL68:
 548              		.loc 3 60 0
 549 0000 0048     		ldr	r0, .L33
 550              	.LVL69:
 551 0002 7047     		bx	lr
 552              	.L34:
 553              		.align	2
 554              	.L33:
 555 0004 00000000 		.word	.LC7
 556              		.cfi_endproc
 557              	.LFE1398:
 558              		.cantunwind
 559              		.fnend
 561              		.section	.text._ZN14rosserial_msgs20RequestParamResponse7getTypeEv,"axG",%progbits,_ZN14rosserial_
 562              		.align	1
 563              		.weak	_ZN14rosserial_msgs20RequestParamResponse7getTypeEv
 564              		.syntax unified
 565              		.thumb
 566              		.thumb_func
 567              		.fpu softvfp
 569              	_ZN14rosserial_msgs20RequestParamResponse7getTypeEv:
 570              		.fnstart
 571              	.LFB1411:
 572              		.file 4 "./lib/ros_lib/rosserial_msgs/RequestParam.h"
   1:./lib/ros_lib/rosserial_msgs/RequestParam.h **** #ifndef _ROS_SERVICE_RequestParam_h
   2:./lib/ros_lib/rosserial_msgs/RequestParam.h **** #define _ROS_SERVICE_RequestParam_h
   3:./lib/ros_lib/rosserial_msgs/RequestParam.h **** #include <stdint.h>
   4:./lib/ros_lib/rosserial_msgs/RequestParam.h **** #include <string.h>
   5:./lib/ros_lib/rosserial_msgs/RequestParam.h **** #include <stdlib.h>
   6:./lib/ros_lib/rosserial_msgs/RequestParam.h **** #include "ros/msg.h"
   7:./lib/ros_lib/rosserial_msgs/RequestParam.h **** 
   8:./lib/ros_lib/rosserial_msgs/RequestParam.h **** namespace rosserial_msgs
   9:./lib/ros_lib/rosserial_msgs/RequestParam.h **** {
  10:./lib/ros_lib/rosserial_msgs/RequestParam.h **** 
  11:./lib/ros_lib/rosserial_msgs/RequestParam.h **** static const char REQUESTPARAM[] = "rosserial_msgs/RequestParam";
  12:./lib/ros_lib/rosserial_msgs/RequestParam.h **** 
  13:./lib/ros_lib/rosserial_msgs/RequestParam.h ****   class RequestParamRequest : public ros::Msg
  14:./lib/ros_lib/rosserial_msgs/RequestParam.h ****   {
  15:./lib/ros_lib/rosserial_msgs/RequestParam.h ****     public:
  16:./lib/ros_lib/rosserial_msgs/RequestParam.h ****       const char* name;
  17:./lib/ros_lib/rosserial_msgs/RequestParam.h **** 
  18:./lib/ros_lib/rosserial_msgs/RequestParam.h ****     RequestParamRequest():
  19:./lib/ros_lib/rosserial_msgs/RequestParam.h ****       name("")
  20:./lib/ros_lib/rosserial_msgs/RequestParam.h ****     {
  21:./lib/ros_lib/rosserial_msgs/RequestParam.h ****     }
  22:./lib/ros_lib/rosserial_msgs/RequestParam.h **** 
  23:./lib/ros_lib/rosserial_msgs/RequestParam.h ****     virtual int serialize(unsigned char *outbuffer) const
  24:./lib/ros_lib/rosserial_msgs/RequestParam.h ****     {
  25:./lib/ros_lib/rosserial_msgs/RequestParam.h ****       int offset = 0;
  26:./lib/ros_lib/rosserial_msgs/RequestParam.h ****       uint32_t length_name = strlen(this->name);
  27:./lib/ros_lib/rosserial_msgs/RequestParam.h ****       memcpy(outbuffer + offset, &length_name, sizeof(uint32_t));
  28:./lib/ros_lib/rosserial_msgs/RequestParam.h ****       offset += 4;
  29:./lib/ros_lib/rosserial_msgs/RequestParam.h ****       memcpy(outbuffer + offset, this->name, length_name);
  30:./lib/ros_lib/rosserial_msgs/RequestParam.h ****       offset += length_name;
  31:./lib/ros_lib/rosserial_msgs/RequestParam.h ****       return offset;
  32:./lib/ros_lib/rosserial_msgs/RequestParam.h ****     }
  33:./lib/ros_lib/rosserial_msgs/RequestParam.h **** 
  34:./lib/ros_lib/rosserial_msgs/RequestParam.h ****     virtual int deserialize(unsigned char *inbuffer)
  35:./lib/ros_lib/rosserial_msgs/RequestParam.h ****     {
  36:./lib/ros_lib/rosserial_msgs/RequestParam.h ****       int offset = 0;
  37:./lib/ros_lib/rosserial_msgs/RequestParam.h ****       uint32_t length_name;
  38:./lib/ros_lib/rosserial_msgs/RequestParam.h ****       memcpy(&length_name, (inbuffer + offset), sizeof(uint32_t));
  39:./lib/ros_lib/rosserial_msgs/RequestParam.h ****       offset += 4;
  40:./lib/ros_lib/rosserial_msgs/RequestParam.h ****       for(unsigned int k= offset; k< offset+length_name; ++k){
  41:./lib/ros_lib/rosserial_msgs/RequestParam.h ****           inbuffer[k-1]=inbuffer[k];
  42:./lib/ros_lib/rosserial_msgs/RequestParam.h ****       }
  43:./lib/ros_lib/rosserial_msgs/RequestParam.h ****       inbuffer[offset+length_name-1]=0;
  44:./lib/ros_lib/rosserial_msgs/RequestParam.h ****       this->name = (char *)(inbuffer + offset-1);
  45:./lib/ros_lib/rosserial_msgs/RequestParam.h ****       offset += length_name;
  46:./lib/ros_lib/rosserial_msgs/RequestParam.h ****      return offset;
  47:./lib/ros_lib/rosserial_msgs/RequestParam.h ****     }
  48:./lib/ros_lib/rosserial_msgs/RequestParam.h **** 
  49:./lib/ros_lib/rosserial_msgs/RequestParam.h ****     const char * getType(){ return REQUESTPARAM; };
  50:./lib/ros_lib/rosserial_msgs/RequestParam.h ****     const char * getMD5(){ return "c1f3d28f1b044c871e6eff2e9fc3c667"; };
  51:./lib/ros_lib/rosserial_msgs/RequestParam.h **** 
  52:./lib/ros_lib/rosserial_msgs/RequestParam.h ****   };
  53:./lib/ros_lib/rosserial_msgs/RequestParam.h **** 
  54:./lib/ros_lib/rosserial_msgs/RequestParam.h ****   class RequestParamResponse : public ros::Msg
  55:./lib/ros_lib/rosserial_msgs/RequestParam.h ****   {
  56:./lib/ros_lib/rosserial_msgs/RequestParam.h ****     public:
  57:./lib/ros_lib/rosserial_msgs/RequestParam.h ****       uint8_t ints_length;
  58:./lib/ros_lib/rosserial_msgs/RequestParam.h ****       int32_t st_ints;
  59:./lib/ros_lib/rosserial_msgs/RequestParam.h ****       int32_t * ints;
  60:./lib/ros_lib/rosserial_msgs/RequestParam.h ****       uint8_t floats_length;
  61:./lib/ros_lib/rosserial_msgs/RequestParam.h ****       float st_floats;
  62:./lib/ros_lib/rosserial_msgs/RequestParam.h ****       float * floats;
  63:./lib/ros_lib/rosserial_msgs/RequestParam.h ****       uint8_t strings_length;
  64:./lib/ros_lib/rosserial_msgs/RequestParam.h ****       char* st_strings;
  65:./lib/ros_lib/rosserial_msgs/RequestParam.h ****       char* * strings;
  66:./lib/ros_lib/rosserial_msgs/RequestParam.h **** 
  67:./lib/ros_lib/rosserial_msgs/RequestParam.h ****     RequestParamResponse():
  68:./lib/ros_lib/rosserial_msgs/RequestParam.h ****       ints_length(0), ints(NULL),
  69:./lib/ros_lib/rosserial_msgs/RequestParam.h ****       floats_length(0), floats(NULL),
  70:./lib/ros_lib/rosserial_msgs/RequestParam.h ****       strings_length(0), strings(NULL)
  71:./lib/ros_lib/rosserial_msgs/RequestParam.h ****     {
  72:./lib/ros_lib/rosserial_msgs/RequestParam.h ****     }
  73:./lib/ros_lib/rosserial_msgs/RequestParam.h **** 
  74:./lib/ros_lib/rosserial_msgs/RequestParam.h ****     virtual int serialize(unsigned char *outbuffer) const
  75:./lib/ros_lib/rosserial_msgs/RequestParam.h ****     {
  76:./lib/ros_lib/rosserial_msgs/RequestParam.h ****       int offset = 0;
  77:./lib/ros_lib/rosserial_msgs/RequestParam.h ****       *(outbuffer + offset++) = ints_length;
  78:./lib/ros_lib/rosserial_msgs/RequestParam.h ****       *(outbuffer + offset++) = 0;
  79:./lib/ros_lib/rosserial_msgs/RequestParam.h ****       *(outbuffer + offset++) = 0;
  80:./lib/ros_lib/rosserial_msgs/RequestParam.h ****       *(outbuffer + offset++) = 0;
  81:./lib/ros_lib/rosserial_msgs/RequestParam.h ****       for( uint8_t i = 0; i < ints_length; i++){
  82:./lib/ros_lib/rosserial_msgs/RequestParam.h ****       union {
  83:./lib/ros_lib/rosserial_msgs/RequestParam.h ****         int32_t real;
  84:./lib/ros_lib/rosserial_msgs/RequestParam.h ****         uint32_t base;
  85:./lib/ros_lib/rosserial_msgs/RequestParam.h ****       } u_intsi;
  86:./lib/ros_lib/rosserial_msgs/RequestParam.h ****       u_intsi.real = this->ints[i];
  87:./lib/ros_lib/rosserial_msgs/RequestParam.h ****       *(outbuffer + offset + 0) = (u_intsi.base >> (8 * 0)) & 0xFF;
  88:./lib/ros_lib/rosserial_msgs/RequestParam.h ****       *(outbuffer + offset + 1) = (u_intsi.base >> (8 * 1)) & 0xFF;
  89:./lib/ros_lib/rosserial_msgs/RequestParam.h ****       *(outbuffer + offset + 2) = (u_intsi.base >> (8 * 2)) & 0xFF;
  90:./lib/ros_lib/rosserial_msgs/RequestParam.h ****       *(outbuffer + offset + 3) = (u_intsi.base >> (8 * 3)) & 0xFF;
  91:./lib/ros_lib/rosserial_msgs/RequestParam.h ****       offset += sizeof(this->ints[i]);
  92:./lib/ros_lib/rosserial_msgs/RequestParam.h ****       }
  93:./lib/ros_lib/rosserial_msgs/RequestParam.h ****       *(outbuffer + offset++) = floats_length;
  94:./lib/ros_lib/rosserial_msgs/RequestParam.h ****       *(outbuffer + offset++) = 0;
  95:./lib/ros_lib/rosserial_msgs/RequestParam.h ****       *(outbuffer + offset++) = 0;
  96:./lib/ros_lib/rosserial_msgs/RequestParam.h ****       *(outbuffer + offset++) = 0;
  97:./lib/ros_lib/rosserial_msgs/RequestParam.h ****       for( uint8_t i = 0; i < floats_length; i++){
  98:./lib/ros_lib/rosserial_msgs/RequestParam.h ****       union {
  99:./lib/ros_lib/rosserial_msgs/RequestParam.h ****         float real;
 100:./lib/ros_lib/rosserial_msgs/RequestParam.h ****         uint32_t base;
 101:./lib/ros_lib/rosserial_msgs/RequestParam.h ****       } u_floatsi;
 102:./lib/ros_lib/rosserial_msgs/RequestParam.h ****       u_floatsi.real = this->floats[i];
 103:./lib/ros_lib/rosserial_msgs/RequestParam.h ****       *(outbuffer + offset + 0) = (u_floatsi.base >> (8 * 0)) & 0xFF;
 104:./lib/ros_lib/rosserial_msgs/RequestParam.h ****       *(outbuffer + offset + 1) = (u_floatsi.base >> (8 * 1)) & 0xFF;
 105:./lib/ros_lib/rosserial_msgs/RequestParam.h ****       *(outbuffer + offset + 2) = (u_floatsi.base >> (8 * 2)) & 0xFF;
 106:./lib/ros_lib/rosserial_msgs/RequestParam.h ****       *(outbuffer + offset + 3) = (u_floatsi.base >> (8 * 3)) & 0xFF;
 107:./lib/ros_lib/rosserial_msgs/RequestParam.h ****       offset += sizeof(this->floats[i]);
 108:./lib/ros_lib/rosserial_msgs/RequestParam.h ****       }
 109:./lib/ros_lib/rosserial_msgs/RequestParam.h ****       *(outbuffer + offset++) = strings_length;
 110:./lib/ros_lib/rosserial_msgs/RequestParam.h ****       *(outbuffer + offset++) = 0;
 111:./lib/ros_lib/rosserial_msgs/RequestParam.h ****       *(outbuffer + offset++) = 0;
 112:./lib/ros_lib/rosserial_msgs/RequestParam.h ****       *(outbuffer + offset++) = 0;
 113:./lib/ros_lib/rosserial_msgs/RequestParam.h ****       for( uint8_t i = 0; i < strings_length; i++){
 114:./lib/ros_lib/rosserial_msgs/RequestParam.h ****       uint32_t length_stringsi = strlen(this->strings[i]);
 115:./lib/ros_lib/rosserial_msgs/RequestParam.h ****       memcpy(outbuffer + offset, &length_stringsi, sizeof(uint32_t));
 116:./lib/ros_lib/rosserial_msgs/RequestParam.h ****       offset += 4;
 117:./lib/ros_lib/rosserial_msgs/RequestParam.h ****       memcpy(outbuffer + offset, this->strings[i], length_stringsi);
 118:./lib/ros_lib/rosserial_msgs/RequestParam.h ****       offset += length_stringsi;
 119:./lib/ros_lib/rosserial_msgs/RequestParam.h ****       }
 120:./lib/ros_lib/rosserial_msgs/RequestParam.h ****       return offset;
 121:./lib/ros_lib/rosserial_msgs/RequestParam.h ****     }
 122:./lib/ros_lib/rosserial_msgs/RequestParam.h **** 
 123:./lib/ros_lib/rosserial_msgs/RequestParam.h ****     virtual int deserialize(unsigned char *inbuffer)
 124:./lib/ros_lib/rosserial_msgs/RequestParam.h ****     {
 125:./lib/ros_lib/rosserial_msgs/RequestParam.h ****       int offset = 0;
 126:./lib/ros_lib/rosserial_msgs/RequestParam.h ****       uint8_t ints_lengthT = *(inbuffer + offset++);
 127:./lib/ros_lib/rosserial_msgs/RequestParam.h ****       if(ints_lengthT > ints_length)
 128:./lib/ros_lib/rosserial_msgs/RequestParam.h ****         this->ints = (int32_t*)realloc(this->ints, ints_lengthT * sizeof(int32_t));
 129:./lib/ros_lib/rosserial_msgs/RequestParam.h ****       offset += 3;
 130:./lib/ros_lib/rosserial_msgs/RequestParam.h ****       ints_length = ints_lengthT;
 131:./lib/ros_lib/rosserial_msgs/RequestParam.h ****       for( uint8_t i = 0; i < ints_length; i++){
 132:./lib/ros_lib/rosserial_msgs/RequestParam.h ****       union {
 133:./lib/ros_lib/rosserial_msgs/RequestParam.h ****         int32_t real;
 134:./lib/ros_lib/rosserial_msgs/RequestParam.h ****         uint32_t base;
 135:./lib/ros_lib/rosserial_msgs/RequestParam.h ****       } u_st_ints;
 136:./lib/ros_lib/rosserial_msgs/RequestParam.h ****       u_st_ints.base = 0;
 137:./lib/ros_lib/rosserial_msgs/RequestParam.h ****       u_st_ints.base |= ((uint32_t) (*(inbuffer + offset + 0))) << (8 * 0);
 138:./lib/ros_lib/rosserial_msgs/RequestParam.h ****       u_st_ints.base |= ((uint32_t) (*(inbuffer + offset + 1))) << (8 * 1);
 139:./lib/ros_lib/rosserial_msgs/RequestParam.h ****       u_st_ints.base |= ((uint32_t) (*(inbuffer + offset + 2))) << (8 * 2);
 140:./lib/ros_lib/rosserial_msgs/RequestParam.h ****       u_st_ints.base |= ((uint32_t) (*(inbuffer + offset + 3))) << (8 * 3);
 141:./lib/ros_lib/rosserial_msgs/RequestParam.h ****       this->st_ints = u_st_ints.real;
 142:./lib/ros_lib/rosserial_msgs/RequestParam.h ****       offset += sizeof(this->st_ints);
 143:./lib/ros_lib/rosserial_msgs/RequestParam.h ****         memcpy( &(this->ints[i]), &(this->st_ints), sizeof(int32_t));
 144:./lib/ros_lib/rosserial_msgs/RequestParam.h ****       }
 145:./lib/ros_lib/rosserial_msgs/RequestParam.h ****       uint8_t floats_lengthT = *(inbuffer + offset++);
 146:./lib/ros_lib/rosserial_msgs/RequestParam.h ****       if(floats_lengthT > floats_length)
 147:./lib/ros_lib/rosserial_msgs/RequestParam.h ****         this->floats = (float*)realloc(this->floats, floats_lengthT * sizeof(float));
 148:./lib/ros_lib/rosserial_msgs/RequestParam.h ****       offset += 3;
 149:./lib/ros_lib/rosserial_msgs/RequestParam.h ****       floats_length = floats_lengthT;
 150:./lib/ros_lib/rosserial_msgs/RequestParam.h ****       for( uint8_t i = 0; i < floats_length; i++){
 151:./lib/ros_lib/rosserial_msgs/RequestParam.h ****       union {
 152:./lib/ros_lib/rosserial_msgs/RequestParam.h ****         float real;
 153:./lib/ros_lib/rosserial_msgs/RequestParam.h ****         uint32_t base;
 154:./lib/ros_lib/rosserial_msgs/RequestParam.h ****       } u_st_floats;
 155:./lib/ros_lib/rosserial_msgs/RequestParam.h ****       u_st_floats.base = 0;
 156:./lib/ros_lib/rosserial_msgs/RequestParam.h ****       u_st_floats.base |= ((uint32_t) (*(inbuffer + offset + 0))) << (8 * 0);
 157:./lib/ros_lib/rosserial_msgs/RequestParam.h ****       u_st_floats.base |= ((uint32_t) (*(inbuffer + offset + 1))) << (8 * 1);
 158:./lib/ros_lib/rosserial_msgs/RequestParam.h ****       u_st_floats.base |= ((uint32_t) (*(inbuffer + offset + 2))) << (8 * 2);
 159:./lib/ros_lib/rosserial_msgs/RequestParam.h ****       u_st_floats.base |= ((uint32_t) (*(inbuffer + offset + 3))) << (8 * 3);
 160:./lib/ros_lib/rosserial_msgs/RequestParam.h ****       this->st_floats = u_st_floats.real;
 161:./lib/ros_lib/rosserial_msgs/RequestParam.h ****       offset += sizeof(this->st_floats);
 162:./lib/ros_lib/rosserial_msgs/RequestParam.h ****         memcpy( &(this->floats[i]), &(this->st_floats), sizeof(float));
 163:./lib/ros_lib/rosserial_msgs/RequestParam.h ****       }
 164:./lib/ros_lib/rosserial_msgs/RequestParam.h ****       uint8_t strings_lengthT = *(inbuffer + offset++);
 165:./lib/ros_lib/rosserial_msgs/RequestParam.h ****       if(strings_lengthT > strings_length)
 166:./lib/ros_lib/rosserial_msgs/RequestParam.h ****         this->strings = (char**)realloc(this->strings, strings_lengthT * sizeof(char*));
 167:./lib/ros_lib/rosserial_msgs/RequestParam.h ****       offset += 3;
 168:./lib/ros_lib/rosserial_msgs/RequestParam.h ****       strings_length = strings_lengthT;
 169:./lib/ros_lib/rosserial_msgs/RequestParam.h ****       for( uint8_t i = 0; i < strings_length; i++){
 170:./lib/ros_lib/rosserial_msgs/RequestParam.h ****       uint32_t length_st_strings;
 171:./lib/ros_lib/rosserial_msgs/RequestParam.h ****       memcpy(&length_st_strings, (inbuffer + offset), sizeof(uint32_t));
 172:./lib/ros_lib/rosserial_msgs/RequestParam.h ****       offset += 4;
 173:./lib/ros_lib/rosserial_msgs/RequestParam.h ****       for(unsigned int k= offset; k< offset+length_st_strings; ++k){
 174:./lib/ros_lib/rosserial_msgs/RequestParam.h ****           inbuffer[k-1]=inbuffer[k];
 175:./lib/ros_lib/rosserial_msgs/RequestParam.h ****       }
 176:./lib/ros_lib/rosserial_msgs/RequestParam.h ****       inbuffer[offset+length_st_strings-1]=0;
 177:./lib/ros_lib/rosserial_msgs/RequestParam.h ****       this->st_strings = (char *)(inbuffer + offset-1);
 178:./lib/ros_lib/rosserial_msgs/RequestParam.h ****       offset += length_st_strings;
 179:./lib/ros_lib/rosserial_msgs/RequestParam.h ****         memcpy( &(this->strings[i]), &(this->st_strings), sizeof(char*));
 180:./lib/ros_lib/rosserial_msgs/RequestParam.h ****       }
 181:./lib/ros_lib/rosserial_msgs/RequestParam.h ****      return offset;
 182:./lib/ros_lib/rosserial_msgs/RequestParam.h ****     }
 183:./lib/ros_lib/rosserial_msgs/RequestParam.h **** 
 184:./lib/ros_lib/rosserial_msgs/RequestParam.h ****     const char * getType(){ return REQUESTPARAM; };
 573              		.loc 4 184 0
 574              		.cfi_startproc
 575              		@ args = 0, pretend = 0, frame = 0
 576              		@ frame_needed = 0, uses_anonymous_args = 0
 577              		@ link register save eliminated.
 578              	.LVL70:
 579              		.loc 4 184 0
 580 0000 0048     		ldr	r0, .L36
 581              	.LVL71:
 582 0002 7047     		bx	lr
 583              	.L37:
 584              		.align	2
 585              	.L36:
 586 0004 00000000 		.word	.LANCHOR0
 587              		.cfi_endproc
 588              	.LFE1411:
 589              		.cantunwind
 590              		.fnend
 592              		.section	.text._ZN14rosserial_msgs20RequestParamResponse6getMD5Ev,"axG",%progbits,_ZN14rosserial_m
 593              		.align	1
 594              		.weak	_ZN14rosserial_msgs20RequestParamResponse6getMD5Ev
 595              		.syntax unified
 596              		.thumb
 597              		.thumb_func
 598              		.fpu softvfp
 600              	_ZN14rosserial_msgs20RequestParamResponse6getMD5Ev:
 601              		.fnstart
 602              	.LFB1412:
 185:./lib/ros_lib/rosserial_msgs/RequestParam.h ****     const char * getMD5(){ return "9f0e98bda65981986ddf53afa7a40e49"; };
 603              		.loc 4 185 0
 604              		.cfi_startproc
 605              		@ args = 0, pretend = 0, frame = 0
 606              		@ frame_needed = 0, uses_anonymous_args = 0
 607              		@ link register save eliminated.
 608              	.LVL72:
 609              		.loc 4 185 0
 610 0000 0048     		ldr	r0, .L39
 611              	.LVL73:
 612 0002 7047     		bx	lr
 613              	.L40:
 614              		.align	2
 615              	.L39:
 616 0004 00000000 		.word	.LC8
 617              		.cfi_endproc
 618              	.LFE1412:
 619              		.cantunwind
 620              		.fnend
 622              		.section	.text._ZN8std_msgs19MultiArrayDimension11deserializeEPh,"axG",%progbits,_ZN8std_msgs19Mul
 623              		.align	1
 624              		.weak	_ZN8std_msgs19MultiArrayDimension11deserializeEPh
 625              		.syntax unified
 626              		.thumb
 627              		.thumb_func
 628              		.fpu softvfp
 630              	_ZN8std_msgs19MultiArrayDimension11deserializeEPh:
 631              		.fnstart
 632              	.LFB1489:
 633              		.file 5 "./lib/ros_lib/std_msgs/MultiArrayDimension.h"
   1:./lib/ros_lib/std_msgs/MultiArrayDimension.h **** #ifndef _ROS_std_msgs_MultiArrayDimension_h
   2:./lib/ros_lib/std_msgs/MultiArrayDimension.h **** #define _ROS_std_msgs_MultiArrayDimension_h
   3:./lib/ros_lib/std_msgs/MultiArrayDimension.h **** 
   4:./lib/ros_lib/std_msgs/MultiArrayDimension.h **** #include <stdint.h>
   5:./lib/ros_lib/std_msgs/MultiArrayDimension.h **** #include <string.h>
   6:./lib/ros_lib/std_msgs/MultiArrayDimension.h **** #include <stdlib.h>
   7:./lib/ros_lib/std_msgs/MultiArrayDimension.h **** #include "ros/msg.h"
   8:./lib/ros_lib/std_msgs/MultiArrayDimension.h **** 
   9:./lib/ros_lib/std_msgs/MultiArrayDimension.h **** namespace std_msgs
  10:./lib/ros_lib/std_msgs/MultiArrayDimension.h **** {
  11:./lib/ros_lib/std_msgs/MultiArrayDimension.h **** 
  12:./lib/ros_lib/std_msgs/MultiArrayDimension.h ****   class MultiArrayDimension : public ros::Msg
  13:./lib/ros_lib/std_msgs/MultiArrayDimension.h ****   {
  14:./lib/ros_lib/std_msgs/MultiArrayDimension.h ****     public:
  15:./lib/ros_lib/std_msgs/MultiArrayDimension.h ****       const char* label;
  16:./lib/ros_lib/std_msgs/MultiArrayDimension.h ****       uint32_t size;
  17:./lib/ros_lib/std_msgs/MultiArrayDimension.h ****       uint32_t stride;
  18:./lib/ros_lib/std_msgs/MultiArrayDimension.h **** 
  19:./lib/ros_lib/std_msgs/MultiArrayDimension.h ****     MultiArrayDimension():
  20:./lib/ros_lib/std_msgs/MultiArrayDimension.h ****       label(""),
  21:./lib/ros_lib/std_msgs/MultiArrayDimension.h ****       size(0),
  22:./lib/ros_lib/std_msgs/MultiArrayDimension.h ****       stride(0)
  23:./lib/ros_lib/std_msgs/MultiArrayDimension.h ****     {
  24:./lib/ros_lib/std_msgs/MultiArrayDimension.h ****     }
  25:./lib/ros_lib/std_msgs/MultiArrayDimension.h **** 
  26:./lib/ros_lib/std_msgs/MultiArrayDimension.h ****     virtual int serialize(unsigned char *outbuffer) const
  27:./lib/ros_lib/std_msgs/MultiArrayDimension.h ****     {
  28:./lib/ros_lib/std_msgs/MultiArrayDimension.h ****       int offset = 0;
  29:./lib/ros_lib/std_msgs/MultiArrayDimension.h ****       uint32_t length_label = strlen(this->label);
  30:./lib/ros_lib/std_msgs/MultiArrayDimension.h ****       memcpy(outbuffer + offset, &length_label, sizeof(uint32_t));
  31:./lib/ros_lib/std_msgs/MultiArrayDimension.h ****       offset += 4;
  32:./lib/ros_lib/std_msgs/MultiArrayDimension.h ****       memcpy(outbuffer + offset, this->label, length_label);
  33:./lib/ros_lib/std_msgs/MultiArrayDimension.h ****       offset += length_label;
  34:./lib/ros_lib/std_msgs/MultiArrayDimension.h ****       *(outbuffer + offset + 0) = (this->size >> (8 * 0)) & 0xFF;
  35:./lib/ros_lib/std_msgs/MultiArrayDimension.h ****       *(outbuffer + offset + 1) = (this->size >> (8 * 1)) & 0xFF;
  36:./lib/ros_lib/std_msgs/MultiArrayDimension.h ****       *(outbuffer + offset + 2) = (this->size >> (8 * 2)) & 0xFF;
  37:./lib/ros_lib/std_msgs/MultiArrayDimension.h ****       *(outbuffer + offset + 3) = (this->size >> (8 * 3)) & 0xFF;
  38:./lib/ros_lib/std_msgs/MultiArrayDimension.h ****       offset += sizeof(this->size);
  39:./lib/ros_lib/std_msgs/MultiArrayDimension.h ****       *(outbuffer + offset + 0) = (this->stride >> (8 * 0)) & 0xFF;
  40:./lib/ros_lib/std_msgs/MultiArrayDimension.h ****       *(outbuffer + offset + 1) = (this->stride >> (8 * 1)) & 0xFF;
  41:./lib/ros_lib/std_msgs/MultiArrayDimension.h ****       *(outbuffer + offset + 2) = (this->stride >> (8 * 2)) & 0xFF;
  42:./lib/ros_lib/std_msgs/MultiArrayDimension.h ****       *(outbuffer + offset + 3) = (this->stride >> (8 * 3)) & 0xFF;
  43:./lib/ros_lib/std_msgs/MultiArrayDimension.h ****       offset += sizeof(this->stride);
  44:./lib/ros_lib/std_msgs/MultiArrayDimension.h ****       return offset;
  45:./lib/ros_lib/std_msgs/MultiArrayDimension.h ****     }
  46:./lib/ros_lib/std_msgs/MultiArrayDimension.h **** 
  47:./lib/ros_lib/std_msgs/MultiArrayDimension.h ****     virtual int deserialize(unsigned char *inbuffer)
 634              		.loc 5 47 0
 635              		.cfi_startproc
 636              		@ args = 0, pretend = 0, frame = 0
 637              		@ frame_needed = 0, uses_anonymous_args = 0
 638              	.LVL74:
  48:./lib/ros_lib/std_msgs/MultiArrayDimension.h ****     {
  49:./lib/ros_lib/std_msgs/MultiArrayDimension.h ****       int offset = 0;
  50:./lib/ros_lib/std_msgs/MultiArrayDimension.h ****       uint32_t length_label;
  51:./lib/ros_lib/std_msgs/MultiArrayDimension.h ****       memcpy(&length_label, (inbuffer + offset), sizeof(uint32_t));
 639              		.loc 5 51 0
 640 0000 0B46     		mov	r3, r1
  47:./lib/ros_lib/std_msgs/MultiArrayDimension.h ****     {
 641              		.loc 5 47 0
 642 0002 30B5     		push	{r4, r5, lr}
 643              	.LCFI2:
 644              		.cfi_def_cfa_offset 12
 645              		.cfi_offset 4, -12
 646              		.cfi_offset 5, -8
 647              		.cfi_offset 14, -4
 648              		.loc 5 51 0
 649 0004 53F8044B 		ldr	r4, [r3], #4	@ unaligned
 650              	.LVL75:
 651              	.LBB203:
  52:./lib/ros_lib/std_msgs/MultiArrayDimension.h ****       offset += 4;
  53:./lib/ros_lib/std_msgs/MultiArrayDimension.h ****       for(unsigned int k= offset; k< offset+length_label; ++k){
 652              		.loc 5 53 0
 653 0008 251D     		adds	r5, r4, #4
 654              	.LVL76:
 655              	.L43:
 656              		.loc 5 53 0 is_stmt 0 discriminator 3
 657 000a 5A1A     		subs	r2, r3, r1
 658              	.LVL77:
 659 000c 9542     		cmp	r5, r2
 660 000e 04D9     		bls	.L42
  54:./lib/ros_lib/std_msgs/MultiArrayDimension.h ****           inbuffer[k-1]=inbuffer[k];
 661              		.loc 5 54 0 is_stmt 1 discriminator 2
 662 0010 13F8012B 		ldrb	r2, [r3], #1	@ zero_extendqisi2
 663              	.LVL78:
 664 0014 03F8022C 		strb	r2, [r3, #-2]
 665              	.LVL79:
  53:./lib/ros_lib/std_msgs/MultiArrayDimension.h ****           inbuffer[k-1]=inbuffer[k];
 666              		.loc 5 53 0 discriminator 2
 667 0018 F7E7     		b	.L43
 668              	.LVL80:
 669              	.L42:
 670              	.LBE203:
  55:./lib/ros_lib/std_msgs/MultiArrayDimension.h ****       }
  56:./lib/ros_lib/std_msgs/MultiArrayDimension.h ****       inbuffer[offset+length_label-1]=0;
 671              		.loc 5 56 0
 672 001a 0023     		movs	r3, #0
 673 001c 0A19     		adds	r2, r1, r4
 674              	.LVL81:
 675 001e D370     		strb	r3, [r2, #3]
  57:./lib/ros_lib/std_msgs/MultiArrayDimension.h ****       this->label = (char *)(inbuffer + offset-1);
 676              		.loc 5 57 0
 677 0020 CB1C     		adds	r3, r1, #3
 678 0022 4360     		str	r3, [r0, #4]
 679              	.LVL82:
  58:./lib/ros_lib/std_msgs/MultiArrayDimension.h ****       offset += length_label;
  59:./lib/ros_lib/std_msgs/MultiArrayDimension.h ****       this->size =  ((uint32_t) (*(inbuffer + offset)));
 680              		.loc 5 59 0
 681 0024 4B5D     		ldrb	r3, [r1, r5]	@ zero_extendqisi2
 682 0026 8360     		str	r3, [r0, #8]
  60:./lib/ros_lib/std_msgs/MultiArrayDimension.h ****       this->size |= ((uint32_t) (*(inbuffer + offset + 1))) << (8 * 1);
 683              		.loc 5 60 0
 684 0028 5179     		ldrb	r1, [r2, #5]	@ zero_extendqisi2
 685              	.LVL83:
 686 002a 43EA0123 		orr	r3, r3, r1, lsl #8
 687 002e 8360     		str	r3, [r0, #8]
  61:./lib/ros_lib/std_msgs/MultiArrayDimension.h ****       this->size |= ((uint32_t) (*(inbuffer + offset + 2))) << (8 * 2);
 688              		.loc 5 61 0
 689 0030 9179     		ldrb	r1, [r2, #6]	@ zero_extendqisi2
 690 0032 43EA0143 		orr	r3, r3, r1, lsl #16
 691 0036 8360     		str	r3, [r0, #8]
  62:./lib/ros_lib/std_msgs/MultiArrayDimension.h ****       this->size |= ((uint32_t) (*(inbuffer + offset + 3))) << (8 * 3);
 692              		.loc 5 62 0
 693 0038 D179     		ldrb	r1, [r2, #7]	@ zero_extendqisi2
 694 003a 43EA0163 		orr	r3, r3, r1, lsl #24
 695 003e 8360     		str	r3, [r0, #8]
 696              	.LVL84:
  63:./lib/ros_lib/std_msgs/MultiArrayDimension.h ****       offset += sizeof(this->size);
  64:./lib/ros_lib/std_msgs/MultiArrayDimension.h ****       this->stride =  ((uint32_t) (*(inbuffer + offset)));
 697              		.loc 5 64 0
 698 0040 137A     		ldrb	r3, [r2, #8]	@ zero_extendqisi2
 699 0042 C360     		str	r3, [r0, #12]
  65:./lib/ros_lib/std_msgs/MultiArrayDimension.h ****       this->stride |= ((uint32_t) (*(inbuffer + offset + 1))) << (8 * 1);
 700              		.loc 5 65 0
 701 0044 517A     		ldrb	r1, [r2, #9]	@ zero_extendqisi2
 702 0046 43EA0123 		orr	r3, r3, r1, lsl #8
 703 004a C360     		str	r3, [r0, #12]
  66:./lib/ros_lib/std_msgs/MultiArrayDimension.h ****       this->stride |= ((uint32_t) (*(inbuffer + offset + 2))) << (8 * 2);
 704              		.loc 5 66 0
 705 004c 917A     		ldrb	r1, [r2, #10]	@ zero_extendqisi2
 706 004e 43EA0143 		orr	r3, r3, r1, lsl #16
 707 0052 C360     		str	r3, [r0, #12]
  67:./lib/ros_lib/std_msgs/MultiArrayDimension.h ****       this->stride |= ((uint32_t) (*(inbuffer + offset + 3))) << (8 * 3);
 708              		.loc 5 67 0
 709 0054 D27A     		ldrb	r2, [r2, #11]	@ zero_extendqisi2
 710 0056 43EA0263 		orr	r3, r3, r2, lsl #24
 711 005a C360     		str	r3, [r0, #12]
 712              	.LVL85:
  68:./lib/ros_lib/std_msgs/MultiArrayDimension.h ****       offset += sizeof(this->stride);
  69:./lib/ros_lib/std_msgs/MultiArrayDimension.h ****      return offset;
  70:./lib/ros_lib/std_msgs/MultiArrayDimension.h ****     }
 713              		.loc 5 70 0
 714 005c 04F10C00 		add	r0, r4, #12
 715              	.LVL86:
 716 0060 30BD     		pop	{r4, r5, pc}
 717              		.cfi_endproc
 718              	.LFE1489:
 719              		.cantunwind
 720              		.fnend
 722              		.section	.text._ZN8std_msgs19MultiArrayDimension7getTypeEv,"axG",%progbits,_ZN8std_msgs19MultiArra
 723              		.align	1
 724              		.weak	_ZN8std_msgs19MultiArrayDimension7getTypeEv
 725              		.syntax unified
 726              		.thumb
 727              		.thumb_func
 728              		.fpu softvfp
 730              	_ZN8std_msgs19MultiArrayDimension7getTypeEv:
 731              		.fnstart
 732              	.LFB1490:
  71:./lib/ros_lib/std_msgs/MultiArrayDimension.h **** 
  72:./lib/ros_lib/std_msgs/MultiArrayDimension.h ****     const char * getType(){ return "std_msgs/MultiArrayDimension"; };
 733              		.loc 5 72 0
 734              		.cfi_startproc
 735              		@ args = 0, pretend = 0, frame = 0
 736              		@ frame_needed = 0, uses_anonymous_args = 0
 737              		@ link register save eliminated.
 738              	.LVL87:
 739              		.loc 5 72 0
 740 0000 0048     		ldr	r0, .L46
 741              	.LVL88:
 742 0002 7047     		bx	lr
 743              	.L47:
 744              		.align	2
 745              	.L46:
 746 0004 00000000 		.word	.LC9
 747              		.cfi_endproc
 748              	.LFE1490:
 749              		.cantunwind
 750              		.fnend
 752              		.section	.text._ZN8std_msgs19MultiArrayDimension6getMD5Ev,"axG",%progbits,_ZN8std_msgs19MultiArray
 753              		.align	1
 754              		.weak	_ZN8std_msgs19MultiArrayDimension6getMD5Ev
 755              		.syntax unified
 756              		.thumb
 757              		.thumb_func
 758              		.fpu softvfp
 760              	_ZN8std_msgs19MultiArrayDimension6getMD5Ev:
 761              		.fnstart
 762              	.LFB1491:
  73:./lib/ros_lib/std_msgs/MultiArrayDimension.h ****     const char * getMD5(){ return "4cd0c83a8683deae40ecdac60e53bfa8"; };
 763              		.loc 5 73 0
 764              		.cfi_startproc
 765              		@ args = 0, pretend = 0, frame = 0
 766              		@ frame_needed = 0, uses_anonymous_args = 0
 767              		@ link register save eliminated.
 768              	.LVL89:
 769              		.loc 5 73 0
 770 0000 0048     		ldr	r0, .L49
 771              	.LVL90:
 772 0002 7047     		bx	lr
 773              	.L50:
 774              		.align	2
 775              	.L49:
 776 0004 00000000 		.word	.LC10
 777              		.cfi_endproc
 778              	.LFE1491:
 779              		.cantunwind
 780              		.fnend
 782              		.section	.text._ZNK8std_msgs16MultiArrayLayout9serializeEPh,"axG",%progbits,_ZNK8std_msgs16MultiAr
 783              		.align	1
 784              		.weak	_ZNK8std_msgs16MultiArrayLayout9serializeEPh
 785              		.syntax unified
 786              		.thumb
 787              		.thumb_func
 788              		.fpu softvfp
 790              	_ZNK8std_msgs16MultiArrayLayout9serializeEPh:
 791              		.fnstart
 792              	.LFB1495:
 793              		.file 6 "./lib/ros_lib/std_msgs/MultiArrayLayout.h"
   1:./lib/ros_lib/std_msgs/MultiArrayLayout.h **** #ifndef _ROS_std_msgs_MultiArrayLayout_h
   2:./lib/ros_lib/std_msgs/MultiArrayLayout.h **** #define _ROS_std_msgs_MultiArrayLayout_h
   3:./lib/ros_lib/std_msgs/MultiArrayLayout.h **** 
   4:./lib/ros_lib/std_msgs/MultiArrayLayout.h **** #include <stdint.h>
   5:./lib/ros_lib/std_msgs/MultiArrayLayout.h **** #include <string.h>
   6:./lib/ros_lib/std_msgs/MultiArrayLayout.h **** #include <stdlib.h>
   7:./lib/ros_lib/std_msgs/MultiArrayLayout.h **** #include "ros/msg.h"
   8:./lib/ros_lib/std_msgs/MultiArrayLayout.h **** #include "std_msgs/MultiArrayDimension.h"
   9:./lib/ros_lib/std_msgs/MultiArrayLayout.h **** 
  10:./lib/ros_lib/std_msgs/MultiArrayLayout.h **** namespace std_msgs
  11:./lib/ros_lib/std_msgs/MultiArrayLayout.h **** {
  12:./lib/ros_lib/std_msgs/MultiArrayLayout.h **** 
  13:./lib/ros_lib/std_msgs/MultiArrayLayout.h ****   class MultiArrayLayout : public ros::Msg
  14:./lib/ros_lib/std_msgs/MultiArrayLayout.h ****   {
  15:./lib/ros_lib/std_msgs/MultiArrayLayout.h ****     public:
  16:./lib/ros_lib/std_msgs/MultiArrayLayout.h ****       uint8_t dim_length;
  17:./lib/ros_lib/std_msgs/MultiArrayLayout.h ****       std_msgs::MultiArrayDimension st_dim;
  18:./lib/ros_lib/std_msgs/MultiArrayLayout.h ****       std_msgs::MultiArrayDimension * dim;
  19:./lib/ros_lib/std_msgs/MultiArrayLayout.h ****       uint32_t data_offset;
  20:./lib/ros_lib/std_msgs/MultiArrayLayout.h **** 
  21:./lib/ros_lib/std_msgs/MultiArrayLayout.h ****     MultiArrayLayout():
  22:./lib/ros_lib/std_msgs/MultiArrayLayout.h ****       dim_length(0), dim(NULL),
  23:./lib/ros_lib/std_msgs/MultiArrayLayout.h ****       data_offset(0)
  24:./lib/ros_lib/std_msgs/MultiArrayLayout.h ****     {
  25:./lib/ros_lib/std_msgs/MultiArrayLayout.h ****     }
  26:./lib/ros_lib/std_msgs/MultiArrayLayout.h **** 
  27:./lib/ros_lib/std_msgs/MultiArrayLayout.h ****     virtual int serialize(unsigned char *outbuffer) const
 794              		.loc 6 27 0
 795              		.cfi_startproc
 796              		@ args = 0, pretend = 0, frame = 0
 797              		@ frame_needed = 0, uses_anonymous_args = 0
 798              	.LVL91:
 799 0000 F8B5     		push	{r3, r4, r5, r6, r7, lr}
 800              		.save {r3, r4, r5, r6, r7, lr}
 801              	.LCFI3:
 802              		.cfi_def_cfa_offset 24
 803              		.cfi_offset 3, -24
 804              		.cfi_offset 4, -20
 805              		.cfi_offset 5, -16
 806              		.cfi_offset 6, -12
 807              		.cfi_offset 7, -8
 808              		.cfi_offset 14, -4
 809              		.loc 6 27 0
 810 0002 0446     		mov	r4, r0
  28:./lib/ros_lib/std_msgs/MultiArrayLayout.h ****     {
  29:./lib/ros_lib/std_msgs/MultiArrayLayout.h ****       int offset = 0;
  30:./lib/ros_lib/std_msgs/MultiArrayLayout.h ****       *(outbuffer + offset++) = dim_length;
 811              		.loc 6 30 0
 812 0004 0379     		ldrb	r3, [r0, #4]	@ zero_extendqisi2
  31:./lib/ros_lib/std_msgs/MultiArrayLayout.h ****       *(outbuffer + offset++) = 0;
 813              		.loc 6 31 0
 814 0006 0020     		movs	r0, #0
 815              	.LVL92:
  27:./lib/ros_lib/std_msgs/MultiArrayLayout.h ****     {
 816              		.loc 6 27 0
 817 0008 0D46     		mov	r5, r1
  32:./lib/ros_lib/std_msgs/MultiArrayLayout.h ****       *(outbuffer + offset++) = 0;
  33:./lib/ros_lib/std_msgs/MultiArrayLayout.h ****       *(outbuffer + offset++) = 0;
 818              		.loc 6 33 0
 819 000a 0426     		movs	r6, #4
  30:./lib/ros_lib/std_msgs/MultiArrayLayout.h ****       *(outbuffer + offset++) = 0;
 820              		.loc 6 30 0
 821 000c 0B70     		strb	r3, [r1]
 822              	.LVL93:
  31:./lib/ros_lib/std_msgs/MultiArrayLayout.h ****       *(outbuffer + offset++) = 0;
 823              		.loc 6 31 0
 824 000e 4870     		strb	r0, [r1, #1]
 825              	.LVL94:
  32:./lib/ros_lib/std_msgs/MultiArrayLayout.h ****       *(outbuffer + offset++) = 0;
 826              		.loc 6 32 0
 827 0010 8870     		strb	r0, [r1, #2]
 828              	.LVL95:
 829              		.loc 6 33 0
 830 0012 C870     		strb	r0, [r1, #3]
 831              	.LVL96:
 832              	.L53:
 833              	.LBB204:
  34:./lib/ros_lib/std_msgs/MultiArrayLayout.h ****       for( uint8_t i = 0; i < dim_length; i++){
 834              		.loc 6 34 0 discriminator 3
 835 0014 2379     		ldrb	r3, [r4, #4]	@ zero_extendqisi2
 836 0016 471C     		adds	r7, r0, #1
 837 0018 C0B2     		uxtb	r0, r0
 838 001a 9842     		cmp	r0, r3
 839 001c 05EB0601 		add	r1, r5, r6
 840 0020 08DA     		bge	.L52
  35:./lib/ros_lib/std_msgs/MultiArrayLayout.h ****       offset += this->dim[i].serialize(outbuffer + offset);
 841              		.loc 6 35 0 discriminator 2
 842 0022 A369     		ldr	r3, [r4, #24]
 843 0024 0001     		lsls	r0, r0, #4
 844              	.LVL97:
 845 0026 1A58     		ldr	r2, [r3, r0]
 846 0028 1844     		add	r0, r0, r3
 847 002a 1268     		ldr	r2, [r2]
 848 002c 9047     		blx	r2
 849              	.LVL98:
 850 002e 0644     		add	r6, r6, r0
 851              	.LVL99:
  34:./lib/ros_lib/std_msgs/MultiArrayLayout.h ****       for( uint8_t i = 0; i < dim_length; i++){
 852              		.loc 6 34 0 discriminator 2
 853 0030 3846     		mov	r0, r7
 854 0032 EFE7     		b	.L53
 855              	.LVL100:
 856              	.L52:
 857              	.LBE204:
  36:./lib/ros_lib/std_msgs/MultiArrayLayout.h ****       }
  37:./lib/ros_lib/std_msgs/MultiArrayLayout.h ****       *(outbuffer + offset + 0) = (this->data_offset >> (8 * 0)) & 0xFF;
 858              		.loc 6 37 0
 859 0034 E369     		ldr	r3, [r4, #28]
  38:./lib/ros_lib/std_msgs/MultiArrayLayout.h ****       *(outbuffer + offset + 1) = (this->data_offset >> (8 * 1)) & 0xFF;
  39:./lib/ros_lib/std_msgs/MultiArrayLayout.h ****       *(outbuffer + offset + 2) = (this->data_offset >> (8 * 2)) & 0xFF;
  40:./lib/ros_lib/std_msgs/MultiArrayLayout.h ****       *(outbuffer + offset + 3) = (this->data_offset >> (8 * 3)) & 0xFF;
  41:./lib/ros_lib/std_msgs/MultiArrayLayout.h ****       offset += sizeof(this->data_offset);
  42:./lib/ros_lib/std_msgs/MultiArrayLayout.h ****       return offset;
  43:./lib/ros_lib/std_msgs/MultiArrayLayout.h ****     }
 860              		.loc 6 43 0
 861 0036 301D     		adds	r0, r6, #4
 862              	.LVL101:
  37:./lib/ros_lib/std_msgs/MultiArrayLayout.h ****       *(outbuffer + offset + 1) = (this->data_offset >> (8 * 1)) & 0xFF;
 863              		.loc 6 37 0
 864 0038 AB55     		strb	r3, [r5, r6]
  38:./lib/ros_lib/std_msgs/MultiArrayLayout.h ****       *(outbuffer + offset + 1) = (this->data_offset >> (8 * 1)) & 0xFF;
 865              		.loc 6 38 0
 866 003a E369     		ldr	r3, [r4, #28]
 867 003c 1B0A     		lsrs	r3, r3, #8
 868 003e 4B70     		strb	r3, [r1, #1]
  39:./lib/ros_lib/std_msgs/MultiArrayLayout.h ****       *(outbuffer + offset + 3) = (this->data_offset >> (8 * 3)) & 0xFF;
 869              		.loc 6 39 0
 870 0040 E38B     		ldrh	r3, [r4, #30]
 871 0042 8B70     		strb	r3, [r1, #2]
  40:./lib/ros_lib/std_msgs/MultiArrayLayout.h ****       offset += sizeof(this->data_offset);
 872              		.loc 6 40 0
 873 0044 E37F     		ldrb	r3, [r4, #31]	@ zero_extendqisi2
 874 0046 CB70     		strb	r3, [r1, #3]
 875              	.LVL102:
 876              		.loc 6 43 0
 877 0048 F8BD     		pop	{r3, r4, r5, r6, r7, pc}
 878              		.cfi_endproc
 879              	.LFE1495:
 880              		.fnend
 882              		.section	.text._ZN8std_msgs16MultiArrayLayout7getTypeEv,"axG",%progbits,_ZN8std_msgs16MultiArrayLa
 883              		.align	1
 884              		.weak	_ZN8std_msgs16MultiArrayLayout7getTypeEv
 885              		.syntax unified
 886              		.thumb
 887              		.thumb_func
 888              		.fpu softvfp
 890              	_ZN8std_msgs16MultiArrayLayout7getTypeEv:
 891              		.fnstart
 892              	.LFB1497:
  44:./lib/ros_lib/std_msgs/MultiArrayLayout.h **** 
  45:./lib/ros_lib/std_msgs/MultiArrayLayout.h ****     virtual int deserialize(unsigned char *inbuffer)
  46:./lib/ros_lib/std_msgs/MultiArrayLayout.h ****     {
  47:./lib/ros_lib/std_msgs/MultiArrayLayout.h ****       int offset = 0;
  48:./lib/ros_lib/std_msgs/MultiArrayLayout.h ****       uint8_t dim_lengthT = *(inbuffer + offset++);
  49:./lib/ros_lib/std_msgs/MultiArrayLayout.h ****       if(dim_lengthT > dim_length)
  50:./lib/ros_lib/std_msgs/MultiArrayLayout.h ****         this->dim = (std_msgs::MultiArrayDimension*)realloc(this->dim, dim_lengthT * sizeof(std_msg
  51:./lib/ros_lib/std_msgs/MultiArrayLayout.h ****       offset += 3;
  52:./lib/ros_lib/std_msgs/MultiArrayLayout.h ****       dim_length = dim_lengthT;
  53:./lib/ros_lib/std_msgs/MultiArrayLayout.h ****       for( uint8_t i = 0; i < dim_length; i++){
  54:./lib/ros_lib/std_msgs/MultiArrayLayout.h ****       offset += this->st_dim.deserialize(inbuffer + offset);
  55:./lib/ros_lib/std_msgs/MultiArrayLayout.h ****         memcpy( &(this->dim[i]), &(this->st_dim), sizeof(std_msgs::MultiArrayDimension));
  56:./lib/ros_lib/std_msgs/MultiArrayLayout.h ****       }
  57:./lib/ros_lib/std_msgs/MultiArrayLayout.h ****       this->data_offset =  ((uint32_t) (*(inbuffer + offset)));
  58:./lib/ros_lib/std_msgs/MultiArrayLayout.h ****       this->data_offset |= ((uint32_t) (*(inbuffer + offset + 1))) << (8 * 1);
  59:./lib/ros_lib/std_msgs/MultiArrayLayout.h ****       this->data_offset |= ((uint32_t) (*(inbuffer + offset + 2))) << (8 * 2);
  60:./lib/ros_lib/std_msgs/MultiArrayLayout.h ****       this->data_offset |= ((uint32_t) (*(inbuffer + offset + 3))) << (8 * 3);
  61:./lib/ros_lib/std_msgs/MultiArrayLayout.h ****       offset += sizeof(this->data_offset);
  62:./lib/ros_lib/std_msgs/MultiArrayLayout.h ****      return offset;
  63:./lib/ros_lib/std_msgs/MultiArrayLayout.h ****     }
  64:./lib/ros_lib/std_msgs/MultiArrayLayout.h **** 
  65:./lib/ros_lib/std_msgs/MultiArrayLayout.h ****     const char * getType(){ return "std_msgs/MultiArrayLayout"; };
 893              		.loc 6 65 0
 894              		.cfi_startproc
 895              		@ args = 0, pretend = 0, frame = 0
 896              		@ frame_needed = 0, uses_anonymous_args = 0
 897              		@ link register save eliminated.
 898              	.LVL103:
 899              		.loc 6 65 0
 900 0000 0048     		ldr	r0, .L55
 901              	.LVL104:
 902 0002 7047     		bx	lr
 903              	.L56:
 904              		.align	2
 905              	.L55:
 906 0004 00000000 		.word	.LC11
 907              		.cfi_endproc
 908              	.LFE1497:
 909              		.cantunwind
 910              		.fnend
 912              		.section	.text._ZN8std_msgs16MultiArrayLayout6getMD5Ev,"axG",%progbits,_ZN8std_msgs16MultiArrayLay
 913              		.align	1
 914              		.weak	_ZN8std_msgs16MultiArrayLayout6getMD5Ev
 915              		.syntax unified
 916              		.thumb
 917              		.thumb_func
 918              		.fpu softvfp
 920              	_ZN8std_msgs16MultiArrayLayout6getMD5Ev:
 921              		.fnstart
 922              	.LFB1498:
  66:./lib/ros_lib/std_msgs/MultiArrayLayout.h ****     const char * getMD5(){ return "0fed2a11c13e11c5571b4e2a995a91a3"; };
 923              		.loc 6 66 0
 924              		.cfi_startproc
 925              		@ args = 0, pretend = 0, frame = 0
 926              		@ frame_needed = 0, uses_anonymous_args = 0
 927              		@ link register save eliminated.
 928              	.LVL105:
 929              		.loc 6 66 0
 930 0000 0048     		ldr	r0, .L58
 931              	.LVL106:
 932 0002 7047     		bx	lr
 933              	.L59:
 934              		.align	2
 935              	.L58:
 936 0004 00000000 		.word	.LC12
 937              		.cfi_endproc
 938              	.LFE1498:
 939              		.cantunwind
 940              		.fnend
 942              		.section	.text._ZNK8std_msgs17Float32MultiArray9serializeEPh,"axG",%progbits,_ZNK8std_msgs17Float3
 943              		.align	1
 944              		.weak	_ZNK8std_msgs17Float32MultiArray9serializeEPh
 945              		.syntax unified
 946              		.thumb
 947              		.thumb_func
 948              		.fpu softvfp
 950              	_ZNK8std_msgs17Float32MultiArray9serializeEPh:
 951              		.fnstart
 952              	.LFB1502:
 953              		.file 7 "./lib/ros_lib/std_msgs/Float32MultiArray.h"
   1:./lib/ros_lib/std_msgs/Float32MultiArray.h **** #ifndef _ROS_std_msgs_Float32MultiArray_h
   2:./lib/ros_lib/std_msgs/Float32MultiArray.h **** #define _ROS_std_msgs_Float32MultiArray_h
   3:./lib/ros_lib/std_msgs/Float32MultiArray.h **** 
   4:./lib/ros_lib/std_msgs/Float32MultiArray.h **** #include <stdint.h>
   5:./lib/ros_lib/std_msgs/Float32MultiArray.h **** #include <string.h>
   6:./lib/ros_lib/std_msgs/Float32MultiArray.h **** #include <stdlib.h>
   7:./lib/ros_lib/std_msgs/Float32MultiArray.h **** #include "ros/msg.h"
   8:./lib/ros_lib/std_msgs/Float32MultiArray.h **** #include "std_msgs/MultiArrayLayout.h"
   9:./lib/ros_lib/std_msgs/Float32MultiArray.h **** 
  10:./lib/ros_lib/std_msgs/Float32MultiArray.h **** namespace std_msgs
  11:./lib/ros_lib/std_msgs/Float32MultiArray.h **** {
  12:./lib/ros_lib/std_msgs/Float32MultiArray.h **** 
  13:./lib/ros_lib/std_msgs/Float32MultiArray.h ****   class Float32MultiArray : public ros::Msg
  14:./lib/ros_lib/std_msgs/Float32MultiArray.h ****   {
  15:./lib/ros_lib/std_msgs/Float32MultiArray.h ****     public:
  16:./lib/ros_lib/std_msgs/Float32MultiArray.h ****       std_msgs::MultiArrayLayout layout;
  17:./lib/ros_lib/std_msgs/Float32MultiArray.h ****       uint8_t data_length;
  18:./lib/ros_lib/std_msgs/Float32MultiArray.h ****       float st_data;
  19:./lib/ros_lib/std_msgs/Float32MultiArray.h ****       float * data;
  20:./lib/ros_lib/std_msgs/Float32MultiArray.h **** 
  21:./lib/ros_lib/std_msgs/Float32MultiArray.h ****     Float32MultiArray():
  22:./lib/ros_lib/std_msgs/Float32MultiArray.h ****       layout(),
  23:./lib/ros_lib/std_msgs/Float32MultiArray.h ****       data_length(0), data(NULL)
  24:./lib/ros_lib/std_msgs/Float32MultiArray.h ****     {
  25:./lib/ros_lib/std_msgs/Float32MultiArray.h ****     }
  26:./lib/ros_lib/std_msgs/Float32MultiArray.h **** 
  27:./lib/ros_lib/std_msgs/Float32MultiArray.h ****     virtual int serialize(unsigned char *outbuffer) const
 954              		.loc 7 27 0
 955              		.cfi_startproc
 956              		@ args = 0, pretend = 0, frame = 0
 957              		@ frame_needed = 0, uses_anonymous_args = 0
 958              	.LVL107:
 959 0000 70B5     		push	{r4, r5, r6, lr}
 960              		.save {r4, r5, r6, lr}
 961              	.LCFI4:
 962              		.cfi_def_cfa_offset 16
 963              		.cfi_offset 4, -16
 964              		.cfi_offset 5, -12
 965              		.cfi_offset 6, -8
 966              		.cfi_offset 14, -4
 967              		.loc 7 27 0
 968 0002 0446     		mov	r4, r0
  28:./lib/ros_lib/std_msgs/Float32MultiArray.h ****     {
  29:./lib/ros_lib/std_msgs/Float32MultiArray.h ****       int offset = 0;
  30:./lib/ros_lib/std_msgs/Float32MultiArray.h ****       offset += this->layout.serialize(outbuffer + offset);
 969              		.loc 7 30 0
 970 0004 0430     		adds	r0, r0, #4
 971              	.LVL108:
  27:./lib/ros_lib/std_msgs/Float32MultiArray.h ****     {
 972              		.loc 7 27 0
 973 0006 0D46     		mov	r5, r1
 974              		.loc 7 30 0
 975 0008 FFF7FEFF 		bl	_ZNK8std_msgs16MultiArrayLayout9serializeEPh
 976              	.LVL109:
  31:./lib/ros_lib/std_msgs/Float32MultiArray.h ****       *(outbuffer + offset++) = data_length;
  32:./lib/ros_lib/std_msgs/Float32MultiArray.h ****       *(outbuffer + offset++) = 0;
 977              		.loc 7 32 0
 978 000c 0022     		movs	r2, #0
  31:./lib/ros_lib/std_msgs/Float32MultiArray.h ****       *(outbuffer + offset++) = data_length;
 979              		.loc 7 31 0
 980 000e 94F82430 		ldrb	r3, [r4, #36]	@ zero_extendqisi2
 981 0012 2B54     		strb	r3, [r5, r0]
 982              	.LVL110:
 983              		.loc 7 32 0
 984 0014 2B18     		adds	r3, r5, r0
  33:./lib/ros_lib/std_msgs/Float32MultiArray.h ****       *(outbuffer + offset++) = 0;
  34:./lib/ros_lib/std_msgs/Float32MultiArray.h ****       *(outbuffer + offset++) = 0;
 985              		.loc 7 34 0
 986 0016 0430     		adds	r0, r0, #4
 987              	.LVL111:
  32:./lib/ros_lib/std_msgs/Float32MultiArray.h ****       *(outbuffer + offset++) = 0;
 988              		.loc 7 32 0
 989 0018 5A70     		strb	r2, [r3, #1]
 990              	.LVL112:
  33:./lib/ros_lib/std_msgs/Float32MultiArray.h ****       *(outbuffer + offset++) = 0;
 991              		.loc 7 33 0
 992 001a 9A70     		strb	r2, [r3, #2]
 993              		.loc 7 34 0
 994 001c DA70     		strb	r2, [r3, #3]
 995              	.LVL113:
 996 001e 2B18     		adds	r3, r5, r0
 997              	.LVL114:
 998              	.L62:
 999              	.LBB205:
  35:./lib/ros_lib/std_msgs/Float32MultiArray.h ****       for( uint8_t i = 0; i < data_length; i++){
 1000              		.loc 7 35 0 discriminator 3
 1001 0020 94F82460 		ldrb	r6, [r4, #36]	@ zero_extendqisi2
 1002 0024 511C     		adds	r1, r2, #1
 1003 0026 D2B2     		uxtb	r2, r2
 1004 0028 B242     		cmp	r2, r6
 1005 002a A3EB0500 		sub	r0, r3, r5
 1006              	.LVL115:
 1007 002e 03F10403 		add	r3, r3, #4
 1008 0032 0FDA     		bge	.L60
 1009              	.LBB206:
  36:./lib/ros_lib/std_msgs/Float32MultiArray.h ****       union {
  37:./lib/ros_lib/std_msgs/Float32MultiArray.h ****         float real;
  38:./lib/ros_lib/std_msgs/Float32MultiArray.h ****         uint32_t base;
  39:./lib/ros_lib/std_msgs/Float32MultiArray.h ****       } u_datai;
  40:./lib/ros_lib/std_msgs/Float32MultiArray.h ****       u_datai.real = this->data[i];
 1010              		.loc 7 40 0 discriminator 2
 1011 0034 E06A     		ldr	r0, [r4, #44]
 1012              	.LVL116:
  41:./lib/ros_lib/std_msgs/Float32MultiArray.h ****       *(outbuffer + offset + 0) = (u_datai.base >> (8 * 0)) & 0xFF;
 1013              		.loc 7 41 0 discriminator 2
 1014 0036 50F82220 		ldr	r2, [r0, r2, lsl #2]
  42:./lib/ros_lib/std_msgs/Float32MultiArray.h ****       *(outbuffer + offset + 1) = (u_datai.base >> (8 * 1)) & 0xFF;
 1015              		.loc 7 42 0 discriminator 2
 1016 003a 100A     		lsrs	r0, r2, #8
  41:./lib/ros_lib/std_msgs/Float32MultiArray.h ****       *(outbuffer + offset + 0) = (u_datai.base >> (8 * 0)) & 0xFF;
 1017              		.loc 7 41 0 discriminator 2
 1018 003c 03F8042C 		strb	r2, [r3, #-4]
 1019              		.loc 7 42 0 discriminator 2
 1020 0040 03F8030C 		strb	r0, [r3, #-3]
  43:./lib/ros_lib/std_msgs/Float32MultiArray.h ****       *(outbuffer + offset + 2) = (u_datai.base >> (8 * 2)) & 0xFF;
 1021              		.loc 7 43 0 discriminator 2
 1022 0044 100C     		lsrs	r0, r2, #16
  44:./lib/ros_lib/std_msgs/Float32MultiArray.h ****       *(outbuffer + offset + 3) = (u_datai.base >> (8 * 3)) & 0xFF;
 1023              		.loc 7 44 0 discriminator 2
 1024 0046 120E     		lsrs	r2, r2, #24
 1025 0048 03F8012C 		strb	r2, [r3, #-1]
 1026              	.LVL117:
  43:./lib/ros_lib/std_msgs/Float32MultiArray.h ****       *(outbuffer + offset + 2) = (u_datai.base >> (8 * 2)) & 0xFF;
 1027              		.loc 7 43 0 discriminator 2
 1028 004c 03F8020C 		strb	r0, [r3, #-2]
 1029              	.LBE206:
  35:./lib/ros_lib/std_msgs/Float32MultiArray.h ****       union {
 1030              		.loc 7 35 0 discriminator 2
 1031 0050 0A46     		mov	r2, r1
 1032 0052 E5E7     		b	.L62
 1033              	.LVL118:
 1034              	.L60:
 1035              	.LBE205:
  45:./lib/ros_lib/std_msgs/Float32MultiArray.h ****       offset += sizeof(this->data[i]);
  46:./lib/ros_lib/std_msgs/Float32MultiArray.h ****       }
  47:./lib/ros_lib/std_msgs/Float32MultiArray.h ****       return offset;
  48:./lib/ros_lib/std_msgs/Float32MultiArray.h ****     }
 1036              		.loc 7 48 0
 1037 0054 70BD     		pop	{r4, r5, r6, pc}
 1038              		.cfi_endproc
 1039              	.LFE1502:
 1040              		.fnend
 1042              		.section	.text._ZN8std_msgs17Float32MultiArray7getTypeEv,"axG",%progbits,_ZN8std_msgs17Float32Mult
 1043              		.align	1
 1044              		.weak	_ZN8std_msgs17Float32MultiArray7getTypeEv
 1045              		.syntax unified
 1046              		.thumb
 1047              		.thumb_func
 1048              		.fpu softvfp
 1050              	_ZN8std_msgs17Float32MultiArray7getTypeEv:
 1051              		.fnstart
 1052              	.LFB1504:
  49:./lib/ros_lib/std_msgs/Float32MultiArray.h **** 
  50:./lib/ros_lib/std_msgs/Float32MultiArray.h ****     virtual int deserialize(unsigned char *inbuffer)
  51:./lib/ros_lib/std_msgs/Float32MultiArray.h ****     {
  52:./lib/ros_lib/std_msgs/Float32MultiArray.h ****       int offset = 0;
  53:./lib/ros_lib/std_msgs/Float32MultiArray.h ****       offset += this->layout.deserialize(inbuffer + offset);
  54:./lib/ros_lib/std_msgs/Float32MultiArray.h ****       uint8_t data_lengthT = *(inbuffer + offset++);
  55:./lib/ros_lib/std_msgs/Float32MultiArray.h ****       if(data_lengthT > data_length)
  56:./lib/ros_lib/std_msgs/Float32MultiArray.h ****         this->data = (float*)realloc(this->data, data_lengthT * sizeof(float));
  57:./lib/ros_lib/std_msgs/Float32MultiArray.h ****       offset += 3;
  58:./lib/ros_lib/std_msgs/Float32MultiArray.h ****       data_length = data_lengthT;
  59:./lib/ros_lib/std_msgs/Float32MultiArray.h ****       for( uint8_t i = 0; i < data_length; i++){
  60:./lib/ros_lib/std_msgs/Float32MultiArray.h ****       union {
  61:./lib/ros_lib/std_msgs/Float32MultiArray.h ****         float real;
  62:./lib/ros_lib/std_msgs/Float32MultiArray.h ****         uint32_t base;
  63:./lib/ros_lib/std_msgs/Float32MultiArray.h ****       } u_st_data;
  64:./lib/ros_lib/std_msgs/Float32MultiArray.h ****       u_st_data.base = 0;
  65:./lib/ros_lib/std_msgs/Float32MultiArray.h ****       u_st_data.base |= ((uint32_t) (*(inbuffer + offset + 0))) << (8 * 0);
  66:./lib/ros_lib/std_msgs/Float32MultiArray.h ****       u_st_data.base |= ((uint32_t) (*(inbuffer + offset + 1))) << (8 * 1);
  67:./lib/ros_lib/std_msgs/Float32MultiArray.h ****       u_st_data.base |= ((uint32_t) (*(inbuffer + offset + 2))) << (8 * 2);
  68:./lib/ros_lib/std_msgs/Float32MultiArray.h ****       u_st_data.base |= ((uint32_t) (*(inbuffer + offset + 3))) << (8 * 3);
  69:./lib/ros_lib/std_msgs/Float32MultiArray.h ****       this->st_data = u_st_data.real;
  70:./lib/ros_lib/std_msgs/Float32MultiArray.h ****       offset += sizeof(this->st_data);
  71:./lib/ros_lib/std_msgs/Float32MultiArray.h ****         memcpy( &(this->data[i]), &(this->st_data), sizeof(float));
  72:./lib/ros_lib/std_msgs/Float32MultiArray.h ****       }
  73:./lib/ros_lib/std_msgs/Float32MultiArray.h ****      return offset;
  74:./lib/ros_lib/std_msgs/Float32MultiArray.h ****     }
  75:./lib/ros_lib/std_msgs/Float32MultiArray.h **** 
  76:./lib/ros_lib/std_msgs/Float32MultiArray.h ****     const char * getType(){ return "std_msgs/Float32MultiArray"; };
 1053              		.loc 7 76 0
 1054              		.cfi_startproc
 1055              		@ args = 0, pretend = 0, frame = 0
 1056              		@ frame_needed = 0, uses_anonymous_args = 0
 1057              		@ link register save eliminated.
 1058              	.LVL119:
 1059              		.loc 7 76 0
 1060 0000 0048     		ldr	r0, .L64
 1061              	.LVL120:
 1062 0002 7047     		bx	lr
 1063              	.L65:
 1064              		.align	2
 1065              	.L64:
 1066 0004 00000000 		.word	.LC13
 1067              		.cfi_endproc
 1068              	.LFE1504:
 1069              		.cantunwind
 1070              		.fnend
 1072              		.section	.text._ZN8std_msgs17Float32MultiArray6getMD5Ev,"axG",%progbits,_ZN8std_msgs17Float32Multi
 1073              		.align	1
 1074              		.weak	_ZN8std_msgs17Float32MultiArray6getMD5Ev
 1075              		.syntax unified
 1076              		.thumb
 1077              		.thumb_func
 1078              		.fpu softvfp
 1080              	_ZN8std_msgs17Float32MultiArray6getMD5Ev:
 1081              		.fnstart
 1082              	.LFB1505:
  77:./lib/ros_lib/std_msgs/Float32MultiArray.h ****     const char * getMD5(){ return "6a40e0ffa6a17a503ac3f8616991b1f6"; };
 1083              		.loc 7 77 0
 1084              		.cfi_startproc
 1085              		@ args = 0, pretend = 0, frame = 0
 1086              		@ frame_needed = 0, uses_anonymous_args = 0
 1087              		@ link register save eliminated.
 1088              	.LVL121:
 1089              		.loc 7 77 0
 1090 0000 0048     		ldr	r0, .L67
 1091              	.LVL122:
 1092 0002 7047     		bx	lr
 1093              	.L68:
 1094              		.align	2
 1095              	.L67:
 1096 0004 00000000 		.word	.LC14
 1097              		.cfi_endproc
 1098              	.LFE1505:
 1099              		.cantunwind
 1100              		.fnend
 1102              		.section	.text._ZN8std_msgs6Header11deserializeEPh,"axG",%progbits,_ZN8std_msgs6Header11deserializ
 1103              		.align	1
 1104              		.weak	_ZN8std_msgs6Header11deserializeEPh
 1105              		.syntax unified
 1106              		.thumb
 1107              		.thumb_func
 1108              		.fpu softvfp
 1110              	_ZN8std_msgs6Header11deserializeEPh:
 1111              		.fnstart
 1112              	.LFB1524:
 1113              		.file 8 "./lib/ros_lib/std_msgs/Header.h"
   1:./lib/ros_lib/std_msgs/Header.h **** #ifndef _ROS_std_msgs_Header_h
   2:./lib/ros_lib/std_msgs/Header.h **** #define _ROS_std_msgs_Header_h
   3:./lib/ros_lib/std_msgs/Header.h **** 
   4:./lib/ros_lib/std_msgs/Header.h **** #include <stdint.h>
   5:./lib/ros_lib/std_msgs/Header.h **** #include <string.h>
   6:./lib/ros_lib/std_msgs/Header.h **** #include <stdlib.h>
   7:./lib/ros_lib/std_msgs/Header.h **** #include "ros/msg.h"
   8:./lib/ros_lib/std_msgs/Header.h **** #include "ros/time.h"
   9:./lib/ros_lib/std_msgs/Header.h **** 
  10:./lib/ros_lib/std_msgs/Header.h **** namespace std_msgs
  11:./lib/ros_lib/std_msgs/Header.h **** {
  12:./lib/ros_lib/std_msgs/Header.h **** 
  13:./lib/ros_lib/std_msgs/Header.h ****   class Header : public ros::Msg
  14:./lib/ros_lib/std_msgs/Header.h ****   {
  15:./lib/ros_lib/std_msgs/Header.h ****     public:
  16:./lib/ros_lib/std_msgs/Header.h ****       uint32_t seq;
  17:./lib/ros_lib/std_msgs/Header.h ****       ros::Time stamp;
  18:./lib/ros_lib/std_msgs/Header.h ****       const char* frame_id;
  19:./lib/ros_lib/std_msgs/Header.h **** 
  20:./lib/ros_lib/std_msgs/Header.h ****     Header():
  21:./lib/ros_lib/std_msgs/Header.h ****       seq(0),
  22:./lib/ros_lib/std_msgs/Header.h ****       stamp(),
  23:./lib/ros_lib/std_msgs/Header.h ****       frame_id("")
  24:./lib/ros_lib/std_msgs/Header.h ****     {
  25:./lib/ros_lib/std_msgs/Header.h ****     }
  26:./lib/ros_lib/std_msgs/Header.h **** 
  27:./lib/ros_lib/std_msgs/Header.h ****     virtual int serialize(unsigned char *outbuffer) const
  28:./lib/ros_lib/std_msgs/Header.h ****     {
  29:./lib/ros_lib/std_msgs/Header.h ****       int offset = 0;
  30:./lib/ros_lib/std_msgs/Header.h ****       *(outbuffer + offset + 0) = (this->seq >> (8 * 0)) & 0xFF;
  31:./lib/ros_lib/std_msgs/Header.h ****       *(outbuffer + offset + 1) = (this->seq >> (8 * 1)) & 0xFF;
  32:./lib/ros_lib/std_msgs/Header.h ****       *(outbuffer + offset + 2) = (this->seq >> (8 * 2)) & 0xFF;
  33:./lib/ros_lib/std_msgs/Header.h ****       *(outbuffer + offset + 3) = (this->seq >> (8 * 3)) & 0xFF;
  34:./lib/ros_lib/std_msgs/Header.h ****       offset += sizeof(this->seq);
  35:./lib/ros_lib/std_msgs/Header.h ****       *(outbuffer + offset + 0) = (this->stamp.sec >> (8 * 0)) & 0xFF;
  36:./lib/ros_lib/std_msgs/Header.h ****       *(outbuffer + offset + 1) = (this->stamp.sec >> (8 * 1)) & 0xFF;
  37:./lib/ros_lib/std_msgs/Header.h ****       *(outbuffer + offset + 2) = (this->stamp.sec >> (8 * 2)) & 0xFF;
  38:./lib/ros_lib/std_msgs/Header.h ****       *(outbuffer + offset + 3) = (this->stamp.sec >> (8 * 3)) & 0xFF;
  39:./lib/ros_lib/std_msgs/Header.h ****       offset += sizeof(this->stamp.sec);
  40:./lib/ros_lib/std_msgs/Header.h ****       *(outbuffer + offset + 0) = (this->stamp.nsec >> (8 * 0)) & 0xFF;
  41:./lib/ros_lib/std_msgs/Header.h ****       *(outbuffer + offset + 1) = (this->stamp.nsec >> (8 * 1)) & 0xFF;
  42:./lib/ros_lib/std_msgs/Header.h ****       *(outbuffer + offset + 2) = (this->stamp.nsec >> (8 * 2)) & 0xFF;
  43:./lib/ros_lib/std_msgs/Header.h ****       *(outbuffer + offset + 3) = (this->stamp.nsec >> (8 * 3)) & 0xFF;
  44:./lib/ros_lib/std_msgs/Header.h ****       offset += sizeof(this->stamp.nsec);
  45:./lib/ros_lib/std_msgs/Header.h ****       uint32_t length_frame_id = strlen(this->frame_id);
  46:./lib/ros_lib/std_msgs/Header.h ****       memcpy(outbuffer + offset, &length_frame_id, sizeof(uint32_t));
  47:./lib/ros_lib/std_msgs/Header.h ****       offset += 4;
  48:./lib/ros_lib/std_msgs/Header.h ****       memcpy(outbuffer + offset, this->frame_id, length_frame_id);
  49:./lib/ros_lib/std_msgs/Header.h ****       offset += length_frame_id;
  50:./lib/ros_lib/std_msgs/Header.h ****       return offset;
  51:./lib/ros_lib/std_msgs/Header.h ****     }
  52:./lib/ros_lib/std_msgs/Header.h **** 
  53:./lib/ros_lib/std_msgs/Header.h ****     virtual int deserialize(unsigned char *inbuffer)
 1114              		.loc 8 53 0
 1115              		.cfi_startproc
 1116              		@ args = 0, pretend = 0, frame = 0
 1117              		@ frame_needed = 0, uses_anonymous_args = 0
 1118              	.LVL123:
 1119 0000 0346     		mov	r3, r0
 1120 0002 30B5     		push	{r4, r5, lr}
 1121              	.LCFI5:
 1122              		.cfi_def_cfa_offset 12
 1123              		.cfi_offset 4, -12
 1124              		.cfi_offset 5, -8
 1125              		.cfi_offset 14, -4
  54:./lib/ros_lib/std_msgs/Header.h ****     {
  55:./lib/ros_lib/std_msgs/Header.h ****       int offset = 0;
  56:./lib/ros_lib/std_msgs/Header.h ****       this->seq =  ((uint32_t) (*(inbuffer + offset)));
 1126              		.loc 8 56 0
 1127 0004 0A78     		ldrb	r2, [r1]	@ zero_extendqisi2
 1128 0006 01F11004 		add	r4, r1, #16
 1129 000a 4260     		str	r2, [r0, #4]
  57:./lib/ros_lib/std_msgs/Header.h ****       this->seq |= ((uint32_t) (*(inbuffer + offset + 1))) << (8 * 1);
 1130              		.loc 8 57 0
 1131 000c 4878     		ldrb	r0, [r1, #1]	@ zero_extendqisi2
 1132              	.LVL124:
 1133 000e 42EA0022 		orr	r2, r2, r0, lsl #8
 1134 0012 5A60     		str	r2, [r3, #4]
  58:./lib/ros_lib/std_msgs/Header.h ****       this->seq |= ((uint32_t) (*(inbuffer + offset + 2))) << (8 * 2);
 1135              		.loc 8 58 0
 1136 0014 8878     		ldrb	r0, [r1, #2]	@ zero_extendqisi2
 1137 0016 42EA0042 		orr	r2, r2, r0, lsl #16
 1138 001a 5A60     		str	r2, [r3, #4]
  59:./lib/ros_lib/std_msgs/Header.h ****       this->seq |= ((uint32_t) (*(inbuffer + offset + 3))) << (8 * 3);
 1139              		.loc 8 59 0
 1140 001c C878     		ldrb	r0, [r1, #3]	@ zero_extendqisi2
 1141 001e 42EA0062 		orr	r2, r2, r0, lsl #24
 1142 0022 5A60     		str	r2, [r3, #4]
 1143              	.LVL125:
  60:./lib/ros_lib/std_msgs/Header.h ****       offset += sizeof(this->seq);
  61:./lib/ros_lib/std_msgs/Header.h ****       this->stamp.sec =  ((uint32_t) (*(inbuffer + offset)));
 1144              		.loc 8 61 0
 1145 0024 0A79     		ldrb	r2, [r1, #4]	@ zero_extendqisi2
 1146 0026 9A60     		str	r2, [r3, #8]
  62:./lib/ros_lib/std_msgs/Header.h ****       this->stamp.sec |= ((uint32_t) (*(inbuffer + offset + 1))) << (8 * 1);
 1147              		.loc 8 62 0
 1148 0028 4879     		ldrb	r0, [r1, #5]	@ zero_extendqisi2
 1149 002a 42EA0022 		orr	r2, r2, r0, lsl #8
 1150 002e 9A60     		str	r2, [r3, #8]
  63:./lib/ros_lib/std_msgs/Header.h ****       this->stamp.sec |= ((uint32_t) (*(inbuffer + offset + 2))) << (8 * 2);
 1151              		.loc 8 63 0
 1152 0030 8879     		ldrb	r0, [r1, #6]	@ zero_extendqisi2
 1153 0032 42EA0042 		orr	r2, r2, r0, lsl #16
 1154 0036 9A60     		str	r2, [r3, #8]
  64:./lib/ros_lib/std_msgs/Header.h ****       this->stamp.sec |= ((uint32_t) (*(inbuffer + offset + 3))) << (8 * 3);
 1155              		.loc 8 64 0
 1156 0038 C879     		ldrb	r0, [r1, #7]	@ zero_extendqisi2
 1157 003a 42EA0062 		orr	r2, r2, r0, lsl #24
 1158 003e 9A60     		str	r2, [r3, #8]
 1159              	.LVL126:
  65:./lib/ros_lib/std_msgs/Header.h ****       offset += sizeof(this->stamp.sec);
  66:./lib/ros_lib/std_msgs/Header.h ****       this->stamp.nsec =  ((uint32_t) (*(inbuffer + offset)));
 1160              		.loc 8 66 0
 1161 0040 0A7A     		ldrb	r2, [r1, #8]	@ zero_extendqisi2
 1162 0042 DA60     		str	r2, [r3, #12]
  67:./lib/ros_lib/std_msgs/Header.h ****       this->stamp.nsec |= ((uint32_t) (*(inbuffer + offset + 1))) << (8 * 1);
 1163              		.loc 8 67 0
 1164 0044 487A     		ldrb	r0, [r1, #9]	@ zero_extendqisi2
 1165 0046 42EA0022 		orr	r2, r2, r0, lsl #8
 1166 004a DA60     		str	r2, [r3, #12]
  68:./lib/ros_lib/std_msgs/Header.h ****       this->stamp.nsec |= ((uint32_t) (*(inbuffer + offset + 2))) << (8 * 2);
 1167              		.loc 8 68 0
 1168 004c 887A     		ldrb	r0, [r1, #10]	@ zero_extendqisi2
 1169 004e 42EA0042 		orr	r2, r2, r0, lsl #16
 1170 0052 DA60     		str	r2, [r3, #12]
  69:./lib/ros_lib/std_msgs/Header.h ****       this->stamp.nsec |= ((uint32_t) (*(inbuffer + offset + 3))) << (8 * 3);
 1171              		.loc 8 69 0
 1172 0054 C87A     		ldrb	r0, [r1, #11]	@ zero_extendqisi2
 1173 0056 42EA0062 		orr	r2, r2, r0, lsl #24
 1174 005a DA60     		str	r2, [r3, #12]
 1175              	.LVL127:
  70:./lib/ros_lib/std_msgs/Header.h ****       offset += sizeof(this->stamp.nsec);
  71:./lib/ros_lib/std_msgs/Header.h ****       uint32_t length_frame_id;
  72:./lib/ros_lib/std_msgs/Header.h ****       memcpy(&length_frame_id, (inbuffer + offset), sizeof(uint32_t));
 1176              		.loc 8 72 0
 1177 005c CA68     		ldr	r2, [r1, #12]	@ unaligned
 1178              	.LVL128:
 1179              	.LBB207:
  73:./lib/ros_lib/std_msgs/Header.h ****       offset += 4;
  74:./lib/ros_lib/std_msgs/Header.h ****       for(unsigned int k= offset; k< offset+length_frame_id; ++k){
 1180              		.loc 8 74 0
 1181 005e 02F11000 		add	r0, r2, #16
 1182              	.LVL129:
 1183              	.L71:
 1184              		.loc 8 74 0 is_stmt 0 discriminator 3
 1185 0062 651A     		subs	r5, r4, r1
 1186              	.LVL130:
 1187 0064 A842     		cmp	r0, r5
 1188 0066 04D9     		bls	.L70
  75:./lib/ros_lib/std_msgs/Header.h ****           inbuffer[k-1]=inbuffer[k];
 1189              		.loc 8 75 0 is_stmt 1 discriminator 2
 1190 0068 14F8015B 		ldrb	r5, [r4], #1	@ zero_extendqisi2
 1191              	.LVL131:
 1192 006c 04F8025C 		strb	r5, [r4, #-2]
 1193              	.LVL132:
  74:./lib/ros_lib/std_msgs/Header.h ****           inbuffer[k-1]=inbuffer[k];
 1194              		.loc 8 74 0 discriminator 2
 1195 0070 F7E7     		b	.L71
 1196              	.LVL133:
 1197              	.L70:
 1198              	.LBE207:
  76:./lib/ros_lib/std_msgs/Header.h ****       }
  77:./lib/ros_lib/std_msgs/Header.h ****       inbuffer[offset+length_frame_id-1]=0;
 1199              		.loc 8 77 0
 1200 0072 0024     		movs	r4, #0
 1201 0074 0A44     		add	r2, r2, r1
 1202              	.LVL134:
 1203 0076 D473     		strb	r4, [r2, #15]
  78:./lib/ros_lib/std_msgs/Header.h ****       this->frame_id = (char *)(inbuffer + offset-1);
 1204              		.loc 8 78 0
 1205 0078 0F31     		adds	r1, r1, #15
 1206              	.LVL135:
 1207 007a 1961     		str	r1, [r3, #16]
 1208              	.LVL136:
  79:./lib/ros_lib/std_msgs/Header.h ****       offset += length_frame_id;
  80:./lib/ros_lib/std_msgs/Header.h ****      return offset;
  81:./lib/ros_lib/std_msgs/Header.h ****     }
 1209              		.loc 8 81 0
 1210 007c 30BD     		pop	{r4, r5, pc}
 1211              		.cfi_endproc
 1212              	.LFE1524:
 1213              		.cantunwind
 1214              		.fnend
 1216              		.section	.text._ZN8std_msgs6Header7getTypeEv,"axG",%progbits,_ZN8std_msgs6Header7getTypeEv,comdat
 1217              		.align	1
 1218              		.weak	_ZN8std_msgs6Header7getTypeEv
 1219              		.syntax unified
 1220              		.thumb
 1221              		.thumb_func
 1222              		.fpu softvfp
 1224              	_ZN8std_msgs6Header7getTypeEv:
 1225              		.fnstart
 1226              	.LFB1525:
  82:./lib/ros_lib/std_msgs/Header.h **** 
  83:./lib/ros_lib/std_msgs/Header.h ****     const char * getType(){ return "std_msgs/Header"; };
 1227              		.loc 8 83 0
 1228              		.cfi_startproc
 1229              		@ args = 0, pretend = 0, frame = 0
 1230              		@ frame_needed = 0, uses_anonymous_args = 0
 1231              		@ link register save eliminated.
 1232              	.LVL137:
 1233              		.loc 8 83 0
 1234 0000 0048     		ldr	r0, .L74
 1235              	.LVL138:
 1236 0002 7047     		bx	lr
 1237              	.L75:
 1238              		.align	2
 1239              	.L74:
 1240 0004 00000000 		.word	.LC15
 1241              		.cfi_endproc
 1242              	.LFE1525:
 1243              		.cantunwind
 1244              		.fnend
 1246              		.section	.text._ZN8std_msgs6Header6getMD5Ev,"axG",%progbits,_ZN8std_msgs6Header6getMD5Ev,comdat
 1247              		.align	1
 1248              		.weak	_ZN8std_msgs6Header6getMD5Ev
 1249              		.syntax unified
 1250              		.thumb
 1251              		.thumb_func
 1252              		.fpu softvfp
 1254              	_ZN8std_msgs6Header6getMD5Ev:
 1255              		.fnstart
 1256              	.LFB1526:
  84:./lib/ros_lib/std_msgs/Header.h ****     const char * getMD5(){ return "2176decaecbce78abc3b96ef049fabed"; };
 1257              		.loc 8 84 0
 1258              		.cfi_startproc
 1259              		@ args = 0, pretend = 0, frame = 0
 1260              		@ frame_needed = 0, uses_anonymous_args = 0
 1261              		@ link register save eliminated.
 1262              	.LVL139:
 1263              		.loc 8 84 0
 1264 0000 0048     		ldr	r0, .L77
 1265              	.LVL140:
 1266 0002 7047     		bx	lr
 1267              	.L78:
 1268              		.align	2
 1269              	.L77:
 1270 0004 00000000 		.word	.LC16
 1271              		.cfi_endproc
 1272              	.LFE1526:
 1273              		.cantunwind
 1274              		.fnend
 1276              		.section	.text._ZN12roberto_msgs10MotorState7getTypeEv,"axG",%progbits,_ZN12roberto_msgs10MotorSta
 1277              		.align	1
 1278              		.weak	_ZN12roberto_msgs10MotorState7getTypeEv
 1279              		.syntax unified
 1280              		.thumb
 1281              		.thumb_func
 1282              		.fpu softvfp
 1284              	_ZN12roberto_msgs10MotorState7getTypeEv:
 1285              		.fnstart
 1286              	.LFB1595:
 1287              		.file 9 "./lib/ros_lib/roberto_msgs/MotorState.h"
   1:./lib/ros_lib/roberto_msgs/MotorState.h **** #ifndef _ROS_roberto_msgs_MotorState_h
   2:./lib/ros_lib/roberto_msgs/MotorState.h **** #define _ROS_roberto_msgs_MotorState_h
   3:./lib/ros_lib/roberto_msgs/MotorState.h **** 
   4:./lib/ros_lib/roberto_msgs/MotorState.h **** #include <stdint.h>
   5:./lib/ros_lib/roberto_msgs/MotorState.h **** #include <string.h>
   6:./lib/ros_lib/roberto_msgs/MotorState.h **** #include <stdlib.h>
   7:./lib/ros_lib/roberto_msgs/MotorState.h **** #include "ros/msg.h"
   8:./lib/ros_lib/roberto_msgs/MotorState.h **** #include "std_msgs/Header.h"
   9:./lib/ros_lib/roberto_msgs/MotorState.h **** 
  10:./lib/ros_lib/roberto_msgs/MotorState.h **** namespace roberto_msgs
  11:./lib/ros_lib/roberto_msgs/MotorState.h **** {
  12:./lib/ros_lib/roberto_msgs/MotorState.h **** 
  13:./lib/ros_lib/roberto_msgs/MotorState.h ****   class MotorState : public ros::Msg
  14:./lib/ros_lib/roberto_msgs/MotorState.h ****   {
  15:./lib/ros_lib/roberto_msgs/MotorState.h ****     public:
  16:./lib/ros_lib/roberto_msgs/MotorState.h ****       std_msgs::Header header;
  17:./lib/ros_lib/roberto_msgs/MotorState.h ****       float heading_angle;
  18:./lib/ros_lib/roberto_msgs/MotorState.h ****       float heading_velocity;
  19:./lib/ros_lib/roberto_msgs/MotorState.h ****       float speed;
  20:./lib/ros_lib/roberto_msgs/MotorState.h ****       float acceleration;
  21:./lib/ros_lib/roberto_msgs/MotorState.h ****       uint8_t mode;
  22:./lib/ros_lib/roberto_msgs/MotorState.h ****       enum { DRIVE_MODE_AUTO = 0 };
  23:./lib/ros_lib/roberto_msgs/MotorState.h ****       enum { DRIVE_MODE_PIVOT = 1 };
  24:./lib/ros_lib/roberto_msgs/MotorState.h ****       enum { DRIVE_MODE_SPIN = 2 };
  25:./lib/ros_lib/roberto_msgs/MotorState.h ****       enum { DRIVE_MODE_SIDEWAYS = 3 };
  26:./lib/ros_lib/roberto_msgs/MotorState.h **** 
  27:./lib/ros_lib/roberto_msgs/MotorState.h ****     MotorState():
  28:./lib/ros_lib/roberto_msgs/MotorState.h ****       header(),
  29:./lib/ros_lib/roberto_msgs/MotorState.h ****       heading_angle(0),
  30:./lib/ros_lib/roberto_msgs/MotorState.h ****       heading_velocity(0),
  31:./lib/ros_lib/roberto_msgs/MotorState.h ****       speed(0),
  32:./lib/ros_lib/roberto_msgs/MotorState.h ****       acceleration(0),
  33:./lib/ros_lib/roberto_msgs/MotorState.h ****       mode(0)
  34:./lib/ros_lib/roberto_msgs/MotorState.h ****     {
  35:./lib/ros_lib/roberto_msgs/MotorState.h ****     }
  36:./lib/ros_lib/roberto_msgs/MotorState.h **** 
  37:./lib/ros_lib/roberto_msgs/MotorState.h ****     virtual int serialize(unsigned char *outbuffer) const
  38:./lib/ros_lib/roberto_msgs/MotorState.h ****     {
  39:./lib/ros_lib/roberto_msgs/MotorState.h ****       int offset = 0;
  40:./lib/ros_lib/roberto_msgs/MotorState.h ****       offset += this->header.serialize(outbuffer + offset);
  41:./lib/ros_lib/roberto_msgs/MotorState.h ****       offset += serializeAvrFloat64(outbuffer + offset, this->heading_angle);
  42:./lib/ros_lib/roberto_msgs/MotorState.h ****       offset += serializeAvrFloat64(outbuffer + offset, this->heading_velocity);
  43:./lib/ros_lib/roberto_msgs/MotorState.h ****       offset += serializeAvrFloat64(outbuffer + offset, this->speed);
  44:./lib/ros_lib/roberto_msgs/MotorState.h ****       offset += serializeAvrFloat64(outbuffer + offset, this->acceleration);
  45:./lib/ros_lib/roberto_msgs/MotorState.h ****       *(outbuffer + offset + 0) = (this->mode >> (8 * 0)) & 0xFF;
  46:./lib/ros_lib/roberto_msgs/MotorState.h ****       offset += sizeof(this->mode);
  47:./lib/ros_lib/roberto_msgs/MotorState.h ****       return offset;
  48:./lib/ros_lib/roberto_msgs/MotorState.h ****     }
  49:./lib/ros_lib/roberto_msgs/MotorState.h **** 
  50:./lib/ros_lib/roberto_msgs/MotorState.h ****     virtual int deserialize(unsigned char *inbuffer)
  51:./lib/ros_lib/roberto_msgs/MotorState.h ****     {
  52:./lib/ros_lib/roberto_msgs/MotorState.h ****       int offset = 0;
  53:./lib/ros_lib/roberto_msgs/MotorState.h ****       offset += this->header.deserialize(inbuffer + offset);
  54:./lib/ros_lib/roberto_msgs/MotorState.h ****       offset += deserializeAvrFloat64(inbuffer + offset, &(this->heading_angle));
  55:./lib/ros_lib/roberto_msgs/MotorState.h ****       offset += deserializeAvrFloat64(inbuffer + offset, &(this->heading_velocity));
  56:./lib/ros_lib/roberto_msgs/MotorState.h ****       offset += deserializeAvrFloat64(inbuffer + offset, &(this->speed));
  57:./lib/ros_lib/roberto_msgs/MotorState.h ****       offset += deserializeAvrFloat64(inbuffer + offset, &(this->acceleration));
  58:./lib/ros_lib/roberto_msgs/MotorState.h ****       this->mode =  ((uint8_t) (*(inbuffer + offset)));
  59:./lib/ros_lib/roberto_msgs/MotorState.h ****       offset += sizeof(this->mode);
  60:./lib/ros_lib/roberto_msgs/MotorState.h ****      return offset;
  61:./lib/ros_lib/roberto_msgs/MotorState.h ****     }
  62:./lib/ros_lib/roberto_msgs/MotorState.h **** 
  63:./lib/ros_lib/roberto_msgs/MotorState.h ****     const char * getType(){ return "roberto_msgs/MotorState"; };
 1288              		.loc 9 63 0
 1289              		.cfi_startproc
 1290              		@ args = 0, pretend = 0, frame = 0
 1291              		@ frame_needed = 0, uses_anonymous_args = 0
 1292              		@ link register save eliminated.
 1293              	.LVL141:
 1294              		.loc 9 63 0
 1295 0000 0048     		ldr	r0, .L80
 1296              	.LVL142:
 1297 0002 7047     		bx	lr
 1298              	.L81:
 1299              		.align	2
 1300              	.L80:
 1301 0004 00000000 		.word	.LC17
 1302              		.cfi_endproc
 1303              	.LFE1595:
 1304              		.cantunwind
 1305              		.fnend
 1307              		.section	.text._ZN12roberto_msgs10MotorState6getMD5Ev,"axG",%progbits,_ZN12roberto_msgs10MotorStat
 1308              		.align	1
 1309              		.weak	_ZN12roberto_msgs10MotorState6getMD5Ev
 1310              		.syntax unified
 1311              		.thumb
 1312              		.thumb_func
 1313              		.fpu softvfp
 1315              	_ZN12roberto_msgs10MotorState6getMD5Ev:
 1316              		.fnstart
 1317              	.LFB1596:
  64:./lib/ros_lib/roberto_msgs/MotorState.h ****     const char * getMD5(){ return "e8b5d1162b85151c49e02b8224796c0e"; };
 1318              		.loc 9 64 0
 1319              		.cfi_startproc
 1320              		@ args = 0, pretend = 0, frame = 0
 1321              		@ frame_needed = 0, uses_anonymous_args = 0
 1322              		@ link register save eliminated.
 1323              	.LVL143:
 1324              		.loc 9 64 0
 1325 0000 0048     		ldr	r0, .L83
 1326              	.LVL144:
 1327 0002 7047     		bx	lr
 1328              	.L84:
 1329              		.align	2
 1330              	.L83:
 1331 0004 00000000 		.word	.LC18
 1332              		.cfi_endproc
 1333              	.LFE1596:
 1334              		.cantunwind
 1335              		.fnend
 1337              		.section	.text._ZN3ros11NodeHandle_I13STM32HardwareLi25ELi25ELi1024ELi1024EE9connectedEv,"axG",%pr
 1338              		.align	1
 1339              		.weak	_ZN3ros11NodeHandle_I13STM32HardwareLi25ELi25ELi1024ELi1024EE9connectedEv
 1340              		.syntax unified
 1341              		.thumb
 1342              		.thumb_func
 1343              		.fpu softvfp
 1345              	_ZN3ros11NodeHandle_I13STM32HardwareLi25ELi25ELi1024ELi1024EE9connectedEv:
 1346              		.fnstart
 1347              	.LFB1798:
 1348              		.file 10 "./lib/ros_lib/ros/node_handle.h"
   1:./lib/ros_lib/ros/node_handle.h **** /*
   2:./lib/ros_lib/ros/node_handle.h ****  * Software License Agreement (BSD License)
   3:./lib/ros_lib/ros/node_handle.h ****  *
   4:./lib/ros_lib/ros/node_handle.h ****  * Copyright (c) 2011, Willow Garage, Inc.
   5:./lib/ros_lib/ros/node_handle.h ****  * All rights reserved.
   6:./lib/ros_lib/ros/node_handle.h ****  *
   7:./lib/ros_lib/ros/node_handle.h ****  * Redistribution and use in source and binary forms, with or without
   8:./lib/ros_lib/ros/node_handle.h ****  * modification, are permitted provided that the following conditions
   9:./lib/ros_lib/ros/node_handle.h ****  * are met:
  10:./lib/ros_lib/ros/node_handle.h ****  *
  11:./lib/ros_lib/ros/node_handle.h ****  *  * Redistributions of source code must retain the above copyright
  12:./lib/ros_lib/ros/node_handle.h ****  *    notice, this list of conditions and the following disclaimer.
  13:./lib/ros_lib/ros/node_handle.h ****  *  * Redistributions in binary form must reproduce the above
  14:./lib/ros_lib/ros/node_handle.h ****  *    copyright notice, this list of conditions and the following
  15:./lib/ros_lib/ros/node_handle.h ****  *    disclaimer in the documentation and/or other materials provided
  16:./lib/ros_lib/ros/node_handle.h ****  *    with the distribution.
  17:./lib/ros_lib/ros/node_handle.h ****  *  * Neither the name of Willow Garage, Inc. nor the names of its
  18:./lib/ros_lib/ros/node_handle.h ****  *    contributors may be used to endorse or promote prducts derived
  19:./lib/ros_lib/ros/node_handle.h ****  *    from this software without specific prior written permission.
  20:./lib/ros_lib/ros/node_handle.h ****  *
  21:./lib/ros_lib/ros/node_handle.h ****  * THIS SOFTWARE IS PROVIDED BY THE COPYRIGHT HOLDERS AND CONTRIBUTORS
  22:./lib/ros_lib/ros/node_handle.h ****  * "AS IS" AND ANY EXPRESS OR IMPLIED WARRANTIES, INCLUDING, BUT NOT
  23:./lib/ros_lib/ros/node_handle.h ****  * LIMITED TO, THE IMPLIED WARRANTIES OF MERCHANTABILITY AND FITNESS
  24:./lib/ros_lib/ros/node_handle.h ****  * FOR A PARTICULAR PURPOSE ARE DISCLAIMED. IN NO EVENT SHALL THE
  25:./lib/ros_lib/ros/node_handle.h ****  * COPYRIGHT OWNER OR CONTRIBUTORS BE LIABLE FOR ANY DIRECT, INDIRECT,
  26:./lib/ros_lib/ros/node_handle.h ****  * INCIDENTAL, SPECIAL, EXEMPLARY, OR CONSEQUENTIAL DAMAGES (INCLUDING,
  27:./lib/ros_lib/ros/node_handle.h ****  * BUT NOT LIMITED TO, PROCUREMENT OF SUBSTITUTE GOODS OR SERVICES;
  28:./lib/ros_lib/ros/node_handle.h ****  * LOSS OF USE, DATA, OR PROFITS; OR BUSINESS INTERRUPTION) HOWEVER
  29:./lib/ros_lib/ros/node_handle.h ****  * CAUSED AND ON ANY THEORY OF LIABILITY, WHETHER IN CONTRACT, STRICT
  30:./lib/ros_lib/ros/node_handle.h ****  * LIABILITY, OR TORT (INCLUDING NEGLIGENCE OR OTHERWISE) ARISING IN
  31:./lib/ros_lib/ros/node_handle.h ****  * ANY WAY OUT OF THE USE OF THIS SOFTWARE, EVEN IF ADVISED OF THE
  32:./lib/ros_lib/ros/node_handle.h ****  * POSSIBILITY OF SUCH DAMAGE.
  33:./lib/ros_lib/ros/node_handle.h ****  */
  34:./lib/ros_lib/ros/node_handle.h **** 
  35:./lib/ros_lib/ros/node_handle.h **** #ifndef ROS_NODE_HANDLE_H_
  36:./lib/ros_lib/ros/node_handle.h **** #define ROS_NODE_HANDLE_H_
  37:./lib/ros_lib/ros/node_handle.h **** 
  38:./lib/ros_lib/ros/node_handle.h **** #include <stdint.h>
  39:./lib/ros_lib/ros/node_handle.h **** 
  40:./lib/ros_lib/ros/node_handle.h **** #include "std_msgs/Time.h"
  41:./lib/ros_lib/ros/node_handle.h **** #include "rosserial_msgs/TopicInfo.h"
  42:./lib/ros_lib/ros/node_handle.h **** #include "rosserial_msgs/Log.h"
  43:./lib/ros_lib/ros/node_handle.h **** #include "rosserial_msgs/RequestParam.h"
  44:./lib/ros_lib/ros/node_handle.h **** 
  45:./lib/ros_lib/ros/node_handle.h **** #define SYNC_SECONDS        5
  46:./lib/ros_lib/ros/node_handle.h **** 
  47:./lib/ros_lib/ros/node_handle.h **** #define MODE_FIRST_FF       0
  48:./lib/ros_lib/ros/node_handle.h **** /*
  49:./lib/ros_lib/ros/node_handle.h ****  * The second sync byte is a protocol version. It's value is 0xff for the first
  50:./lib/ros_lib/ros/node_handle.h ****  * version of the rosserial protocol (used up to hydro), 0xfe for the second version
  51:./lib/ros_lib/ros/node_handle.h ****  * (introduced in hydro), 0xfd for the next, and so on. Its purpose is to enable
  52:./lib/ros_lib/ros/node_handle.h ****  * detection of mismatched protocol versions (e.g. hydro rosserial_python with groovy
  53:./lib/ros_lib/ros/node_handle.h ****  * rosserial_arduino. It must be changed in both this file and in
  54:./lib/ros_lib/ros/node_handle.h ****  * rosserial_python/src/rosserial_python/SerialClient.py
  55:./lib/ros_lib/ros/node_handle.h ****  */
  56:./lib/ros_lib/ros/node_handle.h **** #define MODE_PROTOCOL_VER   1
  57:./lib/ros_lib/ros/node_handle.h **** #define PROTOCOL_VER1		0xff // through groovy
  58:./lib/ros_lib/ros/node_handle.h **** #define PROTOCOL_VER2		0xfe // in hydro
  59:./lib/ros_lib/ros/node_handle.h **** #define PROTOCOL_VER 		PROTOCOL_VER2
  60:./lib/ros_lib/ros/node_handle.h **** #define MODE_SIZE_L         2
  61:./lib/ros_lib/ros/node_handle.h **** #define MODE_SIZE_H         3
  62:./lib/ros_lib/ros/node_handle.h **** #define MODE_SIZE_CHECKSUM  4   // checksum for msg size received from size L and H
  63:./lib/ros_lib/ros/node_handle.h **** #define MODE_TOPIC_L        5   // waiting for topic id
  64:./lib/ros_lib/ros/node_handle.h **** #define MODE_TOPIC_H        6
  65:./lib/ros_lib/ros/node_handle.h **** #define MODE_MESSAGE        7
  66:./lib/ros_lib/ros/node_handle.h **** #define MODE_MSG_CHECKSUM   8   // checksum for msg and topic id
  67:./lib/ros_lib/ros/node_handle.h **** 
  68:./lib/ros_lib/ros/node_handle.h **** 
  69:./lib/ros_lib/ros/node_handle.h **** #define MSG_TIMEOUT 20  //20 milliseconds to recieve all of message data
  70:./lib/ros_lib/ros/node_handle.h **** 
  71:./lib/ros_lib/ros/node_handle.h **** #include "msg.h"
  72:./lib/ros_lib/ros/node_handle.h **** 
  73:./lib/ros_lib/ros/node_handle.h **** namespace ros {
  74:./lib/ros_lib/ros/node_handle.h **** 
  75:./lib/ros_lib/ros/node_handle.h ****   class NodeHandleBase_{
  76:./lib/ros_lib/ros/node_handle.h ****     public:
  77:./lib/ros_lib/ros/node_handle.h ****       virtual int publish(int id, const Msg* msg)=0;
  78:./lib/ros_lib/ros/node_handle.h ****       virtual int spinOnce()=0;
  79:./lib/ros_lib/ros/node_handle.h ****       virtual bool connected()=0;
  80:./lib/ros_lib/ros/node_handle.h ****     };
  81:./lib/ros_lib/ros/node_handle.h **** }
  82:./lib/ros_lib/ros/node_handle.h **** 
  83:./lib/ros_lib/ros/node_handle.h **** #include "publisher.h"
  84:./lib/ros_lib/ros/node_handle.h **** #include "subscriber.h"
  85:./lib/ros_lib/ros/node_handle.h **** #include "service_server.h"
  86:./lib/ros_lib/ros/node_handle.h **** #include "service_client.h"
  87:./lib/ros_lib/ros/node_handle.h **** 
  88:./lib/ros_lib/ros/node_handle.h **** namespace ros {
  89:./lib/ros_lib/ros/node_handle.h **** 
  90:./lib/ros_lib/ros/node_handle.h ****   using rosserial_msgs::TopicInfo;
  91:./lib/ros_lib/ros/node_handle.h **** 
  92:./lib/ros_lib/ros/node_handle.h ****   /* Node Handle */
  93:./lib/ros_lib/ros/node_handle.h ****   template<class Hardware,
  94:./lib/ros_lib/ros/node_handle.h ****            int MAX_SUBSCRIBERS=25,
  95:./lib/ros_lib/ros/node_handle.h ****            int MAX_PUBLISHERS=25,
  96:./lib/ros_lib/ros/node_handle.h ****            int INPUT_SIZE=512,
  97:./lib/ros_lib/ros/node_handle.h ****            int OUTPUT_SIZE=512>
  98:./lib/ros_lib/ros/node_handle.h ****   class NodeHandle_ : public NodeHandleBase_
  99:./lib/ros_lib/ros/node_handle.h ****   {
 100:./lib/ros_lib/ros/node_handle.h ****     protected:
 101:./lib/ros_lib/ros/node_handle.h ****       Hardware hardware_;
 102:./lib/ros_lib/ros/node_handle.h **** 
 103:./lib/ros_lib/ros/node_handle.h ****       /* time used for syncing */
 104:./lib/ros_lib/ros/node_handle.h ****       uint32_t rt_time;
 105:./lib/ros_lib/ros/node_handle.h **** 
 106:./lib/ros_lib/ros/node_handle.h ****       /* used for computing current time */
 107:./lib/ros_lib/ros/node_handle.h ****       uint32_t sec_offset, nsec_offset;
 108:./lib/ros_lib/ros/node_handle.h **** 
 109:./lib/ros_lib/ros/node_handle.h ****       uint8_t message_in[INPUT_SIZE];
 110:./lib/ros_lib/ros/node_handle.h ****       uint8_t message_out[OUTPUT_SIZE];
 111:./lib/ros_lib/ros/node_handle.h **** 
 112:./lib/ros_lib/ros/node_handle.h ****       Publisher * publishers[MAX_PUBLISHERS];
 113:./lib/ros_lib/ros/node_handle.h ****       Subscriber_ * subscribers[MAX_SUBSCRIBERS];
 114:./lib/ros_lib/ros/node_handle.h **** 
 115:./lib/ros_lib/ros/node_handle.h ****       /*
 116:./lib/ros_lib/ros/node_handle.h ****        * Setup Functions
 117:./lib/ros_lib/ros/node_handle.h ****        */
 118:./lib/ros_lib/ros/node_handle.h ****     public:
 119:./lib/ros_lib/ros/node_handle.h ****       NodeHandle_() : configured_(false) {
 120:./lib/ros_lib/ros/node_handle.h **** 
 121:./lib/ros_lib/ros/node_handle.h ****         for(unsigned int i=0; i< MAX_PUBLISHERS; i++)
 122:./lib/ros_lib/ros/node_handle.h **** 	   publishers[i] = 0;
 123:./lib/ros_lib/ros/node_handle.h **** 
 124:./lib/ros_lib/ros/node_handle.h ****         for(unsigned int i=0; i< MAX_SUBSCRIBERS; i++)
 125:./lib/ros_lib/ros/node_handle.h **** 	   subscribers[i] = 0;
 126:./lib/ros_lib/ros/node_handle.h **** 
 127:./lib/ros_lib/ros/node_handle.h ****         for(unsigned int i=0; i< INPUT_SIZE; i++)
 128:./lib/ros_lib/ros/node_handle.h **** 	   message_in[i] = 0;
 129:./lib/ros_lib/ros/node_handle.h **** 
 130:./lib/ros_lib/ros/node_handle.h ****         for(unsigned int i=0; i< OUTPUT_SIZE; i++)
 131:./lib/ros_lib/ros/node_handle.h **** 	   message_out[i] = 0;
 132:./lib/ros_lib/ros/node_handle.h **** 
 133:./lib/ros_lib/ros/node_handle.h ****         req_param_resp.ints_length = 0;
 134:./lib/ros_lib/ros/node_handle.h ****         req_param_resp.ints = NULL;
 135:./lib/ros_lib/ros/node_handle.h ****         req_param_resp.floats_length = 0;
 136:./lib/ros_lib/ros/node_handle.h ****         req_param_resp.floats = NULL;
 137:./lib/ros_lib/ros/node_handle.h ****         req_param_resp.ints_length = 0;
 138:./lib/ros_lib/ros/node_handle.h ****         req_param_resp.ints = NULL;
 139:./lib/ros_lib/ros/node_handle.h ****       }
 140:./lib/ros_lib/ros/node_handle.h **** 
 141:./lib/ros_lib/ros/node_handle.h ****       Hardware* getHardware(){
 142:./lib/ros_lib/ros/node_handle.h ****         return &hardware_;
 143:./lib/ros_lib/ros/node_handle.h ****       }
 144:./lib/ros_lib/ros/node_handle.h **** 
 145:./lib/ros_lib/ros/node_handle.h ****       /* Start serial, initialize buffers */
 146:./lib/ros_lib/ros/node_handle.h ****       void initNode(){
 147:./lib/ros_lib/ros/node_handle.h ****         hardware_.init();
 148:./lib/ros_lib/ros/node_handle.h ****         mode_ = 0;
 149:./lib/ros_lib/ros/node_handle.h ****         bytes_ = 0;
 150:./lib/ros_lib/ros/node_handle.h ****         index_ = 0;
 151:./lib/ros_lib/ros/node_handle.h ****         topic_ = 0;
 152:./lib/ros_lib/ros/node_handle.h ****       };
 153:./lib/ros_lib/ros/node_handle.h **** 
 154:./lib/ros_lib/ros/node_handle.h ****       /* Start a named port, which may be network server IP, initialize buffers */
 155:./lib/ros_lib/ros/node_handle.h ****       void initNode(char *portName){
 156:./lib/ros_lib/ros/node_handle.h ****         hardware_.init(portName);
 157:./lib/ros_lib/ros/node_handle.h ****         mode_ = 0;
 158:./lib/ros_lib/ros/node_handle.h ****         bytes_ = 0;
 159:./lib/ros_lib/ros/node_handle.h ****         index_ = 0;
 160:./lib/ros_lib/ros/node_handle.h ****         topic_ = 0;
 161:./lib/ros_lib/ros/node_handle.h ****       };
 162:./lib/ros_lib/ros/node_handle.h **** 
 163:./lib/ros_lib/ros/node_handle.h ****     protected:
 164:./lib/ros_lib/ros/node_handle.h ****       //State machine variables for spinOnce
 165:./lib/ros_lib/ros/node_handle.h ****       int mode_;
 166:./lib/ros_lib/ros/node_handle.h ****       int bytes_;
 167:./lib/ros_lib/ros/node_handle.h ****       int topic_;
 168:./lib/ros_lib/ros/node_handle.h ****       int index_;
 169:./lib/ros_lib/ros/node_handle.h ****       int checksum_;
 170:./lib/ros_lib/ros/node_handle.h **** 
 171:./lib/ros_lib/ros/node_handle.h ****       bool configured_;
 172:./lib/ros_lib/ros/node_handle.h **** 
 173:./lib/ros_lib/ros/node_handle.h ****       /* used for syncing the time */
 174:./lib/ros_lib/ros/node_handle.h ****       uint32_t last_sync_time;
 175:./lib/ros_lib/ros/node_handle.h ****       uint32_t last_sync_receive_time;
 176:./lib/ros_lib/ros/node_handle.h ****       uint32_t last_msg_timeout_time;
 177:./lib/ros_lib/ros/node_handle.h **** 
 178:./lib/ros_lib/ros/node_handle.h ****     public:
 179:./lib/ros_lib/ros/node_handle.h ****       /* This function goes in your loop() function, it handles
 180:./lib/ros_lib/ros/node_handle.h ****        *  serial input and callbacks for subscribers.
 181:./lib/ros_lib/ros/node_handle.h ****        */
 182:./lib/ros_lib/ros/node_handle.h **** 
 183:./lib/ros_lib/ros/node_handle.h **** 
 184:./lib/ros_lib/ros/node_handle.h ****       virtual int spinOnce(){
 185:./lib/ros_lib/ros/node_handle.h **** 
 186:./lib/ros_lib/ros/node_handle.h ****         /* restart if timed out */
 187:./lib/ros_lib/ros/node_handle.h ****         uint32_t c_time = hardware_.time();
 188:./lib/ros_lib/ros/node_handle.h ****         if( (c_time - last_sync_receive_time) > (SYNC_SECONDS*2200) ){
 189:./lib/ros_lib/ros/node_handle.h ****             configured_ = false;
 190:./lib/ros_lib/ros/node_handle.h ****          }
 191:./lib/ros_lib/ros/node_handle.h **** 
 192:./lib/ros_lib/ros/node_handle.h ****         /* reset if message has timed out */
 193:./lib/ros_lib/ros/node_handle.h ****         if ( mode_ != MODE_FIRST_FF){
 194:./lib/ros_lib/ros/node_handle.h ****           if (c_time > last_msg_timeout_time){
 195:./lib/ros_lib/ros/node_handle.h ****             mode_ = MODE_FIRST_FF;
 196:./lib/ros_lib/ros/node_handle.h ****           }
 197:./lib/ros_lib/ros/node_handle.h ****         }
 198:./lib/ros_lib/ros/node_handle.h ****         /* while available buffer, read data */
 199:./lib/ros_lib/ros/node_handle.h ****         while( true )
 200:./lib/ros_lib/ros/node_handle.h ****         {
 201:./lib/ros_lib/ros/node_handle.h ****           int data = hardware_.read();
 202:./lib/ros_lib/ros/node_handle.h ****           if( data < 0 )
 203:./lib/ros_lib/ros/node_handle.h ****             break;
 204:./lib/ros_lib/ros/node_handle.h ****           checksum_ += data;
 205:./lib/ros_lib/ros/node_handle.h ****           if( mode_ == MODE_MESSAGE ){        /* message data being recieved */
 206:./lib/ros_lib/ros/node_handle.h ****             message_in[index_++] = data;
 207:./lib/ros_lib/ros/node_handle.h ****             bytes_--;
 208:./lib/ros_lib/ros/node_handle.h ****             if(bytes_ == 0)                  /* is message complete? if so, checksum */
 209:./lib/ros_lib/ros/node_handle.h ****               mode_ = MODE_MSG_CHECKSUM;
 210:./lib/ros_lib/ros/node_handle.h ****           }else if( mode_ == MODE_FIRST_FF ){
 211:./lib/ros_lib/ros/node_handle.h ****             if(data == 0xff){
 212:./lib/ros_lib/ros/node_handle.h ****               mode_++;
 213:./lib/ros_lib/ros/node_handle.h ****               last_msg_timeout_time = c_time + MSG_TIMEOUT;
 214:./lib/ros_lib/ros/node_handle.h ****             }
 215:./lib/ros_lib/ros/node_handle.h ****             else if( hardware_.time() - c_time > (SYNC_SECONDS)){
 216:./lib/ros_lib/ros/node_handle.h ****               /* We have been stuck in spinOnce too long, return error */
 217:./lib/ros_lib/ros/node_handle.h ****               configured_=false;
 218:./lib/ros_lib/ros/node_handle.h ****               return -2;
 219:./lib/ros_lib/ros/node_handle.h ****             }
 220:./lib/ros_lib/ros/node_handle.h ****           }else if( mode_ == MODE_PROTOCOL_VER ){
 221:./lib/ros_lib/ros/node_handle.h ****             if(data == PROTOCOL_VER){
 222:./lib/ros_lib/ros/node_handle.h ****               mode_++;
 223:./lib/ros_lib/ros/node_handle.h ****             }else{
 224:./lib/ros_lib/ros/node_handle.h ****               mode_ = MODE_FIRST_FF;
 225:./lib/ros_lib/ros/node_handle.h ****               if (configured_ == false)
 226:./lib/ros_lib/ros/node_handle.h ****                   requestSyncTime(); 	/* send a msg back showing our protocol version */
 227:./lib/ros_lib/ros/node_handle.h ****             }
 228:./lib/ros_lib/ros/node_handle.h **** 	  }else if( mode_ == MODE_SIZE_L ){   /* bottom half of message size */
 229:./lib/ros_lib/ros/node_handle.h ****             bytes_ = data;
 230:./lib/ros_lib/ros/node_handle.h ****             index_ = 0;
 231:./lib/ros_lib/ros/node_handle.h ****             mode_++;
 232:./lib/ros_lib/ros/node_handle.h ****             checksum_ = data;               /* first byte for calculating size checksum */
 233:./lib/ros_lib/ros/node_handle.h ****           }else if( mode_ == MODE_SIZE_H ){   /* top half of message size */
 234:./lib/ros_lib/ros/node_handle.h ****             bytes_ += data<<8;
 235:./lib/ros_lib/ros/node_handle.h **** 	    mode_++;
 236:./lib/ros_lib/ros/node_handle.h ****           }else if( mode_ == MODE_SIZE_CHECKSUM ){
 237:./lib/ros_lib/ros/node_handle.h ****             if( (checksum_%256) == 255)
 238:./lib/ros_lib/ros/node_handle.h **** 	      mode_++;
 239:./lib/ros_lib/ros/node_handle.h **** 	    else
 240:./lib/ros_lib/ros/node_handle.h **** 	      mode_ = MODE_FIRST_FF;          /* Abandon the frame if the msg len is wrong */
 241:./lib/ros_lib/ros/node_handle.h **** 	  }else if( mode_ == MODE_TOPIC_L ){  /* bottom half of topic id */
 242:./lib/ros_lib/ros/node_handle.h ****             topic_ = data;
 243:./lib/ros_lib/ros/node_handle.h ****             mode_++;
 244:./lib/ros_lib/ros/node_handle.h ****             checksum_ = data;               /* first byte included in checksum */
 245:./lib/ros_lib/ros/node_handle.h ****           }else if( mode_ == MODE_TOPIC_H ){  /* top half of topic id */
 246:./lib/ros_lib/ros/node_handle.h ****             topic_ += data<<8;
 247:./lib/ros_lib/ros/node_handle.h ****             mode_ = MODE_MESSAGE;
 248:./lib/ros_lib/ros/node_handle.h ****             if(bytes_ == 0)
 249:./lib/ros_lib/ros/node_handle.h ****               mode_ = MODE_MSG_CHECKSUM;
 250:./lib/ros_lib/ros/node_handle.h ****           }else if( mode_ == MODE_MSG_CHECKSUM ){ /* do checksum */
 251:./lib/ros_lib/ros/node_handle.h ****             mode_ = MODE_FIRST_FF;
 252:./lib/ros_lib/ros/node_handle.h ****             if( (checksum_%256) == 255){
 253:./lib/ros_lib/ros/node_handle.h ****               if(topic_ == TopicInfo::ID_PUBLISHER){
 254:./lib/ros_lib/ros/node_handle.h ****                 requestSyncTime();
 255:./lib/ros_lib/ros/node_handle.h ****                 negotiateTopics();
 256:./lib/ros_lib/ros/node_handle.h ****                 last_sync_time = c_time;
 257:./lib/ros_lib/ros/node_handle.h ****                 last_sync_receive_time = c_time;
 258:./lib/ros_lib/ros/node_handle.h ****                 return -1;
 259:./lib/ros_lib/ros/node_handle.h ****               }else if(topic_ == TopicInfo::ID_TIME){
 260:./lib/ros_lib/ros/node_handle.h ****                 syncTime(message_in);
 261:./lib/ros_lib/ros/node_handle.h ****               }else if (topic_ == TopicInfo::ID_PARAMETER_REQUEST){
 262:./lib/ros_lib/ros/node_handle.h ****                   req_param_resp.deserialize(message_in);
 263:./lib/ros_lib/ros/node_handle.h ****                   param_recieved= true;
 264:./lib/ros_lib/ros/node_handle.h ****               }else if(topic_ == TopicInfo::ID_TX_STOP){
 265:./lib/ros_lib/ros/node_handle.h ****                   configured_ = false;
 266:./lib/ros_lib/ros/node_handle.h ****               }else{
 267:./lib/ros_lib/ros/node_handle.h ****                 if(subscribers[topic_-100])
 268:./lib/ros_lib/ros/node_handle.h ****                   subscribers[topic_-100]->callback( message_in );
 269:./lib/ros_lib/ros/node_handle.h ****               }
 270:./lib/ros_lib/ros/node_handle.h ****             }
 271:./lib/ros_lib/ros/node_handle.h ****           }
 272:./lib/ros_lib/ros/node_handle.h ****         }
 273:./lib/ros_lib/ros/node_handle.h **** 
 274:./lib/ros_lib/ros/node_handle.h ****         /* occasionally sync time */
 275:./lib/ros_lib/ros/node_handle.h ****         if( configured_ && ((c_time-last_sync_time) > (SYNC_SECONDS*500) )){
 276:./lib/ros_lib/ros/node_handle.h ****           requestSyncTime();
 277:./lib/ros_lib/ros/node_handle.h ****           last_sync_time = c_time;
 278:./lib/ros_lib/ros/node_handle.h ****         }
 279:./lib/ros_lib/ros/node_handle.h **** 
 280:./lib/ros_lib/ros/node_handle.h ****         return 0;
 281:./lib/ros_lib/ros/node_handle.h ****       }
 282:./lib/ros_lib/ros/node_handle.h **** 
 283:./lib/ros_lib/ros/node_handle.h **** 
 284:./lib/ros_lib/ros/node_handle.h ****       /* Are we connected to the PC? */
 285:./lib/ros_lib/ros/node_handle.h ****       virtual bool connected() {
 1349              		.loc 10 285 0
 1350              		.cfi_startproc
 1351              		@ args = 0, pretend = 0, frame = 0
 1352              		@ frame_needed = 0, uses_anonymous_args = 0
 1353              		@ link register save eliminated.
 1354              	.LVL145:
 286:./lib/ros_lib/ros/node_handle.h ****         return configured_;
 287:./lib/ros_lib/ros/node_handle.h ****       };
 1355              		.loc 10 287 0
 1356 0000 90F8F408 		ldrb	r0, [r0, #2292]	@ zero_extendqisi2
 1357              	.LVL146:
 1358 0004 7047     		bx	lr
 1359              		.cfi_endproc
 1360              	.LFE1798:
 1361              		.cantunwind
 1362              		.fnend
 1364              		.section	.text._ZN3ros10SubscriberIN12roberto_msgs10MotorStateEE15getEndpointTypeEv,"axG",%progbit
 1365              		.align	1
 1366              		.weak	_ZN3ros10SubscriberIN12roberto_msgs10MotorStateEE15getEndpointTypeEv
 1367              		.syntax unified
 1368              		.thumb
 1369              		.thumb_func
 1370              		.fpu softvfp
 1372              	_ZN3ros10SubscriberIN12roberto_msgs10MotorStateEE15getEndpointTypeEv:
 1373              		.fnstart
 1374              	.LFB1915:
 1375              		.file 11 "./lib/ros_lib/ros/subscriber.h"
   1:./lib/ros_lib/ros/subscriber.h **** /* 
   2:./lib/ros_lib/ros/subscriber.h ****  * Software License Agreement (BSD License)
   3:./lib/ros_lib/ros/subscriber.h ****  *
   4:./lib/ros_lib/ros/subscriber.h ****  * Copyright (c) 2011, Willow Garage, Inc.
   5:./lib/ros_lib/ros/subscriber.h ****  * All rights reserved.
   6:./lib/ros_lib/ros/subscriber.h ****  *
   7:./lib/ros_lib/ros/subscriber.h ****  * Redistribution and use in source and binary forms, with or without
   8:./lib/ros_lib/ros/subscriber.h ****  * modification, are permitted provided that the following conditions
   9:./lib/ros_lib/ros/subscriber.h ****  * are met:
  10:./lib/ros_lib/ros/subscriber.h ****  *
  11:./lib/ros_lib/ros/subscriber.h ****  *  * Redistributions of source code must retain the above copyright
  12:./lib/ros_lib/ros/subscriber.h ****  *    notice, this list of conditions and the following disclaimer.
  13:./lib/ros_lib/ros/subscriber.h ****  *  * Redistributions in binary form must reproduce the above
  14:./lib/ros_lib/ros/subscriber.h ****  *    copyright notice, this list of conditions and the following
  15:./lib/ros_lib/ros/subscriber.h ****  *    disclaimer in the documentation and/or other materials provided
  16:./lib/ros_lib/ros/subscriber.h ****  *    with the distribution.
  17:./lib/ros_lib/ros/subscriber.h ****  *  * Neither the name of Willow Garage, Inc. nor the names of its
  18:./lib/ros_lib/ros/subscriber.h ****  *    contributors may be used to endorse or promote prducts derived
  19:./lib/ros_lib/ros/subscriber.h ****  *    from this software without specific prior written permission.
  20:./lib/ros_lib/ros/subscriber.h ****  *
  21:./lib/ros_lib/ros/subscriber.h ****  * THIS SOFTWARE IS PROVIDED BY THE COPYRIGHT HOLDERS AND CONTRIBUTORS
  22:./lib/ros_lib/ros/subscriber.h ****  * "AS IS" AND ANY EXPRESS OR IMPLIED WARRANTIES, INCLUDING, BUT NOT
  23:./lib/ros_lib/ros/subscriber.h ****  * LIMITED TO, THE IMPLIED WARRANTIES OF MERCHANTABILITY AND FITNESS
  24:./lib/ros_lib/ros/subscriber.h ****  * FOR A PARTICULAR PURPOSE ARE DISCLAIMED. IN NO EVENT SHALL THE
  25:./lib/ros_lib/ros/subscriber.h ****  * COPYRIGHT OWNER OR CONTRIBUTORS BE LIABLE FOR ANY DIRECT, INDIRECT,
  26:./lib/ros_lib/ros/subscriber.h ****  * INCIDENTAL, SPECIAL, EXEMPLARY, OR CONSEQUENTIAL DAMAGES (INCLUDING,
  27:./lib/ros_lib/ros/subscriber.h ****  * BUT NOT LIMITED TO, PROCUREMENT OF SUBSTITUTE GOODS OR SERVICES;
  28:./lib/ros_lib/ros/subscriber.h ****  * LOSS OF USE, DATA, OR PROFITS; OR BUSINESS INTERRUPTION) HOWEVER
  29:./lib/ros_lib/ros/subscriber.h ****  * CAUSED AND ON ANY THEORY OF LIABILITY, WHETHER IN CONTRACT, STRICT
  30:./lib/ros_lib/ros/subscriber.h ****  * LIABILITY, OR TORT (INCLUDING NEGLIGENCE OR OTHERWISE) ARISING IN
  31:./lib/ros_lib/ros/subscriber.h ****  * ANY WAY OUT OF THE USE OF THIS SOFTWARE, EVEN IF ADVISED OF THE
  32:./lib/ros_lib/ros/subscriber.h ****  * POSSIBILITY OF SUCH DAMAGE.
  33:./lib/ros_lib/ros/subscriber.h ****  */
  34:./lib/ros_lib/ros/subscriber.h **** 
  35:./lib/ros_lib/ros/subscriber.h **** #ifndef ROS_SUBSCRIBER_H_
  36:./lib/ros_lib/ros/subscriber.h **** #define ROS_SUBSCRIBER_H_
  37:./lib/ros_lib/ros/subscriber.h **** 
  38:./lib/ros_lib/ros/subscriber.h **** #include "rosserial_msgs/TopicInfo.h"
  39:./lib/ros_lib/ros/subscriber.h **** 
  40:./lib/ros_lib/ros/subscriber.h **** namespace ros {
  41:./lib/ros_lib/ros/subscriber.h **** 
  42:./lib/ros_lib/ros/subscriber.h ****   /* Base class for objects subscribers. */
  43:./lib/ros_lib/ros/subscriber.h ****   class Subscriber_
  44:./lib/ros_lib/ros/subscriber.h ****   {
  45:./lib/ros_lib/ros/subscriber.h ****     public:
  46:./lib/ros_lib/ros/subscriber.h ****       virtual void callback(unsigned char *data)=0;
  47:./lib/ros_lib/ros/subscriber.h ****       virtual int getEndpointType()=0;
  48:./lib/ros_lib/ros/subscriber.h **** 
  49:./lib/ros_lib/ros/subscriber.h ****       // id_ is set by NodeHandle when we advertise 
  50:./lib/ros_lib/ros/subscriber.h ****       int id_;
  51:./lib/ros_lib/ros/subscriber.h **** 
  52:./lib/ros_lib/ros/subscriber.h ****       virtual const char * getMsgType()=0;
  53:./lib/ros_lib/ros/subscriber.h ****       virtual const char * getMsgMD5()=0;
  54:./lib/ros_lib/ros/subscriber.h ****       const char * topic_;
  55:./lib/ros_lib/ros/subscriber.h ****   };
  56:./lib/ros_lib/ros/subscriber.h **** 
  57:./lib/ros_lib/ros/subscriber.h **** 
  58:./lib/ros_lib/ros/subscriber.h ****   /* Actual subscriber, templated on message type. */
  59:./lib/ros_lib/ros/subscriber.h ****   template<typename MsgT>
  60:./lib/ros_lib/ros/subscriber.h ****   class Subscriber: public Subscriber_{
  61:./lib/ros_lib/ros/subscriber.h ****     public:
  62:./lib/ros_lib/ros/subscriber.h ****       typedef void(*CallbackT)(const MsgT&);
  63:./lib/ros_lib/ros/subscriber.h ****       MsgT msg;
  64:./lib/ros_lib/ros/subscriber.h **** 
  65:./lib/ros_lib/ros/subscriber.h ****       Subscriber(const char * topic_name, CallbackT cb, int endpoint=rosserial_msgs::TopicInfo::ID_
  66:./lib/ros_lib/ros/subscriber.h ****         cb_(cb),
  67:./lib/ros_lib/ros/subscriber.h ****         endpoint_(endpoint)
  68:./lib/ros_lib/ros/subscriber.h ****       {
  69:./lib/ros_lib/ros/subscriber.h ****         topic_ = topic_name;
  70:./lib/ros_lib/ros/subscriber.h ****       };
  71:./lib/ros_lib/ros/subscriber.h **** 
  72:./lib/ros_lib/ros/subscriber.h ****       virtual void callback(unsigned char* data){
  73:./lib/ros_lib/ros/subscriber.h ****         msg.deserialize(data);
  74:./lib/ros_lib/ros/subscriber.h ****         this->cb_(msg);
  75:./lib/ros_lib/ros/subscriber.h ****       }
  76:./lib/ros_lib/ros/subscriber.h **** 
  77:./lib/ros_lib/ros/subscriber.h ****       virtual const char * getMsgType(){ return this->msg.getType(); }
  78:./lib/ros_lib/ros/subscriber.h ****       virtual const char * getMsgMD5(){ return this->msg.getMD5(); }
  79:./lib/ros_lib/ros/subscriber.h ****       virtual int getEndpointType(){ return endpoint_; }
 1376              		.loc 11 79 0
 1377              		.cfi_startproc
 1378              		@ args = 0, pretend = 0, frame = 0
 1379              		@ frame_needed = 0, uses_anonymous_args = 0
 1380              		@ link register save eliminated.
 1381              	.LVL147:
 1382              		.loc 11 79 0
 1383 0000 C06B     		ldr	r0, [r0, #60]
 1384              	.LVL148:
 1385 0002 7047     		bx	lr
 1386              		.cfi_endproc
 1387              	.LFE1915:
 1388              		.cantunwind
 1389              		.fnend
 1391              		.section	.text._ZN3ros10SubscriberIN12roberto_msgs10MotorStateEE10getMsgTypeEv,"axG",%progbits,_ZN
 1392              		.align	1
 1393              		.weak	_ZN3ros10SubscriberIN12roberto_msgs10MotorStateEE10getMsgTypeEv
 1394              		.syntax unified
 1395              		.thumb
 1396              		.thumb_func
 1397              		.fpu softvfp
 1399              	_ZN3ros10SubscriberIN12roberto_msgs10MotorStateEE10getMsgTypeEv:
 1400              		.fnstart
 1401              	.LFB1916:
  77:./lib/ros_lib/ros/subscriber.h ****       virtual const char * getMsgMD5(){ return this->msg.getMD5(); }
 1402              		.loc 11 77 0
 1403              		.cfi_startproc
 1404              		@ args = 0, pretend = 0, frame = 0
 1405              		@ frame_needed = 0, uses_anonymous_args = 0
 1406              		@ link register save eliminated.
 1407              	.LVL149:
  77:./lib/ros_lib/ros/subscriber.h ****       virtual const char * getMsgMD5(){ return this->msg.getMD5(); }
 1408              		.loc 11 77 0
 1409 0000 0048     		ldr	r0, .L88
 1410              	.LVL150:
 1411 0002 7047     		bx	lr
 1412              	.L89:
 1413              		.align	2
 1414              	.L88:
 1415 0004 00000000 		.word	.LC17
 1416              		.cfi_endproc
 1417              	.LFE1916:
 1418              		.cantunwind
 1419              		.fnend
 1421              		.section	.text._ZN3ros10SubscriberIN12roberto_msgs10MotorStateEE9getMsgMD5Ev,"axG",%progbits,_ZN3r
 1422              		.align	1
 1423              		.weak	_ZN3ros10SubscriberIN12roberto_msgs10MotorStateEE9getMsgMD5Ev
 1424              		.syntax unified
 1425              		.thumb
 1426              		.thumb_func
 1427              		.fpu softvfp
 1429              	_ZN3ros10SubscriberIN12roberto_msgs10MotorStateEE9getMsgMD5Ev:
 1430              		.fnstart
 1431              	.LFB1917:
  78:./lib/ros_lib/ros/subscriber.h ****       virtual int getEndpointType(){ return endpoint_; }
 1432              		.loc 11 78 0
 1433              		.cfi_startproc
 1434              		@ args = 0, pretend = 0, frame = 0
 1435              		@ frame_needed = 0, uses_anonymous_args = 0
 1436              		@ link register save eliminated.
 1437              	.LVL151:
  78:./lib/ros_lib/ros/subscriber.h ****       virtual int getEndpointType(){ return endpoint_; }
 1438              		.loc 11 78 0
 1439 0000 0048     		ldr	r0, .L91
 1440              	.LVL152:
 1441 0002 7047     		bx	lr
 1442              	.L92:
 1443              		.align	2
 1444              	.L91:
 1445 0004 00000000 		.word	.LC18
 1446              		.cfi_endproc
 1447              	.LFE1917:
 1448              		.cantunwind
 1449              		.fnend
 1451              		.section	.text._ZNK8std_msgs6Header9serializeEPh,"axG",%progbits,_ZNK8std_msgs6Header9serializeEPh
 1452              		.align	1
 1453              		.weak	_ZNK8std_msgs6Header9serializeEPh
 1454              		.syntax unified
 1455              		.thumb
 1456              		.thumb_func
 1457              		.fpu softvfp
 1459              	_ZNK8std_msgs6Header9serializeEPh:
 1460              		.fnstart
 1461              	.LFB1523:
  27:./lib/ros_lib/std_msgs/Header.h ****     {
 1462              		.loc 8 27 0
 1463              		.cfi_startproc
 1464              		@ args = 0, pretend = 0, frame = 0
 1465              		@ frame_needed = 0, uses_anonymous_args = 0
 1466              	.LVL153:
  30:./lib/ros_lib/std_msgs/Header.h ****       *(outbuffer + offset + 1) = (this->seq >> (8 * 1)) & 0xFF;
 1467              		.loc 8 30 0
 1468 0000 4368     		ldr	r3, [r0, #4]
  27:./lib/ros_lib/std_msgs/Header.h ****     {
 1469              		.loc 8 27 0
 1470 0002 70B5     		push	{r4, r5, r6, lr}
 1471              	.LCFI6:
 1472              		.cfi_def_cfa_offset 16
 1473              		.cfi_offset 4, -16
 1474              		.cfi_offset 5, -12
 1475              		.cfi_offset 6, -8
 1476              		.cfi_offset 14, -4
  30:./lib/ros_lib/std_msgs/Header.h ****       *(outbuffer + offset + 1) = (this->seq >> (8 * 1)) & 0xFF;
 1477              		.loc 8 30 0
 1478 0004 0B70     		strb	r3, [r1]
  31:./lib/ros_lib/std_msgs/Header.h ****       *(outbuffer + offset + 2) = (this->seq >> (8 * 2)) & 0xFF;
 1479              		.loc 8 31 0
 1480 0006 4368     		ldr	r3, [r0, #4]
  27:./lib/ros_lib/std_msgs/Header.h ****     {
 1481              		.loc 8 27 0
 1482 0008 0546     		mov	r5, r0
  31:./lib/ros_lib/std_msgs/Header.h ****       *(outbuffer + offset + 2) = (this->seq >> (8 * 2)) & 0xFF;
 1483              		.loc 8 31 0
 1484 000a 1B0A     		lsrs	r3, r3, #8
 1485 000c 4B70     		strb	r3, [r1, #1]
  32:./lib/ros_lib/std_msgs/Header.h ****       *(outbuffer + offset + 3) = (this->seq >> (8 * 3)) & 0xFF;
 1486              		.loc 8 32 0
 1487 000e C388     		ldrh	r3, [r0, #6]
  27:./lib/ros_lib/std_msgs/Header.h ****     {
 1488              		.loc 8 27 0
 1489 0010 0C46     		mov	r4, r1
  32:./lib/ros_lib/std_msgs/Header.h ****       *(outbuffer + offset + 3) = (this->seq >> (8 * 3)) & 0xFF;
 1490              		.loc 8 32 0
 1491 0012 8B70     		strb	r3, [r1, #2]
  33:./lib/ros_lib/std_msgs/Header.h ****       offset += sizeof(this->seq);
 1492              		.loc 8 33 0
 1493 0014 C379     		ldrb	r3, [r0, #7]	@ zero_extendqisi2
 1494 0016 CB70     		strb	r3, [r1, #3]
 1495              	.LVL154:
  35:./lib/ros_lib/std_msgs/Header.h ****       *(outbuffer + offset + 1) = (this->stamp.sec >> (8 * 1)) & 0xFF;
 1496              		.loc 8 35 0
 1497 0018 8368     		ldr	r3, [r0, #8]
 1498 001a 0B71     		strb	r3, [r1, #4]
  36:./lib/ros_lib/std_msgs/Header.h ****       *(outbuffer + offset + 2) = (this->stamp.sec >> (8 * 2)) & 0xFF;
 1499              		.loc 8 36 0
 1500 001c 8368     		ldr	r3, [r0, #8]
 1501 001e 1B0A     		lsrs	r3, r3, #8
 1502 0020 4B71     		strb	r3, [r1, #5]
  37:./lib/ros_lib/std_msgs/Header.h ****       *(outbuffer + offset + 3) = (this->stamp.sec >> (8 * 3)) & 0xFF;
 1503              		.loc 8 37 0
 1504 0022 4389     		ldrh	r3, [r0, #10]
 1505 0024 8B71     		strb	r3, [r1, #6]
  38:./lib/ros_lib/std_msgs/Header.h ****       offset += sizeof(this->stamp.sec);
 1506              		.loc 8 38 0
 1507 0026 C37A     		ldrb	r3, [r0, #11]	@ zero_extendqisi2
 1508 0028 CB71     		strb	r3, [r1, #7]
 1509              	.LVL155:
  40:./lib/ros_lib/std_msgs/Header.h ****       *(outbuffer + offset + 1) = (this->stamp.nsec >> (8 * 1)) & 0xFF;
 1510              		.loc 8 40 0
 1511 002a C368     		ldr	r3, [r0, #12]
 1512 002c 0B72     		strb	r3, [r1, #8]
  41:./lib/ros_lib/std_msgs/Header.h ****       *(outbuffer + offset + 2) = (this->stamp.nsec >> (8 * 2)) & 0xFF;
 1513              		.loc 8 41 0
 1514 002e C368     		ldr	r3, [r0, #12]
 1515 0030 1B0A     		lsrs	r3, r3, #8
 1516 0032 4B72     		strb	r3, [r1, #9]
  42:./lib/ros_lib/std_msgs/Header.h ****       *(outbuffer + offset + 3) = (this->stamp.nsec >> (8 * 3)) & 0xFF;
 1517              		.loc 8 42 0
 1518 0034 C389     		ldrh	r3, [r0, #14]
 1519 0036 8B72     		strb	r3, [r1, #10]
  43:./lib/ros_lib/std_msgs/Header.h ****       offset += sizeof(this->stamp.nsec);
 1520              		.loc 8 43 0
 1521 0038 C37B     		ldrb	r3, [r0, #15]	@ zero_extendqisi2
 1522 003a CB72     		strb	r3, [r1, #11]
 1523              	.LVL156:
  45:./lib/ros_lib/std_msgs/Header.h ****       memcpy(outbuffer + offset, &length_frame_id, sizeof(uint32_t));
 1524              		.loc 8 45 0
 1525 003c 0069     		ldr	r0, [r0, #16]
 1526              	.LVL157:
 1527 003e FFF7FEFF 		bl	strlen
 1528              	.LVL158:
 1529 0042 0646     		mov	r6, r0
 1530              	.LVL159:
  46:./lib/ros_lib/std_msgs/Header.h ****       offset += 4;
 1531              		.loc 8 46 0
 1532 0044 E060     		str	r0, [r4, #12]	@ unaligned
 1533              	.LVL160:
  48:./lib/ros_lib/std_msgs/Header.h ****       offset += length_frame_id;
 1534              		.loc 8 48 0
 1535 0046 0246     		mov	r2, r0
 1536 0048 2969     		ldr	r1, [r5, #16]
 1537 004a 04F11000 		add	r0, r4, #16
 1538              	.LVL161:
 1539 004e FFF7FEFF 		bl	memcpy
 1540              	.LVL162:
  51:./lib/ros_lib/std_msgs/Header.h **** 
 1541              		.loc 8 51 0
 1542 0052 06F11000 		add	r0, r6, #16
 1543              	.LVL163:
 1544 0056 70BD     		pop	{r4, r5, r6, pc}
 1545              		.cfi_endproc
 1546              	.LFE1523:
 1547              		.cantunwind
 1548              		.fnend
 1550              		.section	.text._ZNK8std_msgs19MultiArrayDimension9serializeEPh,"axG",%progbits,_ZNK8std_msgs19Mult
 1551              		.align	1
 1552              		.weak	_ZNK8std_msgs19MultiArrayDimension9serializeEPh
 1553              		.syntax unified
 1554              		.thumb
 1555              		.thumb_func
 1556              		.fpu softvfp
 1558              	_ZNK8std_msgs19MultiArrayDimension9serializeEPh:
 1559              		.fnstart
 1560              	.LFB1488:
  26:./lib/ros_lib/std_msgs/MultiArrayDimension.h ****     {
 1561              		.loc 5 26 0
 1562              		.cfi_startproc
 1563              		@ args = 0, pretend = 0, frame = 0
 1564              		@ frame_needed = 0, uses_anonymous_args = 0
 1565              	.LVL164:
 1566 0000 70B5     		push	{r4, r5, r6, lr}
 1567              	.LCFI7:
 1568              		.cfi_def_cfa_offset 16
 1569              		.cfi_offset 4, -16
 1570              		.cfi_offset 5, -12
 1571              		.cfi_offset 6, -8
 1572              		.cfi_offset 14, -4
  26:./lib/ros_lib/std_msgs/MultiArrayDimension.h ****     {
 1573              		.loc 5 26 0
 1574 0002 0546     		mov	r5, r0
  29:./lib/ros_lib/std_msgs/MultiArrayDimension.h ****       memcpy(outbuffer + offset, &length_label, sizeof(uint32_t));
 1575              		.loc 5 29 0
 1576 0004 4068     		ldr	r0, [r0, #4]
 1577              	.LVL165:
  26:./lib/ros_lib/std_msgs/MultiArrayDimension.h ****     {
 1578              		.loc 5 26 0
 1579 0006 0C46     		mov	r4, r1
  29:./lib/ros_lib/std_msgs/MultiArrayDimension.h ****       memcpy(outbuffer + offset, &length_label, sizeof(uint32_t));
 1580              		.loc 5 29 0
 1581 0008 FFF7FEFF 		bl	strlen
 1582              	.LVL166:
 1583 000c 0646     		mov	r6, r0
 1584              	.LVL167:
  30:./lib/ros_lib/std_msgs/MultiArrayDimension.h ****       offset += 4;
 1585              		.loc 5 30 0
 1586 000e 2046     		mov	r0, r4
 1587              	.LVL168:
 1588 0010 40F8046B 		str	r6, [r0], #4	@ unaligned
 1589              	.LVL169:
  32:./lib/ros_lib/std_msgs/MultiArrayDimension.h ****       offset += length_label;
 1590              		.loc 5 32 0
 1591 0014 6968     		ldr	r1, [r5, #4]
 1592 0016 3246     		mov	r2, r6
 1593 0018 FFF7FEFF 		bl	memcpy
 1594              	.LVL170:
  34:./lib/ros_lib/std_msgs/MultiArrayDimension.h ****       *(outbuffer + offset + 1) = (this->size >> (8 * 1)) & 0xFF;
 1595              		.loc 5 34 0
 1596 001c AB68     		ldr	r3, [r5, #8]
 1597 001e A119     		adds	r1, r4, r6
 1598 0020 0B71     		strb	r3, [r1, #4]
  35:./lib/ros_lib/std_msgs/MultiArrayDimension.h ****       *(outbuffer + offset + 2) = (this->size >> (8 * 2)) & 0xFF;
 1599              		.loc 5 35 0
 1600 0022 AB68     		ldr	r3, [r5, #8]
  45:./lib/ros_lib/std_msgs/MultiArrayDimension.h **** 
 1601              		.loc 5 45 0
 1602 0024 06F10C00 		add	r0, r6, #12
  35:./lib/ros_lib/std_msgs/MultiArrayDimension.h ****       *(outbuffer + offset + 2) = (this->size >> (8 * 2)) & 0xFF;
 1603              		.loc 5 35 0
 1604 0028 1B0A     		lsrs	r3, r3, #8
 1605 002a 4B71     		strb	r3, [r1, #5]
  36:./lib/ros_lib/std_msgs/MultiArrayDimension.h ****       *(outbuffer + offset + 3) = (this->size >> (8 * 3)) & 0xFF;
 1606              		.loc 5 36 0
 1607 002c 6B89     		ldrh	r3, [r5, #10]
 1608 002e 8B71     		strb	r3, [r1, #6]
  37:./lib/ros_lib/std_msgs/MultiArrayDimension.h ****       offset += sizeof(this->size);
 1609              		.loc 5 37 0
 1610 0030 EB7A     		ldrb	r3, [r5, #11]	@ zero_extendqisi2
 1611 0032 CB71     		strb	r3, [r1, #7]
 1612              	.LVL171:
  39:./lib/ros_lib/std_msgs/MultiArrayDimension.h ****       *(outbuffer + offset + 1) = (this->stride >> (8 * 1)) & 0xFF;
 1613              		.loc 5 39 0
 1614 0034 EB68     		ldr	r3, [r5, #12]
 1615 0036 0B72     		strb	r3, [r1, #8]
  40:./lib/ros_lib/std_msgs/MultiArrayDimension.h ****       *(outbuffer + offset + 2) = (this->stride >> (8 * 2)) & 0xFF;
 1616              		.loc 5 40 0
 1617 0038 EB68     		ldr	r3, [r5, #12]
 1618 003a 1B0A     		lsrs	r3, r3, #8
 1619 003c 4B72     		strb	r3, [r1, #9]
  41:./lib/ros_lib/std_msgs/MultiArrayDimension.h ****       *(outbuffer + offset + 3) = (this->stride >> (8 * 3)) & 0xFF;
 1620              		.loc 5 41 0
 1621 003e EB89     		ldrh	r3, [r5, #14]
 1622 0040 8B72     		strb	r3, [r1, #10]
  42:./lib/ros_lib/std_msgs/MultiArrayDimension.h ****       offset += sizeof(this->stride);
 1623              		.loc 5 42 0
 1624 0042 EB7B     		ldrb	r3, [r5, #15]	@ zero_extendqisi2
 1625 0044 CB72     		strb	r3, [r1, #11]
 1626              	.LVL172:
  45:./lib/ros_lib/std_msgs/MultiArrayDimension.h **** 
 1627              		.loc 5 45 0
 1628 0046 70BD     		pop	{r4, r5, r6, pc}
 1629              		.cfi_endproc
 1630              	.LFE1488:
 1631              		.cantunwind
 1632              		.fnend
 1634              		.section	.text._ZNK14rosserial_msgs20RequestParamResponse9serializeEPh,"axG",%progbits,_ZNK14rosse
 1635              		.align	1
 1636              		.weak	_ZNK14rosserial_msgs20RequestParamResponse9serializeEPh
 1637              		.syntax unified
 1638              		.thumb
 1639              		.thumb_func
 1640              		.fpu softvfp
 1642              	_ZNK14rosserial_msgs20RequestParamResponse9serializeEPh:
 1643              		.fnstart
 1644              	.LFB1409:
  74:./lib/ros_lib/rosserial_msgs/RequestParam.h ****     {
 1645              		.loc 4 74 0
 1646              		.cfi_startproc
 1647              		@ args = 0, pretend = 0, frame = 0
 1648              		@ frame_needed = 0, uses_anonymous_args = 0
 1649              	.LVL173:
 1650 0000 2DE9F843 		push	{r3, r4, r5, r6, r7, r8, r9, lr}
 1651              	.LCFI8:
 1652              		.cfi_def_cfa_offset 32
 1653              		.cfi_offset 3, -32
 1654              		.cfi_offset 4, -28
 1655              		.cfi_offset 5, -24
 1656              		.cfi_offset 6, -20
 1657              		.cfi_offset 7, -16
 1658              		.cfi_offset 8, -12
 1659              		.cfi_offset 9, -8
 1660              		.cfi_offset 14, -4
  77:./lib/ros_lib/rosserial_msgs/RequestParam.h ****       *(outbuffer + offset++) = 0;
 1661              		.loc 4 77 0
 1662 0004 0379     		ldrb	r3, [r0, #4]	@ zero_extendqisi2
  74:./lib/ros_lib/rosserial_msgs/RequestParam.h ****     {
 1663              		.loc 4 74 0
 1664 0006 0746     		mov	r7, r0
  77:./lib/ros_lib/rosserial_msgs/RequestParam.h ****       *(outbuffer + offset++) = 0;
 1665              		.loc 4 77 0
 1666 0008 0B70     		strb	r3, [r1]
 1667              	.LVL174:
  78:./lib/ros_lib/rosserial_msgs/RequestParam.h ****       *(outbuffer + offset++) = 0;
 1668              		.loc 4 78 0
 1669 000a 0023     		movs	r3, #0
  80:./lib/ros_lib/rosserial_msgs/RequestParam.h ****       for( uint8_t i = 0; i < ints_length; i++){
 1670              		.loc 4 80 0
 1671 000c 1A46     		mov	r2, r3
  74:./lib/ros_lib/rosserial_msgs/RequestParam.h ****     {
 1672              		.loc 4 74 0
 1673 000e 0C46     		mov	r4, r1
  78:./lib/ros_lib/rosserial_msgs/RequestParam.h ****       *(outbuffer + offset++) = 0;
 1674              		.loc 4 78 0
 1675 0010 4B70     		strb	r3, [r1, #1]
 1676              	.LVL175:
  79:./lib/ros_lib/rosserial_msgs/RequestParam.h ****       *(outbuffer + offset++) = 0;
 1677              		.loc 4 79 0
 1678 0012 8B70     		strb	r3, [r1, #2]
 1679              	.LVL176:
  80:./lib/ros_lib/rosserial_msgs/RequestParam.h ****       for( uint8_t i = 0; i < ints_length; i++){
 1680              		.loc 4 80 0
 1681 0014 CB70     		strb	r3, [r1, #3]
 1682              	.LVL177:
 1683 0016 0431     		adds	r1, r1, #4
 1684              	.LVL178:
 1685              	.L97:
 1686              	.LBB208:
  81:./lib/ros_lib/rosserial_msgs/RequestParam.h ****       union {
 1687              		.loc 4 81 0 discriminator 3
 1688 0018 3D79     		ldrb	r5, [r7, #4]	@ zero_extendqisi2
 1689 001a 501C     		adds	r0, r2, #1
 1690 001c D2B2     		uxtb	r2, r2
 1691 001e AA42     		cmp	r2, r5
 1692 0020 A1EB0403 		sub	r3, r1, r4
 1693              	.LVL179:
 1694 0024 01F10401 		add	r1, r1, #4
 1695 0028 0FDA     		bge	.L96
 1696              	.LBB209:
  86:./lib/ros_lib/rosserial_msgs/RequestParam.h ****       *(outbuffer + offset + 0) = (u_intsi.base >> (8 * 0)) & 0xFF;
 1697              		.loc 4 86 0 discriminator 2
 1698 002a FB68     		ldr	r3, [r7, #12]
 1699              	.LVL180:
 1700 002c 53F82230 		ldr	r3, [r3, r2, lsl #2]
 1701              	.LVL181:
  88:./lib/ros_lib/rosserial_msgs/RequestParam.h ****       *(outbuffer + offset + 2) = (u_intsi.base >> (8 * 2)) & 0xFF;
 1702              		.loc 4 88 0 discriminator 2
 1703 0030 1A0A     		lsrs	r2, r3, #8
  87:./lib/ros_lib/rosserial_msgs/RequestParam.h ****       *(outbuffer + offset + 1) = (u_intsi.base >> (8 * 1)) & 0xFF;
 1704              		.loc 4 87 0 discriminator 2
 1705 0032 01F8043C 		strb	r3, [r1, #-4]
  88:./lib/ros_lib/rosserial_msgs/RequestParam.h ****       *(outbuffer + offset + 2) = (u_intsi.base >> (8 * 2)) & 0xFF;
 1706              		.loc 4 88 0 discriminator 2
 1707 0036 01F8032C 		strb	r2, [r1, #-3]
  89:./lib/ros_lib/rosserial_msgs/RequestParam.h ****       *(outbuffer + offset + 3) = (u_intsi.base >> (8 * 3)) & 0xFF;
 1708              		.loc 4 89 0 discriminator 2
 1709 003a 1A0C     		lsrs	r2, r3, #16
  90:./lib/ros_lib/rosserial_msgs/RequestParam.h ****       offset += sizeof(this->ints[i]);
 1710              		.loc 4 90 0 discriminator 2
 1711 003c 1B0E     		lsrs	r3, r3, #24
 1712              	.LVL182:
  89:./lib/ros_lib/rosserial_msgs/RequestParam.h ****       *(outbuffer + offset + 3) = (u_intsi.base >> (8 * 3)) & 0xFF;
 1713              		.loc 4 89 0 discriminator 2
 1714 003e 01F8022C 		strb	r2, [r1, #-2]
  90:./lib/ros_lib/rosserial_msgs/RequestParam.h ****       offset += sizeof(this->ints[i]);
 1715              		.loc 4 90 0 discriminator 2
 1716 0042 01F8013C 		strb	r3, [r1, #-1]
 1717              	.LVL183:
 1718              	.LBE209:
  81:./lib/ros_lib/rosserial_msgs/RequestParam.h ****       union {
 1719              		.loc 4 81 0 discriminator 2
 1720 0046 0246     		mov	r2, r0
 1721 0048 E6E7     		b	.L97
 1722              	.LVL184:
 1723              	.L96:
 1724              	.LBE208:
  93:./lib/ros_lib/rosserial_msgs/RequestParam.h ****       *(outbuffer + offset++) = 0;
 1725              		.loc 4 93 0
 1726 004a 3A7C     		ldrb	r2, [r7, #16]	@ zero_extendqisi2
  94:./lib/ros_lib/rosserial_msgs/RequestParam.h ****       *(outbuffer + offset++) = 0;
 1727              		.loc 4 94 0
 1728 004c E118     		adds	r1, r4, r3
  93:./lib/ros_lib/rosserial_msgs/RequestParam.h ****       *(outbuffer + offset++) = 0;
 1729              		.loc 4 93 0
 1730 004e E254     		strb	r2, [r4, r3]
 1731              	.LVL185:
  94:./lib/ros_lib/rosserial_msgs/RequestParam.h ****       *(outbuffer + offset++) = 0;
 1732              		.loc 4 94 0
 1733 0050 0022     		movs	r2, #0
  96:./lib/ros_lib/rosserial_msgs/RequestParam.h ****       for( uint8_t i = 0; i < floats_length; i++){
 1734              		.loc 4 96 0
 1735 0052 0433     		adds	r3, r3, #4
 1736              	.LVL186:
  94:./lib/ros_lib/rosserial_msgs/RequestParam.h ****       *(outbuffer + offset++) = 0;
 1737              		.loc 4 94 0
 1738 0054 4A70     		strb	r2, [r1, #1]
 1739              	.LVL187:
  95:./lib/ros_lib/rosserial_msgs/RequestParam.h ****       *(outbuffer + offset++) = 0;
 1740              		.loc 4 95 0
 1741 0056 8A70     		strb	r2, [r1, #2]
  96:./lib/ros_lib/rosserial_msgs/RequestParam.h ****       for( uint8_t i = 0; i < floats_length; i++){
 1742              		.loc 4 96 0
 1743 0058 CA70     		strb	r2, [r1, #3]
 1744              	.LVL188:
 1745 005a 2344     		add	r3, r3, r4
 1746              	.LVL189:
 1747              	.L99:
 1748              	.LBB210:
  97:./lib/ros_lib/rosserial_msgs/RequestParam.h ****       union {
 1749              		.loc 4 97 0 discriminator 3
 1750 005c 387C     		ldrb	r0, [r7, #16]	@ zero_extendqisi2
 1751 005e 511C     		adds	r1, r2, #1
 1752 0060 D2B2     		uxtb	r2, r2
 1753 0062 8242     		cmp	r2, r0
 1754 0064 A3EB0406 		sub	r6, r3, r4
 1755              	.LVL190:
 1756 0068 03F10403 		add	r3, r3, #4
 1757 006c 0FDA     		bge	.L98
 1758              	.LBB211:
 102:./lib/ros_lib/rosserial_msgs/RequestParam.h ****       *(outbuffer + offset + 0) = (u_floatsi.base >> (8 * 0)) & 0xFF;
 1759              		.loc 4 102 0 discriminator 2
 1760 006e B869     		ldr	r0, [r7, #24]
 103:./lib/ros_lib/rosserial_msgs/RequestParam.h ****       *(outbuffer + offset + 1) = (u_floatsi.base >> (8 * 1)) & 0xFF;
 1761              		.loc 4 103 0 discriminator 2
 1762 0070 50F82220 		ldr	r2, [r0, r2, lsl #2]
 104:./lib/ros_lib/rosserial_msgs/RequestParam.h ****       *(outbuffer + offset + 2) = (u_floatsi.base >> (8 * 2)) & 0xFF;
 1763              		.loc 4 104 0 discriminator 2
 1764 0074 100A     		lsrs	r0, r2, #8
 103:./lib/ros_lib/rosserial_msgs/RequestParam.h ****       *(outbuffer + offset + 1) = (u_floatsi.base >> (8 * 1)) & 0xFF;
 1765              		.loc 4 103 0 discriminator 2
 1766 0076 03F8042C 		strb	r2, [r3, #-4]
 104:./lib/ros_lib/rosserial_msgs/RequestParam.h ****       *(outbuffer + offset + 2) = (u_floatsi.base >> (8 * 2)) & 0xFF;
 1767              		.loc 4 104 0 discriminator 2
 1768 007a 03F8030C 		strb	r0, [r3, #-3]
 105:./lib/ros_lib/rosserial_msgs/RequestParam.h ****       *(outbuffer + offset + 3) = (u_floatsi.base >> (8 * 3)) & 0xFF;
 1769              		.loc 4 105 0 discriminator 2
 1770 007e 100C     		lsrs	r0, r2, #16
 106:./lib/ros_lib/rosserial_msgs/RequestParam.h ****       offset += sizeof(this->floats[i]);
 1771              		.loc 4 106 0 discriminator 2
 1772 0080 120E     		lsrs	r2, r2, #24
 1773 0082 03F8012C 		strb	r2, [r3, #-1]
 1774              	.LVL191:
 105:./lib/ros_lib/rosserial_msgs/RequestParam.h ****       *(outbuffer + offset + 3) = (u_floatsi.base >> (8 * 3)) & 0xFF;
 1775              		.loc 4 105 0 discriminator 2
 1776 0086 03F8020C 		strb	r0, [r3, #-2]
 1777              	.LBE211:
  97:./lib/ros_lib/rosserial_msgs/RequestParam.h ****       union {
 1778              		.loc 4 97 0 discriminator 2
 1779 008a 0A46     		mov	r2, r1
 1780 008c E6E7     		b	.L99
 1781              	.LVL192:
 1782              	.L98:
 1783              	.LBE210:
 109:./lib/ros_lib/rosserial_msgs/RequestParam.h ****       *(outbuffer + offset++) = 0;
 1784              		.loc 4 109 0
 1785 008e 3B7F     		ldrb	r3, [r7, #28]	@ zero_extendqisi2
 110:./lib/ros_lib/rosserial_msgs/RequestParam.h ****       *(outbuffer + offset++) = 0;
 1786              		.loc 4 110 0
 1787 0090 A219     		adds	r2, r4, r6
 109:./lib/ros_lib/rosserial_msgs/RequestParam.h ****       *(outbuffer + offset++) = 0;
 1788              		.loc 4 109 0
 1789 0092 A355     		strb	r3, [r4, r6]
 1790              	.LVL193:
 110:./lib/ros_lib/rosserial_msgs/RequestParam.h ****       *(outbuffer + offset++) = 0;
 1791              		.loc 4 110 0
 1792 0094 0023     		movs	r3, #0
 112:./lib/ros_lib/rosserial_msgs/RequestParam.h ****       for( uint8_t i = 0; i < strings_length; i++){
 1793              		.loc 4 112 0
 1794 0096 0436     		adds	r6, r6, #4
 1795              	.LVL194:
 110:./lib/ros_lib/rosserial_msgs/RequestParam.h ****       *(outbuffer + offset++) = 0;
 1796              		.loc 4 110 0
 1797 0098 5370     		strb	r3, [r2, #1]
 1798              	.LVL195:
 111:./lib/ros_lib/rosserial_msgs/RequestParam.h ****       *(outbuffer + offset++) = 0;
 1799              		.loc 4 111 0
 1800 009a 9370     		strb	r3, [r2, #2]
 112:./lib/ros_lib/rosserial_msgs/RequestParam.h ****       for( uint8_t i = 0; i < strings_length; i++){
 1801              		.loc 4 112 0
 1802 009c D370     		strb	r3, [r2, #3]
 1803              	.LVL196:
 1804              	.L101:
 1805              	.LBB212:
 113:./lib/ros_lib/rosserial_msgs/RequestParam.h ****       uint32_t length_stringsi = strlen(this->strings[i]);
 1806              		.loc 4 113 0 discriminator 3
 1807 009e DDB2     		uxtb	r5, r3
 1808 00a0 03F10109 		add	r9, r3, #1
 1809 00a4 3B7F     		ldrb	r3, [r7, #28]	@ zero_extendqisi2
 1810              	.LVL197:
 1811 00a6 9D42     		cmp	r5, r3
 1812 00a8 11DA     		bge	.L95
 1813              	.LBB213:
 114:./lib/ros_lib/rosserial_msgs/RequestParam.h ****       memcpy(outbuffer + offset, &length_stringsi, sizeof(uint32_t));
 1814              		.loc 4 114 0 discriminator 2
 1815 00aa 7B6A     		ldr	r3, [r7, #36]
 1816 00ac 53F82500 		ldr	r0, [r3, r5, lsl #2]
 1817 00b0 FFF7FEFF 		bl	strlen
 1818              	.LVL198:
 1819 00b4 8046     		mov	r8, r0
 1820              	.LVL199:
 115:./lib/ros_lib/rosserial_msgs/RequestParam.h ****       offset += 4;
 1821              		.loc 4 115 0 discriminator 2
 1822 00b6 A051     		str	r0, [r4, r6]	@ unaligned
 1823              	.LVL200:
 117:./lib/ros_lib/rosserial_msgs/RequestParam.h ****       offset += length_stringsi;
 1824              		.loc 4 117 0 discriminator 2
 1825 00b8 7B6A     		ldr	r3, [r7, #36]
 116:./lib/ros_lib/rosserial_msgs/RequestParam.h ****       memcpy(outbuffer + offset, this->strings[i], length_stringsi);
 1826              		.loc 4 116 0 discriminator 2
 1827 00ba 0436     		adds	r6, r6, #4
 1828              	.LVL201:
 117:./lib/ros_lib/rosserial_msgs/RequestParam.h ****       offset += length_stringsi;
 1829              		.loc 4 117 0 discriminator 2
 1830 00bc 0246     		mov	r2, r0
 1831 00be 53F82510 		ldr	r1, [r3, r5, lsl #2]
 1832 00c2 A019     		adds	r0, r4, r6
 1833              	.LVL202:
 1834 00c4 FFF7FEFF 		bl	memcpy
 1835              	.LVL203:
 118:./lib/ros_lib/rosserial_msgs/RequestParam.h ****       }
 1836              		.loc 4 118 0 discriminator 2
 1837 00c8 4644     		add	r6, r6, r8
 1838              	.LVL204:
 1839              	.LBE213:
 113:./lib/ros_lib/rosserial_msgs/RequestParam.h ****       uint32_t length_stringsi = strlen(this->strings[i]);
 1840              		.loc 4 113 0 discriminator 2
 1841 00ca 4B46     		mov	r3, r9
 1842 00cc E7E7     		b	.L101
 1843              	.LVL205:
 1844              	.L95:
 1845              	.LBE212:
 121:./lib/ros_lib/rosserial_msgs/RequestParam.h **** 
 1846              		.loc 4 121 0
 1847 00ce 3046     		mov	r0, r6
 1848 00d0 BDE8F883 		pop	{r3, r4, r5, r6, r7, r8, r9, pc}
 1849              		.cfi_endproc
 1850              	.LFE1409:
 1851              		.cantunwind
 1852              		.fnend
 1854              		.section	.text._ZNK14rosserial_msgs3Log9serializeEPh,"axG",%progbits,_ZNK14rosserial_msgs3Log9seri
 1855              		.align	1
 1856              		.weak	_ZNK14rosserial_msgs3Log9serializeEPh
 1857              		.syntax unified
 1858              		.thumb
 1859              		.thumb_func
 1860              		.fpu softvfp
 1862              	_ZNK14rosserial_msgs3Log9serializeEPh:
 1863              		.fnstart
 1864              	.LFB1395:
  29:./lib/ros_lib/rosserial_msgs/Log.h ****     {
 1865              		.loc 3 29 0
 1866              		.cfi_startproc
 1867              		@ args = 0, pretend = 0, frame = 0
 1868              		@ frame_needed = 0, uses_anonymous_args = 0
 1869              	.LVL206:
 1870 0000 70B5     		push	{r4, r5, r6, lr}
 1871              	.LCFI9:
 1872              		.cfi_def_cfa_offset 16
 1873              		.cfi_offset 4, -16
 1874              		.cfi_offset 5, -12
 1875              		.cfi_offset 6, -8
 1876              		.cfi_offset 14, -4
  32:./lib/ros_lib/rosserial_msgs/Log.h ****       offset += sizeof(this->level);
 1877              		.loc 3 32 0
 1878 0002 0379     		ldrb	r3, [r0, #4]	@ zero_extendqisi2
  29:./lib/ros_lib/rosserial_msgs/Log.h ****     {
 1879              		.loc 3 29 0
 1880 0004 0646     		mov	r6, r0
  32:./lib/ros_lib/rosserial_msgs/Log.h ****       offset += sizeof(this->level);
 1881              		.loc 3 32 0
 1882 0006 0B70     		strb	r3, [r1]
 1883              	.LVL207:
  34:./lib/ros_lib/rosserial_msgs/Log.h ****       memcpy(outbuffer + offset, &length_msg, sizeof(uint32_t));
 1884              		.loc 3 34 0
 1885 0008 8068     		ldr	r0, [r0, #8]
 1886              	.LVL208:
  29:./lib/ros_lib/rosserial_msgs/Log.h ****     {
 1887              		.loc 3 29 0
 1888 000a 0D46     		mov	r5, r1
  34:./lib/ros_lib/rosserial_msgs/Log.h ****       memcpy(outbuffer + offset, &length_msg, sizeof(uint32_t));
 1889              		.loc 3 34 0
 1890 000c FFF7FEFF 		bl	strlen
 1891              	.LVL209:
 1892 0010 0446     		mov	r4, r0
 1893              	.LVL210:
  35:./lib/ros_lib/rosserial_msgs/Log.h ****       offset += 4;
 1894              		.loc 3 35 0
 1895 0012 C5F80100 		str	r0, [r5, #1]	@ unaligned
 1896              	.LVL211:
  37:./lib/ros_lib/rosserial_msgs/Log.h ****       offset += length_msg;
 1897              		.loc 3 37 0
 1898 0016 0246     		mov	r2, r0
 1899 0018 B168     		ldr	r1, [r6, #8]
 1900 001a 681D     		adds	r0, r5, #5
 1901              	.LVL212:
 1902 001c FFF7FEFF 		bl	memcpy
 1903              	.LVL213:
  40:./lib/ros_lib/rosserial_msgs/Log.h **** 
 1904              		.loc 3 40 0
 1905 0020 601D     		adds	r0, r4, #5
 1906              	.LVL214:
 1907 0022 70BD     		pop	{r4, r5, r6, pc}
 1908              		.cfi_endproc
 1909              	.LFE1395:
 1910              		.cantunwind
 1911              		.fnend
 1913              		.section	.text._ZNK14rosserial_msgs9TopicInfo9serializeEPh,"axG",%progbits,_ZNK14rosserial_msgs9To
 1914              		.align	1
 1915              		.weak	_ZNK14rosserial_msgs9TopicInfo9serializeEPh
 1916              		.syntax unified
 1917              		.thumb
 1918              		.thumb_func
 1919              		.fpu softvfp
 1921              	_ZNK14rosserial_msgs9TopicInfo9serializeEPh:
 1922              		.fnstart
 1923              	.LFB1388:
  38:./lib/ros_lib/rosserial_msgs/TopicInfo.h ****     {
 1924              		.loc 2 38 0
 1925              		.cfi_startproc
 1926              		@ args = 0, pretend = 0, frame = 0
 1927              		@ frame_needed = 0, uses_anonymous_args = 0
 1928              	.LVL215:
  41:./lib/ros_lib/rosserial_msgs/TopicInfo.h ****       *(outbuffer + offset + 1) = (this->topic_id >> (8 * 1)) & 0xFF;
 1929              		.loc 2 41 0
 1930 0000 8388     		ldrh	r3, [r0, #4]
  38:./lib/ros_lib/rosserial_msgs/TopicInfo.h ****     {
 1931              		.loc 2 38 0
 1932 0002 2DE9F041 		push	{r4, r5, r6, r7, r8, lr}
 1933              	.LCFI10:
 1934              		.cfi_def_cfa_offset 24
 1935              		.cfi_offset 4, -24
 1936              		.cfi_offset 5, -20
 1937              		.cfi_offset 6, -16
 1938              		.cfi_offset 7, -12
 1939              		.cfi_offset 8, -8
 1940              		.cfi_offset 14, -4
  41:./lib/ros_lib/rosserial_msgs/TopicInfo.h ****       *(outbuffer + offset + 1) = (this->topic_id >> (8 * 1)) & 0xFF;
 1941              		.loc 2 41 0
 1942 0006 0B70     		strb	r3, [r1]
  42:./lib/ros_lib/rosserial_msgs/TopicInfo.h ****       offset += sizeof(this->topic_id);
 1943              		.loc 2 42 0
 1944 0008 8388     		ldrh	r3, [r0, #4]
  38:./lib/ros_lib/rosserial_msgs/TopicInfo.h ****     {
 1945              		.loc 2 38 0
 1946 000a 0546     		mov	r5, r0
  42:./lib/ros_lib/rosserial_msgs/TopicInfo.h ****       offset += sizeof(this->topic_id);
 1947              		.loc 2 42 0
 1948 000c 1B0A     		lsrs	r3, r3, #8
 1949 000e 4B70     		strb	r3, [r1, #1]
 1950              	.LVL216:
  44:./lib/ros_lib/rosserial_msgs/TopicInfo.h ****       memcpy(outbuffer + offset, &length_topic_name, sizeof(uint32_t));
 1951              		.loc 2 44 0
 1952 0010 8068     		ldr	r0, [r0, #8]
 1953              	.LVL217:
  38:./lib/ros_lib/rosserial_msgs/TopicInfo.h ****     {
 1954              		.loc 2 38 0
 1955 0012 0C46     		mov	r4, r1
  44:./lib/ros_lib/rosserial_msgs/TopicInfo.h ****       memcpy(outbuffer + offset, &length_topic_name, sizeof(uint32_t));
 1956              		.loc 2 44 0
 1957 0014 FFF7FEFF 		bl	strlen
 1958              	.LVL218:
  45:./lib/ros_lib/rosserial_msgs/TopicInfo.h ****       offset += 4;
 1959              		.loc 2 45 0
 1960 0018 C4F80200 		str	r0, [r4, #2]	@ unaligned
  47:./lib/ros_lib/rosserial_msgs/TopicInfo.h ****       offset += length_topic_name;
 1961              		.loc 2 47 0
 1962 001c 0246     		mov	r2, r0
 1963 001e A968     		ldr	r1, [r5, #8]
  44:./lib/ros_lib/rosserial_msgs/TopicInfo.h ****       memcpy(outbuffer + offset, &length_topic_name, sizeof(uint32_t));
 1964              		.loc 2 44 0
 1965 0020 0746     		mov	r7, r0
 1966              	.LVL219:
  47:./lib/ros_lib/rosserial_msgs/TopicInfo.h ****       offset += length_topic_name;
 1967              		.loc 2 47 0
 1968 0022 A01D     		adds	r0, r4, #6
 1969              	.LVL220:
 1970 0024 FFF7FEFF 		bl	memcpy
 1971              	.LVL221:
  49:./lib/ros_lib/rosserial_msgs/TopicInfo.h ****       memcpy(outbuffer + offset, &length_message_type, sizeof(uint32_t));
 1972              		.loc 2 49 0
 1973 0028 E868     		ldr	r0, [r5, #12]
 1974 002a FFF7FEFF 		bl	strlen
 1975              	.LVL222:
  48:./lib/ros_lib/rosserial_msgs/TopicInfo.h ****       uint32_t length_message_type = strlen(this->message_type);
 1976              		.loc 2 48 0
 1977 002e 07F10608 		add	r8, r7, #6
 1978              	.LVL223:
  50:./lib/ros_lib/rosserial_msgs/TopicInfo.h ****       offset += 4;
 1979              		.loc 2 50 0
 1980 0032 44F80800 		str	r0, [r4, r8]	@ unaligned
  51:./lib/ros_lib/rosserial_msgs/TopicInfo.h ****       memcpy(outbuffer + offset, this->message_type, length_message_type);
 1981              		.loc 2 51 0
 1982 0036 0A37     		adds	r7, r7, #10
 1983              	.LVL224:
  52:./lib/ros_lib/rosserial_msgs/TopicInfo.h ****       offset += length_message_type;
 1984              		.loc 2 52 0
 1985 0038 0246     		mov	r2, r0
 1986 003a E968     		ldr	r1, [r5, #12]
  49:./lib/ros_lib/rosserial_msgs/TopicInfo.h ****       memcpy(outbuffer + offset, &length_message_type, sizeof(uint32_t));
 1987              		.loc 2 49 0
 1988 003c 0646     		mov	r6, r0
 1989              	.LVL225:
  52:./lib/ros_lib/rosserial_msgs/TopicInfo.h ****       offset += length_message_type;
 1990              		.loc 2 52 0
 1991 003e E019     		adds	r0, r4, r7
 1992              	.LVL226:
 1993 0040 FFF7FEFF 		bl	memcpy
 1994              	.LVL227:
  54:./lib/ros_lib/rosserial_msgs/TopicInfo.h ****       memcpy(outbuffer + offset, &length_md5sum, sizeof(uint32_t));
 1995              		.loc 2 54 0
 1996 0044 2869     		ldr	r0, [r5, #16]
 1997 0046 FFF7FEFF 		bl	strlen
 1998              	.LVL228:
  53:./lib/ros_lib/rosserial_msgs/TopicInfo.h ****       uint32_t length_md5sum = strlen(this->md5sum);
 1999              		.loc 2 53 0
 2000 004a 3E44     		add	r6, r6, r7
 2001              	.LVL229:
  54:./lib/ros_lib/rosserial_msgs/TopicInfo.h ****       memcpy(outbuffer + offset, &length_md5sum, sizeof(uint32_t));
 2002              		.loc 2 54 0
 2003 004c 0746     		mov	r7, r0
 2004              	.LVL230:
  55:./lib/ros_lib/rosserial_msgs/TopicInfo.h ****       offset += 4;
 2005              		.loc 2 55 0
 2006 004e A051     		str	r0, [r4, r6]	@ unaligned
 2007              	.LVL231:
  56:./lib/ros_lib/rosserial_msgs/TopicInfo.h ****       memcpy(outbuffer + offset, this->md5sum, length_md5sum);
 2008              		.loc 2 56 0
 2009 0050 0436     		adds	r6, r6, #4
 2010              	.LVL232:
  57:./lib/ros_lib/rosserial_msgs/TopicInfo.h ****       offset += length_md5sum;
 2011              		.loc 2 57 0
 2012 0052 0246     		mov	r2, r0
 2013 0054 2969     		ldr	r1, [r5, #16]
 2014 0056 A019     		adds	r0, r4, r6
 2015              	.LVL233:
 2016 0058 FFF7FEFF 		bl	memcpy
 2017              	.LVL234:
  63:./lib/ros_lib/rosserial_msgs/TopicInfo.h ****       *(outbuffer + offset + 0) = (u_buffer_size.base >> (8 * 0)) & 0xFF;
 2018              		.loc 2 63 0
 2019 005c 6B69     		ldr	r3, [r5, #20]
  58:./lib/ros_lib/rosserial_msgs/TopicInfo.h ****       union {
 2020              		.loc 2 58 0
 2021 005e 3E44     		add	r6, r6, r7
 2022              	.LVL235:
  64:./lib/ros_lib/rosserial_msgs/TopicInfo.h ****       *(outbuffer + offset + 1) = (u_buffer_size.base >> (8 * 1)) & 0xFF;
 2023              		.loc 2 64 0
 2024 0060 A355     		strb	r3, [r4, r6]
  65:./lib/ros_lib/rosserial_msgs/TopicInfo.h ****       *(outbuffer + offset + 2) = (u_buffer_size.base >> (8 * 2)) & 0xFF;
 2025              		.loc 2 65 0
 2026 0062 1A0A     		lsrs	r2, r3, #8
 2027 0064 3444     		add	r4, r4, r6
 2028              	.LVL236:
 2029 0066 6270     		strb	r2, [r4, #1]
  66:./lib/ros_lib/rosserial_msgs/TopicInfo.h ****       *(outbuffer + offset + 3) = (u_buffer_size.base >> (8 * 3)) & 0xFF;
 2030              		.loc 2 66 0
 2031 0068 1A0C     		lsrs	r2, r3, #16
  67:./lib/ros_lib/rosserial_msgs/TopicInfo.h ****       offset += sizeof(this->buffer_size);
 2032              		.loc 2 67 0
 2033 006a 1B0E     		lsrs	r3, r3, #24
 2034              	.LVL237:
  66:./lib/ros_lib/rosserial_msgs/TopicInfo.h ****       *(outbuffer + offset + 3) = (u_buffer_size.base >> (8 * 3)) & 0xFF;
 2035              		.loc 2 66 0
 2036 006c A270     		strb	r2, [r4, #2]
  67:./lib/ros_lib/rosserial_msgs/TopicInfo.h ****       offset += sizeof(this->buffer_size);
 2037              		.loc 2 67 0
 2038 006e E370     		strb	r3, [r4, #3]
 2039              	.LVL238:
  70:./lib/ros_lib/rosserial_msgs/TopicInfo.h **** 
 2040              		.loc 2 70 0
 2041 0070 301D     		adds	r0, r6, #4
 2042              	.LVL239:
 2043 0072 BDE8F081 		pop	{r4, r5, r6, r7, r8, pc}
 2044              		.cfi_endproc
 2045              	.LFE1388:
 2046              		.cantunwind
 2047              		.fnend
 2049              		.section	.text._ZN14rosserial_msgs20RequestParamResponse11deserializeEPh,"axG",%progbits,_ZN14ross
 2050              		.align	1
 2051              		.weak	_ZN14rosserial_msgs20RequestParamResponse11deserializeEPh
 2052              		.syntax unified
 2053              		.thumb
 2054              		.thumb_func
 2055              		.fpu softvfp
 2057              	_ZN14rosserial_msgs20RequestParamResponse11deserializeEPh:
 2058              		.fnstart
 2059              	.LFB1410:
 123:./lib/ros_lib/rosserial_msgs/RequestParam.h ****     {
 2060              		.loc 4 123 0
 2061              		.cfi_startproc
 2062              		@ args = 0, pretend = 0, frame = 0
 2063              		@ frame_needed = 0, uses_anonymous_args = 0
 2064              	.LVL240:
 2065 0000 F8B5     		push	{r3, r4, r5, r6, r7, lr}
 2066              	.LCFI11:
 2067              		.cfi_def_cfa_offset 24
 2068              		.cfi_offset 3, -24
 2069              		.cfi_offset 4, -20
 2070              		.cfi_offset 5, -16
 2071              		.cfi_offset 6, -12
 2072              		.cfi_offset 7, -8
 2073              		.cfi_offset 14, -4
 126:./lib/ros_lib/rosserial_msgs/RequestParam.h ****       if(ints_lengthT > ints_length)
 2074              		.loc 4 126 0
 2075 0002 0E78     		ldrb	r6, [r1]	@ zero_extendqisi2
 2076              	.LVL241:
 127:./lib/ros_lib/rosserial_msgs/RequestParam.h ****         this->ints = (int32_t*)realloc(this->ints, ints_lengthT * sizeof(int32_t));
 2077              		.loc 4 127 0
 2078 0004 0379     		ldrb	r3, [r0, #4]	@ zero_extendqisi2
 123:./lib/ros_lib/rosserial_msgs/RequestParam.h ****     {
 2079              		.loc 4 123 0
 2080 0006 0446     		mov	r4, r0
 127:./lib/ros_lib/rosserial_msgs/RequestParam.h ****         this->ints = (int32_t*)realloc(this->ints, ints_lengthT * sizeof(int32_t));
 2081              		.loc 4 127 0
 2082 0008 9E42     		cmp	r6, r3
 123:./lib/ros_lib/rosserial_msgs/RequestParam.h ****     {
 2083              		.loc 4 123 0
 2084 000a 0D46     		mov	r5, r1
 127:./lib/ros_lib/rosserial_msgs/RequestParam.h ****         this->ints = (int32_t*)realloc(this->ints, ints_lengthT * sizeof(int32_t));
 2085              		.loc 4 127 0
 2086 000c 04DD     		ble	.L105
 128:./lib/ros_lib/rosserial_msgs/RequestParam.h ****       offset += 3;
 2087              		.loc 4 128 0
 2088 000e B100     		lsls	r1, r6, #2
 2089              	.LVL242:
 2090 0010 C068     		ldr	r0, [r0, #12]
 2091              	.LVL243:
 2092 0012 FFF7FEFF 		bl	realloc
 2093              	.LVL244:
 2094 0016 E060     		str	r0, [r4, #12]
 2095              	.L105:
 2096              	.LVL245:
 130:./lib/ros_lib/rosserial_msgs/RequestParam.h ****       for( uint8_t i = 0; i < ints_length; i++){
 2097              		.loc 4 130 0
 2098 0018 0021     		movs	r1, #0
 2099 001a 2671     		strb	r6, [r4, #4]
 2100              	.LVL246:
 2101 001c 2A1D     		adds	r2, r5, #4
 2102              	.LVL247:
 2103              	.L107:
 2104              	.LBB214:
 131:./lib/ros_lib/rosserial_msgs/RequestParam.h ****       union {
 2105              		.loc 4 131 0 discriminator 3
 2106 001e 2379     		ldrb	r3, [r4, #4]	@ zero_extendqisi2
 2107 0020 481C     		adds	r0, r1, #1
 2108 0022 C9B2     		uxtb	r1, r1
 2109 0024 9942     		cmp	r1, r3
 2110 0026 A2EB0506 		sub	r6, r2, r5
 2111              	.LVL248:
 2112 002a 02F10402 		add	r2, r2, #4
 2113 002e 13DA     		bge	.L106
 2114              	.LVL249:
 2115              	.LBB215:
 139:./lib/ros_lib/rosserial_msgs/RequestParam.h ****       u_st_ints.base |= ((uint32_t) (*(inbuffer + offset + 3))) << (8 * 3);
 2116              		.loc 4 139 0 discriminator 2
 2117 0030 12F8023C 		ldrb	r3, [r2, #-2]	@ zero_extendqisi2
 138:./lib/ros_lib/rosserial_msgs/RequestParam.h ****       u_st_ints.base |= ((uint32_t) (*(inbuffer + offset + 2))) << (8 * 2);
 2118              		.loc 4 138 0 discriminator 2
 2119 0034 12F8036C 		ldrb	r6, [r2, #-3]	@ zero_extendqisi2
 2120              	.LVL250:
 139:./lib/ros_lib/rosserial_msgs/RequestParam.h ****       u_st_ints.base |= ((uint32_t) (*(inbuffer + offset + 3))) << (8 * 3);
 2121              		.loc 4 139 0 discriminator 2
 2122 0038 1B04     		lsls	r3, r3, #16
 2123 003a 43EA0623 		orr	r3, r3, r6, lsl #8
 137:./lib/ros_lib/rosserial_msgs/RequestParam.h ****       u_st_ints.base |= ((uint32_t) (*(inbuffer + offset + 1))) << (8 * 1);
 2124              		.loc 4 137 0 discriminator 2
 2125 003e 12F8046C 		ldrb	r6, [r2, #-4]	@ zero_extendqisi2
 139:./lib/ros_lib/rosserial_msgs/RequestParam.h ****       u_st_ints.base |= ((uint32_t) (*(inbuffer + offset + 3))) << (8 * 3);
 2126              		.loc 4 139 0 discriminator 2
 2127 0042 3343     		orrs	r3, r3, r6
 140:./lib/ros_lib/rosserial_msgs/RequestParam.h ****       this->st_ints = u_st_ints.real;
 2128              		.loc 4 140 0 discriminator 2
 2129 0044 12F8016C 		ldrb	r6, [r2, #-1]	@ zero_extendqisi2
 2130 0048 43EA0663 		orr	r3, r3, r6, lsl #24
 2131              	.LVL251:
 143:./lib/ros_lib/rosserial_msgs/RequestParam.h ****       }
 2132              		.loc 4 143 0 discriminator 2
 2133 004c E668     		ldr	r6, [r4, #12]
 141:./lib/ros_lib/rosserial_msgs/RequestParam.h ****       offset += sizeof(this->st_ints);
 2134              		.loc 4 141 0 discriminator 2
 2135 004e A360     		str	r3, [r4, #8]
 2136              	.LVL252:
 143:./lib/ros_lib/rosserial_msgs/RequestParam.h ****       }
 2137              		.loc 4 143 0 discriminator 2
 2138 0050 46F82130 		str	r3, [r6, r1, lsl #2]	@ unaligned
 2139              	.LVL253:
 2140              	.LBE215:
 131:./lib/ros_lib/rosserial_msgs/RequestParam.h ****       union {
 2141              		.loc 4 131 0 discriminator 2
 2142 0054 0146     		mov	r1, r0
 2143 0056 E2E7     		b	.L107
 2144              	.LVL254:
 2145              	.L106:
 2146              	.LBE214:
 145:./lib/ros_lib/rosserial_msgs/RequestParam.h ****       if(floats_lengthT > floats_length)
 2147              		.loc 4 145 0
 2148 0058 AF5D     		ldrb	r7, [r5, r6]	@ zero_extendqisi2
 2149              	.LVL255:
 146:./lib/ros_lib/rosserial_msgs/RequestParam.h ****         this->floats = (float*)realloc(this->floats, floats_lengthT * sizeof(float));
 2150              		.loc 4 146 0
 2151 005a 237C     		ldrb	r3, [r4, #16]	@ zero_extendqisi2
 2152 005c 9F42     		cmp	r7, r3
 2153 005e 04DD     		ble	.L108
 147:./lib/ros_lib/rosserial_msgs/RequestParam.h ****       offset += 3;
 2154              		.loc 4 147 0
 2155 0060 B900     		lsls	r1, r7, #2
 2156 0062 A069     		ldr	r0, [r4, #24]
 2157 0064 FFF7FEFF 		bl	realloc
 2158              	.LVL256:
 2159 0068 A061     		str	r0, [r4, #24]
 2160              	.L108:
 2161              	.LVL257:
 149:./lib/ros_lib/rosserial_msgs/RequestParam.h ****       for( uint8_t i = 0; i < floats_length; i++){
 2162              		.loc 4 149 0
 2163 006a 0022     		movs	r2, #0
 148:./lib/ros_lib/rosserial_msgs/RequestParam.h ****       floats_length = floats_lengthT;
 2164              		.loc 4 148 0
 2165 006c 331D     		adds	r3, r6, #4
 2166              	.LVL258:
 149:./lib/ros_lib/rosserial_msgs/RequestParam.h ****       for( uint8_t i = 0; i < floats_length; i++){
 2167              		.loc 4 149 0
 2168 006e 2774     		strb	r7, [r4, #16]
 2169              	.LVL259:
 2170 0070 2B44     		add	r3, r3, r5
 2171              	.LVL260:
 2172              	.L110:
 2173              	.LBB216:
 150:./lib/ros_lib/rosserial_msgs/RequestParam.h ****       union {
 2174              		.loc 4 150 0 discriminator 3
 2175 0072 D1B2     		uxtb	r1, r2
 2176 0074 501C     		adds	r0, r2, #1
 2177 0076 227C     		ldrb	r2, [r4, #16]	@ zero_extendqisi2
 2178 0078 5E1B     		subs	r6, r3, r5
 2179              	.LVL261:
 2180 007a 9142     		cmp	r1, r2
 2181 007c 03F10403 		add	r3, r3, #4
 2182 0080 13DA     		bge	.L109
 2183              	.LVL262:
 2184              	.LBB217:
 158:./lib/ros_lib/rosserial_msgs/RequestParam.h ****       u_st_floats.base |= ((uint32_t) (*(inbuffer + offset + 3))) << (8 * 3);
 2185              		.loc 4 158 0 discriminator 2
 2186 0082 13F8022C 		ldrb	r2, [r3, #-2]	@ zero_extendqisi2
 2187              	.LVL263:
 157:./lib/ros_lib/rosserial_msgs/RequestParam.h ****       u_st_floats.base |= ((uint32_t) (*(inbuffer + offset + 2))) << (8 * 2);
 2188              		.loc 4 157 0 discriminator 2
 2189 0086 13F8036C 		ldrb	r6, [r3, #-3]	@ zero_extendqisi2
 2190              	.LVL264:
 158:./lib/ros_lib/rosserial_msgs/RequestParam.h ****       u_st_floats.base |= ((uint32_t) (*(inbuffer + offset + 3))) << (8 * 3);
 2191              		.loc 4 158 0 discriminator 2
 2192 008a 1204     		lsls	r2, r2, #16
 2193              	.LVL265:
 2194 008c 42EA0622 		orr	r2, r2, r6, lsl #8
 156:./lib/ros_lib/rosserial_msgs/RequestParam.h ****       u_st_floats.base |= ((uint32_t) (*(inbuffer + offset + 1))) << (8 * 1);
 2195              		.loc 4 156 0 discriminator 2
 2196 0090 13F8046C 		ldrb	r6, [r3, #-4]	@ zero_extendqisi2
 2197              	.LVL266:
 158:./lib/ros_lib/rosserial_msgs/RequestParam.h ****       u_st_floats.base |= ((uint32_t) (*(inbuffer + offset + 3))) << (8 * 3);
 2198              		.loc 4 158 0 discriminator 2
 2199 0094 3243     		orrs	r2, r2, r6
 159:./lib/ros_lib/rosserial_msgs/RequestParam.h ****       this->st_floats = u_st_floats.real;
 2200              		.loc 4 159 0 discriminator 2
 2201 0096 13F8016C 		ldrb	r6, [r3, #-1]	@ zero_extendqisi2
 2202 009a 42EA0662 		orr	r2, r2, r6, lsl #24
 2203              	.LVL267:
 162:./lib/ros_lib/rosserial_msgs/RequestParam.h ****       }
 2204              		.loc 4 162 0 discriminator 2
 2205 009e A669     		ldr	r6, [r4, #24]
 160:./lib/ros_lib/rosserial_msgs/RequestParam.h ****       offset += sizeof(this->st_floats);
 2206              		.loc 4 160 0 discriminator 2
 2207 00a0 6261     		str	r2, [r4, #20]	@ float
 2208              	.LVL268:
 162:./lib/ros_lib/rosserial_msgs/RequestParam.h ****       }
 2209              		.loc 4 162 0 discriminator 2
 2210 00a2 46F82120 		str	r2, [r6, r1, lsl #2]	@ unaligned
 2211              	.LVL269:
 2212              	.LBE217:
 150:./lib/ros_lib/rosserial_msgs/RequestParam.h ****       union {
 2213              		.loc 4 150 0 discriminator 2
 2214 00a6 0246     		mov	r2, r0
 2215 00a8 E3E7     		b	.L110
 2216              	.LVL270:
 2217              	.L109:
 2218              	.LBE216:
 164:./lib/ros_lib/rosserial_msgs/RequestParam.h ****       if(strings_lengthT > strings_length)
 2219              		.loc 4 164 0
 2220 00aa AF5D     		ldrb	r7, [r5, r6]	@ zero_extendqisi2
 2221              	.LVL271:
 165:./lib/ros_lib/rosserial_msgs/RequestParam.h ****         this->strings = (char**)realloc(this->strings, strings_lengthT * sizeof(char*));
 2222              		.loc 4 165 0
 2223 00ac 237F     		ldrb	r3, [r4, #28]	@ zero_extendqisi2
 2224 00ae 9F42     		cmp	r7, r3
 2225 00b0 04DD     		ble	.L111
 166:./lib/ros_lib/rosserial_msgs/RequestParam.h ****       offset += 3;
 2226              		.loc 4 166 0
 2227 00b2 B900     		lsls	r1, r7, #2
 2228 00b4 606A     		ldr	r0, [r4, #36]
 2229 00b6 FFF7FEFF 		bl	realloc
 2230              	.LVL272:
 2231 00ba 6062     		str	r0, [r4, #36]
 2232              	.L111:
 168:./lib/ros_lib/rosserial_msgs/RequestParam.h ****       for( uint8_t i = 0; i < strings_length; i++){
 2233              		.loc 4 168 0
 2234 00bc 0021     		movs	r1, #0
 2235 00be 2777     		strb	r7, [r4, #28]
 2236              	.LBB218:
 2237              	.LBB219:
 176:./lib/ros_lib/rosserial_msgs/RequestParam.h ****       this->st_strings = (char *)(inbuffer + offset-1);
 2238              		.loc 4 176 0
 2239 00c0 0F46     		mov	r7, r1
 2240              	.LVL273:
 2241              	.LBE219:
 2242              	.LBE218:
 167:./lib/ros_lib/rosserial_msgs/RequestParam.h ****       strings_length = strings_lengthT;
 2243              		.loc 4 167 0
 2244 00c2 301D     		adds	r0, r6, #4
 2245              	.LVL274:
 2246              	.L115:
 2247              	.LBB222:
 169:./lib/ros_lib/rosserial_msgs/RequestParam.h ****       uint32_t length_st_strings;
 2248              		.loc 4 169 0 discriminator 1
 2249 00c4 237F     		ldrb	r3, [r4, #28]	@ zero_extendqisi2
 2250 00c6 CEB2     		uxtb	r6, r1
 2251 00c8 9E42     		cmp	r6, r3
 2252 00ca 19DA     		bge	.L104
 2253              	.LBB221:
 171:./lib/ros_lib/rosserial_msgs/RequestParam.h ****       offset += 4;
 2254              		.loc 4 171 0
 2255 00cc 55F800E0 		ldr	lr, [r5, r0]	@ unaligned
 2256              	.LVL275:
 172:./lib/ros_lib/rosserial_msgs/RequestParam.h ****       for(unsigned int k= offset; k< offset+length_st_strings; ++k){
 2257              		.loc 4 172 0
 2258 00d0 031D     		adds	r3, r0, #4
 2259              	.LVL276:
 2260 00d2 EA18     		adds	r2, r5, r3
 2261              	.LBB220:
 173:./lib/ros_lib/rosserial_msgs/RequestParam.h ****           inbuffer[k-1]=inbuffer[k];
 2262              		.loc 4 173 0
 2263 00d4 0EEB0300 		add	r0, lr, r3
 2264              	.LVL277:
 2265              	.L114:
 173:./lib/ros_lib/rosserial_msgs/RequestParam.h ****           inbuffer[k-1]=inbuffer[k];
 2266              		.loc 4 173 0 is_stmt 0 discriminator 3
 2267 00d8 A2EB050E 		sub	lr, r2, r5
 2268              	.LVL278:
 2269 00dc 7045     		cmp	r0, lr
 2270 00de 04D9     		bls	.L113
 174:./lib/ros_lib/rosserial_msgs/RequestParam.h ****       }
 2271              		.loc 4 174 0 is_stmt 1 discriminator 2
 2272 00e0 12F801EB 		ldrb	lr, [r2], #1	@ zero_extendqisi2
 2273              	.LVL279:
 2274 00e4 02F802EC 		strb	lr, [r2, #-2]
 2275              	.LVL280:
 173:./lib/ros_lib/rosserial_msgs/RequestParam.h ****           inbuffer[k-1]=inbuffer[k];
 2276              		.loc 4 173 0 discriminator 2
 2277 00e8 F6E7     		b	.L114
 2278              	.LVL281:
 2279              	.L113:
 2280              	.LBE220:
 176:./lib/ros_lib/rosserial_msgs/RequestParam.h ****       this->st_strings = (char *)(inbuffer + offset-1);
 2281              		.loc 4 176 0 discriminator 2
 2282 00ea 2A18     		adds	r2, r5, r0
 2283 00ec 02F8017C 		strb	r7, [r2, #-1]
 177:./lib/ros_lib/rosserial_msgs/RequestParam.h ****       offset += length_st_strings;
 2284              		.loc 4 177 0 discriminator 2
 2285 00f0 013B     		subs	r3, r3, #1
 2286              	.LVL282:
 179:./lib/ros_lib/rosserial_msgs/RequestParam.h ****       }
 2287              		.loc 4 179 0 discriminator 2
 2288 00f2 626A     		ldr	r2, [r4, #36]
 177:./lib/ros_lib/rosserial_msgs/RequestParam.h ****       offset += length_st_strings;
 2289              		.loc 4 177 0 discriminator 2
 2290 00f4 2B44     		add	r3, r3, r5
 2291              	.LVL283:
 2292 00f6 2362     		str	r3, [r4, #32]
 2293 00f8 0131     		adds	r1, r1, #1
 2294              	.LVL284:
 179:./lib/ros_lib/rosserial_msgs/RequestParam.h ****       }
 2295              		.loc 4 179 0 discriminator 2
 2296 00fa 42F82630 		str	r3, [r2, r6, lsl #2]	@ unaligned
 2297              	.LVL285:
 2298              	.LBE221:
 169:./lib/ros_lib/rosserial_msgs/RequestParam.h ****       uint32_t length_st_strings;
 2299              		.loc 4 169 0 discriminator 2
 2300 00fe E1E7     		b	.L115
 2301              	.LVL286:
 2302              	.L104:
 2303              	.LBE222:
 182:./lib/ros_lib/rosserial_msgs/RequestParam.h **** 
 2304              		.loc 4 182 0
 2305 0100 F8BD     		pop	{r3, r4, r5, r6, r7, pc}
 2306              		.cfi_endproc
 2307              	.LFE1410:
 2308              		.cantunwind
 2309              		.fnend
 2311              		.section	.text._ZN8std_msgs16MultiArrayLayout11deserializeEPh,"axG",%progbits,_ZN8std_msgs16MultiA
 2312              		.align	1
 2313              		.weak	_ZN8std_msgs16MultiArrayLayout11deserializeEPh
 2314              		.syntax unified
 2315              		.thumb
 2316              		.thumb_func
 2317              		.fpu softvfp
 2319              	_ZN8std_msgs16MultiArrayLayout11deserializeEPh:
 2320              		.fnstart
 2321              	.LFB1496:
  45:./lib/ros_lib/std_msgs/MultiArrayLayout.h ****     {
 2322              		.loc 6 45 0
 2323              		.cfi_startproc
 2324              		@ args = 0, pretend = 0, frame = 0
 2325              		@ frame_needed = 0, uses_anonymous_args = 0
 2326              	.LVL287:
 2327 0000 2DE9F047 		push	{r4, r5, r6, r7, r8, r9, r10, lr}
 2328              	.LCFI12:
 2329              		.cfi_def_cfa_offset 32
 2330              		.cfi_offset 4, -32
 2331              		.cfi_offset 5, -28
 2332              		.cfi_offset 6, -24
 2333              		.cfi_offset 7, -20
 2334              		.cfi_offset 8, -16
 2335              		.cfi_offset 9, -12
 2336              		.cfi_offset 10, -8
 2337              		.cfi_offset 14, -4
  48:./lib/ros_lib/std_msgs/MultiArrayLayout.h ****       if(dim_lengthT > dim_length)
 2338              		.loc 6 48 0
 2339 0004 0D78     		ldrb	r5, [r1]	@ zero_extendqisi2
 2340              	.LVL288:
  49:./lib/ros_lib/std_msgs/MultiArrayLayout.h ****         this->dim = (std_msgs::MultiArrayDimension*)realloc(this->dim, dim_lengthT * sizeof(std_msg
 2341              		.loc 6 49 0
 2342 0006 0379     		ldrb	r3, [r0, #4]	@ zero_extendqisi2
  45:./lib/ros_lib/std_msgs/MultiArrayLayout.h ****     {
 2343              		.loc 6 45 0
 2344 0008 0446     		mov	r4, r0
  49:./lib/ros_lib/std_msgs/MultiArrayLayout.h ****         this->dim = (std_msgs::MultiArrayDimension*)realloc(this->dim, dim_lengthT * sizeof(std_msg
 2345              		.loc 6 49 0
 2346 000a 9D42     		cmp	r5, r3
  45:./lib/ros_lib/std_msgs/MultiArrayLayout.h ****     {
 2347              		.loc 6 45 0
 2348 000c 0F46     		mov	r7, r1
  49:./lib/ros_lib/std_msgs/MultiArrayLayout.h ****         this->dim = (std_msgs::MultiArrayDimension*)realloc(this->dim, dim_lengthT * sizeof(std_msg
 2349              		.loc 6 49 0
 2350 000e 04DD     		ble	.L118
  50:./lib/ros_lib/std_msgs/MultiArrayLayout.h ****       offset += 3;
 2351              		.loc 6 50 0
 2352 0010 2901     		lsls	r1, r5, #4
 2353              	.LVL289:
 2354 0012 8069     		ldr	r0, [r0, #24]
 2355              	.LVL290:
 2356 0014 FFF7FEFF 		bl	realloc
 2357              	.LVL291:
 2358 0018 A061     		str	r0, [r4, #24]
 2359              	.L118:
 2360              	.LVL292:
  52:./lib/ros_lib/std_msgs/MultiArrayLayout.h ****       for( uint8_t i = 0; i < dim_length; i++){
 2361              		.loc 6 52 0
 2362 001a 0023     		movs	r3, #0
  51:./lib/ros_lib/std_msgs/MultiArrayLayout.h ****       dim_length = dim_lengthT;
 2363              		.loc 6 51 0
 2364 001c 0426     		movs	r6, #4
  52:./lib/ros_lib/std_msgs/MultiArrayLayout.h ****       for( uint8_t i = 0; i < dim_length; i++){
 2365              		.loc 6 52 0
 2366 001e 2571     		strb	r5, [r4, #4]
 2367              	.LVL293:
 2368              	.LBB223:
  54:./lib/ros_lib/std_msgs/MultiArrayLayout.h ****         memcpy( &(this->dim[i]), &(this->st_dim), sizeof(std_msgs::MultiArrayDimension));
 2369              		.loc 6 54 0
 2370 0020 04F10808 		add	r8, r4, #8
  55:./lib/ros_lib/std_msgs/MultiArrayLayout.h ****       }
 2371              		.loc 6 55 0
 2372 0024 04F1180A 		add	r10, r4, #24
 2373              	.LVL294:
 2374              	.L121:
  53:./lib/ros_lib/std_msgs/MultiArrayLayout.h ****       offset += this->st_dim.deserialize(inbuffer + offset);
 2375              		.loc 6 53 0 discriminator 3
 2376 0028 DDB2     		uxtb	r5, r3
 2377 002a 03F10109 		add	r9, r3, #1
 2378 002e 2379     		ldrb	r3, [r4, #4]	@ zero_extendqisi2
 2379              	.LVL295:
 2380 0030 B919     		adds	r1, r7, r6
 2381 0032 9D42     		cmp	r5, r3
 2382 0034 0FDA     		bge	.L119
  54:./lib/ros_lib/std_msgs/MultiArrayLayout.h ****         memcpy( &(this->dim[i]), &(this->st_dim), sizeof(std_msgs::MultiArrayDimension));
 2383              		.loc 6 54 0 discriminator 2
 2384 0036 4046     		mov	r0, r8
 2385 0038 FFF7FEFF 		bl	_ZN8std_msgs19MultiArrayDimension11deserializeEPh
 2386              	.LVL296:
  55:./lib/ros_lib/std_msgs/MultiArrayLayout.h ****       }
 2387              		.loc 6 55 0 discriminator 2
 2388 003c 4246     		mov	r2, r8
 2389 003e A369     		ldr	r3, [r4, #24]
  54:./lib/ros_lib/std_msgs/MultiArrayLayout.h ****         memcpy( &(this->dim[i]), &(this->st_dim), sizeof(std_msgs::MultiArrayDimension));
 2390              		.loc 6 54 0 discriminator 2
 2391 0040 0644     		add	r6, r6, r0
 2392              	.LVL297:
  55:./lib/ros_lib/std_msgs/MultiArrayLayout.h ****       }
 2393              		.loc 6 55 0 discriminator 2
 2394 0042 03EB0513 		add	r3, r3, r5, lsl #4
 2395              	.L120:
 2396 0046 52F8041B 		ldr	r1, [r2], #4	@ unaligned
 2397 004a 5245     		cmp	r2, r10
 2398 004c 43F8041B 		str	r1, [r3], #4	@ unaligned
 2399 0050 F9D1     		bne	.L120
 2400              	.LVL298:
  53:./lib/ros_lib/std_msgs/MultiArrayLayout.h ****       offset += this->st_dim.deserialize(inbuffer + offset);
 2401              		.loc 6 53 0 discriminator 2
 2402 0052 4B46     		mov	r3, r9
 2403 0054 E8E7     		b	.L121
 2404              	.LVL299:
 2405              	.L119:
 2406              	.LBE223:
  57:./lib/ros_lib/std_msgs/MultiArrayLayout.h ****       this->data_offset |= ((uint32_t) (*(inbuffer + offset + 1))) << (8 * 1);
 2407              		.loc 6 57 0
 2408 0056 BB5D     		ldrb	r3, [r7, r6]	@ zero_extendqisi2
  63:./lib/ros_lib/std_msgs/MultiArrayLayout.h **** 
 2409              		.loc 6 63 0
 2410 0058 301D     		adds	r0, r6, #4
  57:./lib/ros_lib/std_msgs/MultiArrayLayout.h ****       this->data_offset |= ((uint32_t) (*(inbuffer + offset + 1))) << (8 * 1);
 2411              		.loc 6 57 0
 2412 005a E361     		str	r3, [r4, #28]
  58:./lib/ros_lib/std_msgs/MultiArrayLayout.h ****       this->data_offset |= ((uint32_t) (*(inbuffer + offset + 2))) << (8 * 2);
 2413              		.loc 6 58 0
 2414 005c 4A78     		ldrb	r2, [r1, #1]	@ zero_extendqisi2
 2415 005e 43EA0223 		orr	r3, r3, r2, lsl #8
 2416 0062 E361     		str	r3, [r4, #28]
  59:./lib/ros_lib/std_msgs/MultiArrayLayout.h ****       this->data_offset |= ((uint32_t) (*(inbuffer + offset + 3))) << (8 * 3);
 2417              		.loc 6 59 0
 2418 0064 8A78     		ldrb	r2, [r1, #2]	@ zero_extendqisi2
 2419 0066 43EA0243 		orr	r3, r3, r2, lsl #16
 2420 006a E361     		str	r3, [r4, #28]
  60:./lib/ros_lib/std_msgs/MultiArrayLayout.h ****       offset += sizeof(this->data_offset);
 2421              		.loc 6 60 0
 2422 006c CA78     		ldrb	r2, [r1, #3]	@ zero_extendqisi2
 2423 006e 43EA0263 		orr	r3, r3, r2, lsl #24
 2424 0072 E361     		str	r3, [r4, #28]
 2425              	.LVL300:
  63:./lib/ros_lib/std_msgs/MultiArrayLayout.h **** 
 2426              		.loc 6 63 0
 2427 0074 BDE8F087 		pop	{r4, r5, r6, r7, r8, r9, r10, pc}
 2428              		.cfi_endproc
 2429              	.LFE1496:
 2430              		.cantunwind
 2431              		.fnend
 2433              		.section	.text._ZN8std_msgs17Float32MultiArray11deserializeEPh,"axG",%progbits,_ZN8std_msgs17Float
 2434              		.align	1
 2435              		.weak	_ZN8std_msgs17Float32MultiArray11deserializeEPh
 2436              		.syntax unified
 2437              		.thumb
 2438              		.thumb_func
 2439              		.fpu softvfp
 2441              	_ZN8std_msgs17Float32MultiArray11deserializeEPh:
 2442              		.fnstart
 2443              	.LFB1503:
  50:./lib/ros_lib/std_msgs/Float32MultiArray.h ****     {
 2444              		.loc 7 50 0
 2445              		.cfi_startproc
 2446              		@ args = 0, pretend = 0, frame = 0
 2447              		@ frame_needed = 0, uses_anonymous_args = 0
 2448              	.LVL301:
 2449 0000 F8B5     		push	{r3, r4, r5, r6, r7, lr}
 2450              	.LCFI13:
 2451              		.cfi_def_cfa_offset 24
 2452              		.cfi_offset 3, -24
 2453              		.cfi_offset 4, -20
 2454              		.cfi_offset 5, -16
 2455              		.cfi_offset 6, -12
 2456              		.cfi_offset 7, -8
 2457              		.cfi_offset 14, -4
  50:./lib/ros_lib/std_msgs/Float32MultiArray.h ****     {
 2458              		.loc 7 50 0
 2459 0002 0446     		mov	r4, r0
  53:./lib/ros_lib/std_msgs/Float32MultiArray.h ****       uint8_t data_lengthT = *(inbuffer + offset++);
 2460              		.loc 7 53 0
 2461 0004 0430     		adds	r0, r0, #4
 2462              	.LVL302:
  50:./lib/ros_lib/std_msgs/Float32MultiArray.h ****     {
 2463              		.loc 7 50 0
 2464 0006 0D46     		mov	r5, r1
  53:./lib/ros_lib/std_msgs/Float32MultiArray.h ****       uint8_t data_lengthT = *(inbuffer + offset++);
 2465              		.loc 7 53 0
 2466 0008 FFF7FEFF 		bl	_ZN8std_msgs16MultiArrayLayout11deserializeEPh
 2467              	.LVL303:
  55:./lib/ros_lib/std_msgs/Float32MultiArray.h ****         this->data = (float*)realloc(this->data, data_lengthT * sizeof(float));
 2468              		.loc 7 55 0
 2469 000c 94F82430 		ldrb	r3, [r4, #36]	@ zero_extendqisi2
  54:./lib/ros_lib/std_msgs/Float32MultiArray.h ****       if(data_lengthT > data_length)
 2470              		.loc 7 54 0
 2471 0010 2F5C     		ldrb	r7, [r5, r0]	@ zero_extendqisi2
  53:./lib/ros_lib/std_msgs/Float32MultiArray.h ****       uint8_t data_lengthT = *(inbuffer + offset++);
 2472              		.loc 7 53 0
 2473 0012 0646     		mov	r6, r0
 2474              	.LVL304:
  55:./lib/ros_lib/std_msgs/Float32MultiArray.h ****         this->data = (float*)realloc(this->data, data_lengthT * sizeof(float));
 2475              		.loc 7 55 0
 2476 0014 9F42     		cmp	r7, r3
 2477 0016 04DD     		ble	.L124
  56:./lib/ros_lib/std_msgs/Float32MultiArray.h ****       offset += 3;
 2478              		.loc 7 56 0
 2479 0018 B900     		lsls	r1, r7, #2
 2480 001a E06A     		ldr	r0, [r4, #44]
 2481              	.LVL305:
 2482 001c FFF7FEFF 		bl	realloc
 2483              	.LVL306:
 2484 0020 E062     		str	r0, [r4, #44]
 2485              	.L124:
 2486              	.LVL307:
  58:./lib/ros_lib/std_msgs/Float32MultiArray.h ****       for( uint8_t i = 0; i < data_length; i++){
 2487              		.loc 7 58 0
 2488 0022 0022     		movs	r2, #0
  57:./lib/ros_lib/std_msgs/Float32MultiArray.h ****       data_length = data_lengthT;
 2489              		.loc 7 57 0
 2490 0024 331D     		adds	r3, r6, #4
 2491              	.LVL308:
  58:./lib/ros_lib/std_msgs/Float32MultiArray.h ****       for( uint8_t i = 0; i < data_length; i++){
 2492              		.loc 7 58 0
 2493 0026 84F82470 		strb	r7, [r4, #36]
 2494              	.LVL309:
 2495 002a 2B44     		add	r3, r3, r5
 2496              	.LVL310:
 2497              	.L126:
 2498              	.LBB224:
  59:./lib/ros_lib/std_msgs/Float32MultiArray.h ****       union {
 2499              		.loc 7 59 0 discriminator 3
 2500 002c D1B2     		uxtb	r1, r2
 2501 002e 561C     		adds	r6, r2, #1
 2502 0030 94F82420 		ldrb	r2, [r4, #36]	@ zero_extendqisi2
 2503 0034 581B     		subs	r0, r3, r5
 2504              	.LVL311:
 2505 0036 9142     		cmp	r1, r2
 2506 0038 03F10403 		add	r3, r3, #4
 2507 003c 13DA     		bge	.L123
 2508              	.LVL312:
 2509              	.LBB225:
  67:./lib/ros_lib/std_msgs/Float32MultiArray.h ****       u_st_data.base |= ((uint32_t) (*(inbuffer + offset + 3))) << (8 * 3);
 2510              		.loc 7 67 0 discriminator 2
 2511 003e 13F8022C 		ldrb	r2, [r3, #-2]	@ zero_extendqisi2
 2512              	.LVL313:
  66:./lib/ros_lib/std_msgs/Float32MultiArray.h ****       u_st_data.base |= ((uint32_t) (*(inbuffer + offset + 2))) << (8 * 2);
 2513              		.loc 7 66 0 discriminator 2
 2514 0042 13F8030C 		ldrb	r0, [r3, #-3]	@ zero_extendqisi2
 2515              	.LVL314:
  67:./lib/ros_lib/std_msgs/Float32MultiArray.h ****       u_st_data.base |= ((uint32_t) (*(inbuffer + offset + 3))) << (8 * 3);
 2516              		.loc 7 67 0 discriminator 2
 2517 0046 1204     		lsls	r2, r2, #16
 2518              	.LVL315:
 2519 0048 42EA0022 		orr	r2, r2, r0, lsl #8
  65:./lib/ros_lib/std_msgs/Float32MultiArray.h ****       u_st_data.base |= ((uint32_t) (*(inbuffer + offset + 1))) << (8 * 1);
 2520              		.loc 7 65 0 discriminator 2
 2521 004c 13F8040C 		ldrb	r0, [r3, #-4]	@ zero_extendqisi2
 2522              	.LVL316:
  67:./lib/ros_lib/std_msgs/Float32MultiArray.h ****       u_st_data.base |= ((uint32_t) (*(inbuffer + offset + 3))) << (8 * 3);
 2523              		.loc 7 67 0 discriminator 2
 2524 0050 0243     		orrs	r2, r2, r0
  68:./lib/ros_lib/std_msgs/Float32MultiArray.h ****       this->st_data = u_st_data.real;
 2525              		.loc 7 68 0 discriminator 2
 2526 0052 13F8010C 		ldrb	r0, [r3, #-1]	@ zero_extendqisi2
 2527 0056 42EA0062 		orr	r2, r2, r0, lsl #24
 2528              	.LVL317:
  71:./lib/ros_lib/std_msgs/Float32MultiArray.h ****       }
 2529              		.loc 7 71 0 discriminator 2
 2530 005a E06A     		ldr	r0, [r4, #44]
  69:./lib/ros_lib/std_msgs/Float32MultiArray.h ****       offset += sizeof(this->st_data);
 2531              		.loc 7 69 0 discriminator 2
 2532 005c A262     		str	r2, [r4, #40]	@ float
 2533              	.LVL318:
  71:./lib/ros_lib/std_msgs/Float32MultiArray.h ****       }
 2534              		.loc 7 71 0 discriminator 2
 2535 005e 40F82120 		str	r2, [r0, r1, lsl #2]	@ unaligned
 2536              	.LVL319:
 2537              	.LBE225:
  59:./lib/ros_lib/std_msgs/Float32MultiArray.h ****       union {
 2538              		.loc 7 59 0 discriminator 2
 2539 0062 3246     		mov	r2, r6
 2540 0064 E2E7     		b	.L126
 2541              	.LVL320:
 2542              	.L123:
 2543              	.LBE224:
  74:./lib/ros_lib/std_msgs/Float32MultiArray.h **** 
 2544              		.loc 7 74 0
 2545 0066 F8BD     		pop	{r3, r4, r5, r6, r7, pc}
 2546              		.cfi_endproc
 2547              	.LFE1503:
 2548              		.cantunwind
 2549              		.fnend
 2551              		.global	__aeabi_fcmpeq
 2552              		.global	__aeabi_f2d
 2553              		.global	__aeabi_dmul
 2554              		.global	__aeabi_ddiv
 2555              		.global	__aeabi_d2f
 2556              		.global	__aeabi_fadd
 2557              		.global	__aeabi_fmul
 2558              		.global	__aeabi_fsub
 2559              		.global	__aeabi_fdiv
 2560              		.global	__aeabi_fcmpgt
 2561              		.global	__aeabi_fcmplt
 2562              		.text
 2563              		.align	1
 2564              		.global	_Z8motor_cbRKN12roberto_msgs10MotorStateE
 2565              		.syntax unified
 2566              		.thumb
 2567              		.thumb_func
 2568              		.fpu softvfp
 2570              	_Z8motor_cbRKN12roberto_msgs10MotorStateE:
 2571              		.fnstart
 2572              	.LFB1630:
 2573              		.file 12 "src/main.cpp"
   1:src/main.cpp  **** #include <stm32f10x.h>
   2:src/main.cpp  **** 
   3:src/main.cpp  **** #include <stdio.h>
   4:src/main.cpp  **** #include <math.h>
   5:src/main.cpp  **** 
   6:src/main.cpp  **** #include "motor.h"
   7:src/main.cpp  **** #include "motorSettings.h"
   8:src/main.cpp  **** #include "led.h"
   9:src/main.cpp  **** #include "encoder.h"
  10:src/main.cpp  **** #include "stm32_time.h"
  11:src/main.cpp  **** 
  12:src/main.cpp  **** 
  13:src/main.cpp  **** #include <ros.h>
  14:src/main.cpp  **** #include <std_msgs/MultiArrayDimension.h>
  15:src/main.cpp  **** #include <std_msgs/Float32MultiArray.h>
  16:src/main.cpp  **** #include <std_msgs/Float32.h>
  17:src/main.cpp  **** #include <std_msgs/UInt8.h>
  18:src/main.cpp  **** #include <nav_msgs/Odometry.h>
  19:src/main.cpp  **** #include <sensor_msgs/Joy.h>
  20:src/main.cpp  **** #include <roberto_msgs/MotorState.h>
  21:src/main.cpp  **** #include <tf/tf.h>
  22:src/main.cpp  **** #include <tf/transform_broadcaster.h>
  23:src/main.cpp  **** #include <ros/time.h>
  24:src/main.cpp  **** 
  25:src/main.cpp  **** #define CMDMSGTIMEOUT 500 // ms
  26:src/main.cpp  **** //#define DEBUG
  27:src/main.cpp  **** 
  28:src/main.cpp  **** /* Private function prototypes -----------------------------------------------*/
  29:src/main.cpp  **** #ifdef DEBUG
  30:src/main.cpp  **** extern "C"{
  31:src/main.cpp  ****   extern void initialise_monitor_handles(void);
  32:src/main.cpp  **** }
  33:src/main.cpp  **** #else
  34:src/main.cpp  **** #define printf(...) 
  35:src/main.cpp  **** #endif
  36:src/main.cpp  **** 
  37:src/main.cpp  **** 
  38:src/main.cpp  **** 
  39:src/main.cpp  **** motor *servo_left;
  40:src/main.cpp  **** motor *servo_right;
  41:src/main.cpp  **** motor *front_right;
  42:src/main.cpp  **** motor *front_left;
  43:src/main.cpp  **** motor *rear_right;
  44:src/main.cpp  **** motor *rear_left;
  45:src/main.cpp  **** 
  46:src/main.cpp  **** float d, L;
  47:src/main.cpp  **** 
  48:src/main.cpp  **** float motorCmd[4];
  49:src/main.cpp  **** float spinAngle = 0.0;
  50:src/main.cpp  **** uint8_t currentMode = roberto_msgs::MotorState::DRIVE_MODE_PIVOT;
  51:src/main.cpp  **** uint32_t lastMsg;
  52:src/main.cpp  **** bool initialized = false;
  53:src/main.cpp  **** 
  54:src/main.cpp  **** ros::NodeHandle nh;
  55:src/main.cpp  **** 
  56:src/main.cpp  **** std_msgs::MultiArrayDimension odomDim;
  57:src/main.cpp  **** std_msgs::MultiArrayDimension debugDim;
  58:src/main.cpp  **** 
  59:src/main.cpp  **** __IO bool shuttingDown = false;
  60:src/main.cpp  **** __IO bool waitForServos = false;
  61:src/main.cpp  **** 
  62:src/main.cpp  **** bool spinningAutonomously = false;
  63:src/main.cpp  **** 
  64:src/main.cpp  **** void motor_cb( const roberto_msgs::MotorState& cmd_msg){
 2574              		.loc 12 64 0
 2575              		.cfi_startproc
 2576              		@ args = 0, pretend = 0, frame = 8
 2577              		@ frame_needed = 0, uses_anonymous_args = 0
 2578              	.LVL321:
 2579 0000 2DE9F74F 		push	{r0, r1, r2, r4, r5, r6, r7, r8, r9, r10, fp, lr}
 2580              		.save {r4, r5, r6, r7, r8, r9, r10, fp, lr}
 2581              		.pad #12
 2582              	.LCFI14:
 2583              		.cfi_def_cfa_offset 48
 2584              		.cfi_offset 4, -36
 2585              		.cfi_offset 5, -32
 2586              		.cfi_offset 6, -28
 2587              		.cfi_offset 7, -24
 2588              		.cfi_offset 8, -20
 2589              		.cfi_offset 9, -16
 2590              		.cfi_offset 10, -12
 2591              		.cfi_offset 11, -8
 2592              		.cfi_offset 14, -4
  65:src/main.cpp  ****   if(!initialized)
 2593              		.loc 12 65 0
 2594 0004 924C     		ldr	r4, .L159+16
  64:src/main.cpp  ****   if(!initialized)
 2595              		.loc 12 64 0
 2596 0006 0746     		mov	r7, r0
 2597              		.loc 12 65 0
 2598 0008 2378     		ldrb	r3, [r4]	@ zero_extendqisi2
 2599 000a 002B     		cmp	r3, #0
 2600 000c 00F0B680 		beq	.L127
 2601              	.LVL322:
 2602              	.LBB236:
 2603              	.LBB237:
  66:src/main.cpp  ****     return;
  67:src/main.cpp  ****   lastMsg = millis();
 2604              		.loc 12 67 0
 2605 0010 FFF7FEFF 		bl	millis
 2606              	.LVL323:
  68:src/main.cpp  ****   uint8_t intMode = cmd_msg.mode;
  69:src/main.cpp  ****   if(intMode == cmd_msg.DRIVE_MODE_AUTO){
  70:src/main.cpp  **** 
  71:src/main.cpp  ****   }
  72:src/main.cpp  **** 
  73:src/main.cpp  ****   if(currentMode != intMode){
 2607              		.loc 12 73 0
 2608 0014 8F4B     		ldr	r3, .L159+20
  68:src/main.cpp  ****   uint8_t intMode = cmd_msg.mode;
 2609              		.loc 12 68 0
 2610 0016 97F82880 		ldrb	r8, [r7, #40]	@ zero_extendqisi2
 2611              	.LVL324:
 2612              		.loc 12 73 0
 2613 001a 1A78     		ldrb	r2, [r3]	@ zero_extendqisi2
 2614 001c 0093     		str	r3, [sp]
 2615 001e 4245     		cmp	r2, r8
  74:src/main.cpp  ****     waitForServos = true;
 2616              		.loc 12 74 0
 2617 0020 1CBF     		itt	ne
 2618 0022 0123     		movne	r3, #1
 2619 0024 2372     		strbne	r3, [r4, #8]
 2620              	.LBB238:
  75:src/main.cpp  ****   }
  76:src/main.cpp  **** 
  77:src/main.cpp  ****   if(intMode == cmd_msg.DRIVE_MODE_PIVOT){
 2621              		.loc 12 77 0
 2622 0026 B8F1010F 		cmp	r8, #1
 2623              	.LBE238:
  67:src/main.cpp  ****   uint8_t intMode = cmd_msg.mode;
 2624              		.loc 12 67 0
 2625 002a 6060     		str	r0, [r4, #4]
 2626              	.LBB251:
 2627              		.loc 12 77 0
 2628 002c 40F0CA80 		bne	.L130
 2629              	.LVL325:
 2630              	.LBB239:
 2631              	.LBB240:
  78:src/main.cpp  ****     float speedMult[2] = {1,1};
  79:src/main.cpp  ****     float angle[2] = {0, 0};
  80:src/main.cpp  ****     if (cmd_msg.heading_angle != 0){
 2632              		.loc 12 80 0
 2633 0030 D7F81890 		ldr	r9, [r7, #24]	@ float
 2634 0034 0021     		movs	r1, #0
 2635 0036 4846     		mov	r0, r9
 2636 0038 FFF7FEFF 		bl	__aeabi_fcmpeq
 2637              	.LVL326:
 2638 003c 0028     		cmp	r0, #0
 2639 003e 40F0A480 		bne	.L155
 2640              	.LBB241:
  81:src/main.cpp  ****       float R = 0.05/sin(cmd_msg.heading_angle*M_PI/360);
 2641              		.loc 12 81 0
 2642 0042 4846     		mov	r0, r9
 2643 0044 FFF7FEFF 		bl	__aeabi_f2d
 2644              	.LVL327:
 2645 0048 7DA3     		adr	r3, .L159
 2646 004a D3E90023 		ldrd	r2, [r3]
 2647 004e FFF7FEFF 		bl	__aeabi_dmul
 2648              	.LVL328:
 2649 0052 0022     		movs	r2, #0
 2650 0054 804B     		ldr	r3, .L159+24
 2651 0056 FFF7FEFF 		bl	__aeabi_ddiv
 2652              	.LVL329:
 2653 005a FFF7FEFF 		bl	sin
 2654              	.LVL330:
 2655 005e 0246     		mov	r2, r0
 2656 0060 0B46     		mov	r3, r1
 2657 0062 79A1     		adr	r1, .L159+8
 2658 0064 D1E90001 		ldrd	r0, [r1]
 2659 0068 FFF7FEFF 		bl	__aeabi_ddiv
 2660              	.LVL331:
 2661 006c FFF7FEFF 		bl	__aeabi_d2f
 2662              	.LVL332:
  82:src/main.cpp  ****       speedMult[0] = (2*R)/(2*R - (L/2 + d));
 2663              		.loc 12 82 0
 2664 0070 0146     		mov	r1, r0
 2665 0072 0190     		str	r0, [sp, #4]
 2666 0074 FFF7FEFF 		bl	__aeabi_fadd
 2667              	.LVL333:
 2668 0078 E668     		ldr	r6, [r4, #12]	@ float
 2669 007a 0546     		mov	r5, r0
 2670 007c 4FF07C51 		mov	r1, #1056964608
 2671 0080 3046     		mov	r0, r6
 2672 0082 FFF7FEFF 		bl	__aeabi_fmul
 2673              	.LVL334:
 2674 0086 2169     		ldr	r1, [r4, #16]	@ float
 2675 0088 FFF7FEFF 		bl	__aeabi_fadd
 2676              	.LVL335:
 2677 008c 8346     		mov	fp, r0
 2678 008e 0146     		mov	r1, r0
 2679 0090 2846     		mov	r0, r5
 2680 0092 FFF7FEFF 		bl	__aeabi_fsub
 2681              	.LVL336:
 2682 0096 0146     		mov	r1, r0
 2683 0098 2846     		mov	r0, r5
 2684 009a FFF7FEFF 		bl	__aeabi_fdiv
 2685              	.LVL337:
  83:src/main.cpp  ****       speedMult[1] = (2*R)/(2*R + (L/2 + d));
 2686              		.loc 12 83 0
 2687 009e 5946     		mov	r1, fp
  82:src/main.cpp  ****       speedMult[0] = (2*R)/(2*R - (L/2 + d));
 2688              		.loc 12 82 0
 2689 00a0 8246     		mov	r10, r0
 2690              	.LVL338:
 2691              		.loc 12 83 0
 2692 00a2 2846     		mov	r0, r5
 2693              	.LVL339:
 2694 00a4 FFF7FEFF 		bl	__aeabi_fadd
 2695              	.LVL340:
 2696 00a8 0146     		mov	r1, r0
 2697 00aa 2846     		mov	r0, r5
 2698 00ac FFF7FEFF 		bl	__aeabi_fdiv
 2699              	.LVL341:
  84:src/main.cpp  ****       //angle[0] = atan(L/(B+R));   // B=L as robot is quadratic
  85:src/main.cpp  ****       angle[0] = cmd_msg.heading_angle + atan(L/(L+R));
 2700              		.loc 12 85 0
 2701 00b0 019B     		ldr	r3, [sp, #4]
 2702 00b2 3146     		mov	r1, r6
  83:src/main.cpp  ****       speedMult[1] = (2*R)/(2*R + (L/2 + d));
 2703              		.loc 12 83 0
 2704 00b4 8346     		mov	fp, r0
 2705              	.LVL342:
 2706              		.loc 12 85 0
 2707 00b6 1846     		mov	r0, r3
 2708              	.LVL343:
 2709 00b8 FFF7FEFF 		bl	__aeabi_fadd
 2710              	.LVL344:
 2711 00bc 0146     		mov	r1, r0
 2712 00be 3046     		mov	r0, r6
 2713 00c0 FFF7FEFF 		bl	__aeabi_fdiv
 2714              	.LVL345:
 2715              	.LBB242:
 2716              	.LBB243:
 2717              		.file 13 "/opt/gcc-arm/gcc-arm-none-eabi-6_2-2016q4/arm-none-eabi/include/c++/6.2.1/cmath"
   1:/opt/gcc-arm/gcc-arm-none-eabi-6_2-2016q4/arm-none-eabi/include/c++/6.2.1/cmath **** // -*- C++ -*- C forwarding header.
   2:/opt/gcc-arm/gcc-arm-none-eabi-6_2-2016q4/arm-none-eabi/include/c++/6.2.1/cmath **** 
   3:/opt/gcc-arm/gcc-arm-none-eabi-6_2-2016q4/arm-none-eabi/include/c++/6.2.1/cmath **** // Copyright (C) 1997-2016 Free Software Foundation, Inc.
   4:/opt/gcc-arm/gcc-arm-none-eabi-6_2-2016q4/arm-none-eabi/include/c++/6.2.1/cmath **** //
   5:/opt/gcc-arm/gcc-arm-none-eabi-6_2-2016q4/arm-none-eabi/include/c++/6.2.1/cmath **** // This file is part of the GNU ISO C++ Library.  This library is free
   6:/opt/gcc-arm/gcc-arm-none-eabi-6_2-2016q4/arm-none-eabi/include/c++/6.2.1/cmath **** // software; you can redistribute it and/or modify it under the
   7:/opt/gcc-arm/gcc-arm-none-eabi-6_2-2016q4/arm-none-eabi/include/c++/6.2.1/cmath **** // terms of the GNU General Public License as published by the
   8:/opt/gcc-arm/gcc-arm-none-eabi-6_2-2016q4/arm-none-eabi/include/c++/6.2.1/cmath **** // Free Software Foundation; either version 3, or (at your option)
   9:/opt/gcc-arm/gcc-arm-none-eabi-6_2-2016q4/arm-none-eabi/include/c++/6.2.1/cmath **** // any later version.
  10:/opt/gcc-arm/gcc-arm-none-eabi-6_2-2016q4/arm-none-eabi/include/c++/6.2.1/cmath **** 
  11:/opt/gcc-arm/gcc-arm-none-eabi-6_2-2016q4/arm-none-eabi/include/c++/6.2.1/cmath **** // This library is distributed in the hope that it will be useful,
  12:/opt/gcc-arm/gcc-arm-none-eabi-6_2-2016q4/arm-none-eabi/include/c++/6.2.1/cmath **** // but WITHOUT ANY WARRANTY; without even the implied warranty of
  13:/opt/gcc-arm/gcc-arm-none-eabi-6_2-2016q4/arm-none-eabi/include/c++/6.2.1/cmath **** // MERCHANTABILITY or FITNESS FOR A PARTICULAR PURPOSE.  See the
  14:/opt/gcc-arm/gcc-arm-none-eabi-6_2-2016q4/arm-none-eabi/include/c++/6.2.1/cmath **** // GNU General Public License for more details.
  15:/opt/gcc-arm/gcc-arm-none-eabi-6_2-2016q4/arm-none-eabi/include/c++/6.2.1/cmath **** 
  16:/opt/gcc-arm/gcc-arm-none-eabi-6_2-2016q4/arm-none-eabi/include/c++/6.2.1/cmath **** // Under Section 7 of GPL version 3, you are granted additional
  17:/opt/gcc-arm/gcc-arm-none-eabi-6_2-2016q4/arm-none-eabi/include/c++/6.2.1/cmath **** // permissions described in the GCC Runtime Library Exception, version
  18:/opt/gcc-arm/gcc-arm-none-eabi-6_2-2016q4/arm-none-eabi/include/c++/6.2.1/cmath **** // 3.1, as published by the Free Software Foundation.
  19:/opt/gcc-arm/gcc-arm-none-eabi-6_2-2016q4/arm-none-eabi/include/c++/6.2.1/cmath **** 
  20:/opt/gcc-arm/gcc-arm-none-eabi-6_2-2016q4/arm-none-eabi/include/c++/6.2.1/cmath **** // You should have received a copy of the GNU General Public License and
  21:/opt/gcc-arm/gcc-arm-none-eabi-6_2-2016q4/arm-none-eabi/include/c++/6.2.1/cmath **** // a copy of the GCC Runtime Library Exception along with this program;
  22:/opt/gcc-arm/gcc-arm-none-eabi-6_2-2016q4/arm-none-eabi/include/c++/6.2.1/cmath **** // see the files COPYING3 and COPYING.RUNTIME respectively.  If not, see
  23:/opt/gcc-arm/gcc-arm-none-eabi-6_2-2016q4/arm-none-eabi/include/c++/6.2.1/cmath **** // <http://www.gnu.org/licenses/>.
  24:/opt/gcc-arm/gcc-arm-none-eabi-6_2-2016q4/arm-none-eabi/include/c++/6.2.1/cmath **** 
  25:/opt/gcc-arm/gcc-arm-none-eabi-6_2-2016q4/arm-none-eabi/include/c++/6.2.1/cmath **** /** @file include/cmath
  26:/opt/gcc-arm/gcc-arm-none-eabi-6_2-2016q4/arm-none-eabi/include/c++/6.2.1/cmath ****  *  This is a Standard C++ Library file.  You should @c \#include this file
  27:/opt/gcc-arm/gcc-arm-none-eabi-6_2-2016q4/arm-none-eabi/include/c++/6.2.1/cmath ****  *  in your programs, rather than any of the @a *.h implementation files.
  28:/opt/gcc-arm/gcc-arm-none-eabi-6_2-2016q4/arm-none-eabi/include/c++/6.2.1/cmath ****  *
  29:/opt/gcc-arm/gcc-arm-none-eabi-6_2-2016q4/arm-none-eabi/include/c++/6.2.1/cmath ****  *  This is the C++ version of the Standard C Library header @c math.h,
  30:/opt/gcc-arm/gcc-arm-none-eabi-6_2-2016q4/arm-none-eabi/include/c++/6.2.1/cmath ****  *  and its contents are (mostly) the same as that header, but are all
  31:/opt/gcc-arm/gcc-arm-none-eabi-6_2-2016q4/arm-none-eabi/include/c++/6.2.1/cmath ****  *  contained in the namespace @c std (except for names which are defined
  32:/opt/gcc-arm/gcc-arm-none-eabi-6_2-2016q4/arm-none-eabi/include/c++/6.2.1/cmath ****  *  as macros in C).
  33:/opt/gcc-arm/gcc-arm-none-eabi-6_2-2016q4/arm-none-eabi/include/c++/6.2.1/cmath ****  */
  34:/opt/gcc-arm/gcc-arm-none-eabi-6_2-2016q4/arm-none-eabi/include/c++/6.2.1/cmath **** 
  35:/opt/gcc-arm/gcc-arm-none-eabi-6_2-2016q4/arm-none-eabi/include/c++/6.2.1/cmath **** //
  36:/opt/gcc-arm/gcc-arm-none-eabi-6_2-2016q4/arm-none-eabi/include/c++/6.2.1/cmath **** // ISO C++ 14882: 26.5  C library
  37:/opt/gcc-arm/gcc-arm-none-eabi-6_2-2016q4/arm-none-eabi/include/c++/6.2.1/cmath **** //
  38:/opt/gcc-arm/gcc-arm-none-eabi-6_2-2016q4/arm-none-eabi/include/c++/6.2.1/cmath **** 
  39:/opt/gcc-arm/gcc-arm-none-eabi-6_2-2016q4/arm-none-eabi/include/c++/6.2.1/cmath **** #pragma GCC system_header
  40:/opt/gcc-arm/gcc-arm-none-eabi-6_2-2016q4/arm-none-eabi/include/c++/6.2.1/cmath **** 
  41:/opt/gcc-arm/gcc-arm-none-eabi-6_2-2016q4/arm-none-eabi/include/c++/6.2.1/cmath **** #include <bits/c++config.h>
  42:/opt/gcc-arm/gcc-arm-none-eabi-6_2-2016q4/arm-none-eabi/include/c++/6.2.1/cmath **** #include <bits/cpp_type_traits.h>
  43:/opt/gcc-arm/gcc-arm-none-eabi-6_2-2016q4/arm-none-eabi/include/c++/6.2.1/cmath **** #include <ext/type_traits.h>
  44:/opt/gcc-arm/gcc-arm-none-eabi-6_2-2016q4/arm-none-eabi/include/c++/6.2.1/cmath **** #define _GLIBCXX_INCLUDE_NEXT_C_HEADERS
  45:/opt/gcc-arm/gcc-arm-none-eabi-6_2-2016q4/arm-none-eabi/include/c++/6.2.1/cmath **** #include_next <math.h>
  46:/opt/gcc-arm/gcc-arm-none-eabi-6_2-2016q4/arm-none-eabi/include/c++/6.2.1/cmath **** #undef _GLIBCXX_INCLUDE_NEXT_C_HEADERS
  47:/opt/gcc-arm/gcc-arm-none-eabi-6_2-2016q4/arm-none-eabi/include/c++/6.2.1/cmath **** 
  48:/opt/gcc-arm/gcc-arm-none-eabi-6_2-2016q4/arm-none-eabi/include/c++/6.2.1/cmath **** #ifndef _GLIBCXX_CMATH
  49:/opt/gcc-arm/gcc-arm-none-eabi-6_2-2016q4/arm-none-eabi/include/c++/6.2.1/cmath **** #define _GLIBCXX_CMATH 1
  50:/opt/gcc-arm/gcc-arm-none-eabi-6_2-2016q4/arm-none-eabi/include/c++/6.2.1/cmath **** 
  51:/opt/gcc-arm/gcc-arm-none-eabi-6_2-2016q4/arm-none-eabi/include/c++/6.2.1/cmath **** // Get rid of those macros defined in <math.h> in lieu of real functions.
  52:/opt/gcc-arm/gcc-arm-none-eabi-6_2-2016q4/arm-none-eabi/include/c++/6.2.1/cmath **** #undef abs
  53:/opt/gcc-arm/gcc-arm-none-eabi-6_2-2016q4/arm-none-eabi/include/c++/6.2.1/cmath **** #undef div
  54:/opt/gcc-arm/gcc-arm-none-eabi-6_2-2016q4/arm-none-eabi/include/c++/6.2.1/cmath **** #undef acos
  55:/opt/gcc-arm/gcc-arm-none-eabi-6_2-2016q4/arm-none-eabi/include/c++/6.2.1/cmath **** #undef asin
  56:/opt/gcc-arm/gcc-arm-none-eabi-6_2-2016q4/arm-none-eabi/include/c++/6.2.1/cmath **** #undef atan
  57:/opt/gcc-arm/gcc-arm-none-eabi-6_2-2016q4/arm-none-eabi/include/c++/6.2.1/cmath **** #undef atan2
  58:/opt/gcc-arm/gcc-arm-none-eabi-6_2-2016q4/arm-none-eabi/include/c++/6.2.1/cmath **** #undef ceil
  59:/opt/gcc-arm/gcc-arm-none-eabi-6_2-2016q4/arm-none-eabi/include/c++/6.2.1/cmath **** #undef cos
  60:/opt/gcc-arm/gcc-arm-none-eabi-6_2-2016q4/arm-none-eabi/include/c++/6.2.1/cmath **** #undef cosh
  61:/opt/gcc-arm/gcc-arm-none-eabi-6_2-2016q4/arm-none-eabi/include/c++/6.2.1/cmath **** #undef exp
  62:/opt/gcc-arm/gcc-arm-none-eabi-6_2-2016q4/arm-none-eabi/include/c++/6.2.1/cmath **** #undef fabs
  63:/opt/gcc-arm/gcc-arm-none-eabi-6_2-2016q4/arm-none-eabi/include/c++/6.2.1/cmath **** #undef floor
  64:/opt/gcc-arm/gcc-arm-none-eabi-6_2-2016q4/arm-none-eabi/include/c++/6.2.1/cmath **** #undef fmod
  65:/opt/gcc-arm/gcc-arm-none-eabi-6_2-2016q4/arm-none-eabi/include/c++/6.2.1/cmath **** #undef frexp
  66:/opt/gcc-arm/gcc-arm-none-eabi-6_2-2016q4/arm-none-eabi/include/c++/6.2.1/cmath **** #undef ldexp
  67:/opt/gcc-arm/gcc-arm-none-eabi-6_2-2016q4/arm-none-eabi/include/c++/6.2.1/cmath **** #undef log
  68:/opt/gcc-arm/gcc-arm-none-eabi-6_2-2016q4/arm-none-eabi/include/c++/6.2.1/cmath **** #undef log10
  69:/opt/gcc-arm/gcc-arm-none-eabi-6_2-2016q4/arm-none-eabi/include/c++/6.2.1/cmath **** #undef modf
  70:/opt/gcc-arm/gcc-arm-none-eabi-6_2-2016q4/arm-none-eabi/include/c++/6.2.1/cmath **** #undef pow
  71:/opt/gcc-arm/gcc-arm-none-eabi-6_2-2016q4/arm-none-eabi/include/c++/6.2.1/cmath **** #undef sin
  72:/opt/gcc-arm/gcc-arm-none-eabi-6_2-2016q4/arm-none-eabi/include/c++/6.2.1/cmath **** #undef sinh
  73:/opt/gcc-arm/gcc-arm-none-eabi-6_2-2016q4/arm-none-eabi/include/c++/6.2.1/cmath **** #undef sqrt
  74:/opt/gcc-arm/gcc-arm-none-eabi-6_2-2016q4/arm-none-eabi/include/c++/6.2.1/cmath **** #undef tan
  75:/opt/gcc-arm/gcc-arm-none-eabi-6_2-2016q4/arm-none-eabi/include/c++/6.2.1/cmath **** #undef tanh
  76:/opt/gcc-arm/gcc-arm-none-eabi-6_2-2016q4/arm-none-eabi/include/c++/6.2.1/cmath **** 
  77:/opt/gcc-arm/gcc-arm-none-eabi-6_2-2016q4/arm-none-eabi/include/c++/6.2.1/cmath **** extern "C++"
  78:/opt/gcc-arm/gcc-arm-none-eabi-6_2-2016q4/arm-none-eabi/include/c++/6.2.1/cmath **** {
  79:/opt/gcc-arm/gcc-arm-none-eabi-6_2-2016q4/arm-none-eabi/include/c++/6.2.1/cmath **** namespace std _GLIBCXX_VISIBILITY(default)
  80:/opt/gcc-arm/gcc-arm-none-eabi-6_2-2016q4/arm-none-eabi/include/c++/6.2.1/cmath **** {
  81:/opt/gcc-arm/gcc-arm-none-eabi-6_2-2016q4/arm-none-eabi/include/c++/6.2.1/cmath **** _GLIBCXX_BEGIN_NAMESPACE_VERSION
  82:/opt/gcc-arm/gcc-arm-none-eabi-6_2-2016q4/arm-none-eabi/include/c++/6.2.1/cmath **** 
  83:/opt/gcc-arm/gcc-arm-none-eabi-6_2-2016q4/arm-none-eabi/include/c++/6.2.1/cmath **** #ifndef __CORRECT_ISO_CPP_MATH_H_PROTO
  84:/opt/gcc-arm/gcc-arm-none-eabi-6_2-2016q4/arm-none-eabi/include/c++/6.2.1/cmath ****   inline _GLIBCXX_CONSTEXPR double
  85:/opt/gcc-arm/gcc-arm-none-eabi-6_2-2016q4/arm-none-eabi/include/c++/6.2.1/cmath ****   abs(double __x)
  86:/opt/gcc-arm/gcc-arm-none-eabi-6_2-2016q4/arm-none-eabi/include/c++/6.2.1/cmath ****   { return __builtin_fabs(__x); }
  87:/opt/gcc-arm/gcc-arm-none-eabi-6_2-2016q4/arm-none-eabi/include/c++/6.2.1/cmath **** #endif
  88:/opt/gcc-arm/gcc-arm-none-eabi-6_2-2016q4/arm-none-eabi/include/c++/6.2.1/cmath **** 
  89:/opt/gcc-arm/gcc-arm-none-eabi-6_2-2016q4/arm-none-eabi/include/c++/6.2.1/cmath **** #ifndef __CORRECT_ISO_CPP_MATH_H_PROTO
  90:/opt/gcc-arm/gcc-arm-none-eabi-6_2-2016q4/arm-none-eabi/include/c++/6.2.1/cmath ****   inline _GLIBCXX_CONSTEXPR float
  91:/opt/gcc-arm/gcc-arm-none-eabi-6_2-2016q4/arm-none-eabi/include/c++/6.2.1/cmath ****   abs(float __x)
  92:/opt/gcc-arm/gcc-arm-none-eabi-6_2-2016q4/arm-none-eabi/include/c++/6.2.1/cmath ****   { return __builtin_fabsf(__x); }
  93:/opt/gcc-arm/gcc-arm-none-eabi-6_2-2016q4/arm-none-eabi/include/c++/6.2.1/cmath **** 
  94:/opt/gcc-arm/gcc-arm-none-eabi-6_2-2016q4/arm-none-eabi/include/c++/6.2.1/cmath ****   inline _GLIBCXX_CONSTEXPR long double
  95:/opt/gcc-arm/gcc-arm-none-eabi-6_2-2016q4/arm-none-eabi/include/c++/6.2.1/cmath ****   abs(long double __x)
  96:/opt/gcc-arm/gcc-arm-none-eabi-6_2-2016q4/arm-none-eabi/include/c++/6.2.1/cmath ****   { return __builtin_fabsl(__x); }
  97:/opt/gcc-arm/gcc-arm-none-eabi-6_2-2016q4/arm-none-eabi/include/c++/6.2.1/cmath **** #endif
  98:/opt/gcc-arm/gcc-arm-none-eabi-6_2-2016q4/arm-none-eabi/include/c++/6.2.1/cmath **** 
  99:/opt/gcc-arm/gcc-arm-none-eabi-6_2-2016q4/arm-none-eabi/include/c++/6.2.1/cmath ****   template<typename _Tp>
 100:/opt/gcc-arm/gcc-arm-none-eabi-6_2-2016q4/arm-none-eabi/include/c++/6.2.1/cmath ****     inline _GLIBCXX_CONSTEXPR
 101:/opt/gcc-arm/gcc-arm-none-eabi-6_2-2016q4/arm-none-eabi/include/c++/6.2.1/cmath ****     typename __gnu_cxx::__enable_if<__is_integer<_Tp>::__value,
 102:/opt/gcc-arm/gcc-arm-none-eabi-6_2-2016q4/arm-none-eabi/include/c++/6.2.1/cmath ****                                     double>::__type
 103:/opt/gcc-arm/gcc-arm-none-eabi-6_2-2016q4/arm-none-eabi/include/c++/6.2.1/cmath ****     abs(_Tp __x)
 104:/opt/gcc-arm/gcc-arm-none-eabi-6_2-2016q4/arm-none-eabi/include/c++/6.2.1/cmath ****     { return __builtin_fabs(__x); }
 105:/opt/gcc-arm/gcc-arm-none-eabi-6_2-2016q4/arm-none-eabi/include/c++/6.2.1/cmath **** 
 106:/opt/gcc-arm/gcc-arm-none-eabi-6_2-2016q4/arm-none-eabi/include/c++/6.2.1/cmath ****   using ::acos;
 107:/opt/gcc-arm/gcc-arm-none-eabi-6_2-2016q4/arm-none-eabi/include/c++/6.2.1/cmath **** 
 108:/opt/gcc-arm/gcc-arm-none-eabi-6_2-2016q4/arm-none-eabi/include/c++/6.2.1/cmath **** #ifndef __CORRECT_ISO_CPP_MATH_H_PROTO
 109:/opt/gcc-arm/gcc-arm-none-eabi-6_2-2016q4/arm-none-eabi/include/c++/6.2.1/cmath ****   inline _GLIBCXX_CONSTEXPR float
 110:/opt/gcc-arm/gcc-arm-none-eabi-6_2-2016q4/arm-none-eabi/include/c++/6.2.1/cmath ****   acos(float __x)
 111:/opt/gcc-arm/gcc-arm-none-eabi-6_2-2016q4/arm-none-eabi/include/c++/6.2.1/cmath ****   { return __builtin_acosf(__x); }
 112:/opt/gcc-arm/gcc-arm-none-eabi-6_2-2016q4/arm-none-eabi/include/c++/6.2.1/cmath **** 
 113:/opt/gcc-arm/gcc-arm-none-eabi-6_2-2016q4/arm-none-eabi/include/c++/6.2.1/cmath ****   inline _GLIBCXX_CONSTEXPR long double
 114:/opt/gcc-arm/gcc-arm-none-eabi-6_2-2016q4/arm-none-eabi/include/c++/6.2.1/cmath ****   acos(long double __x)
 115:/opt/gcc-arm/gcc-arm-none-eabi-6_2-2016q4/arm-none-eabi/include/c++/6.2.1/cmath ****   { return __builtin_acosl(__x); }
 116:/opt/gcc-arm/gcc-arm-none-eabi-6_2-2016q4/arm-none-eabi/include/c++/6.2.1/cmath **** #endif
 117:/opt/gcc-arm/gcc-arm-none-eabi-6_2-2016q4/arm-none-eabi/include/c++/6.2.1/cmath **** 
 118:/opt/gcc-arm/gcc-arm-none-eabi-6_2-2016q4/arm-none-eabi/include/c++/6.2.1/cmath ****   template<typename _Tp>
 119:/opt/gcc-arm/gcc-arm-none-eabi-6_2-2016q4/arm-none-eabi/include/c++/6.2.1/cmath ****     inline _GLIBCXX_CONSTEXPR
 120:/opt/gcc-arm/gcc-arm-none-eabi-6_2-2016q4/arm-none-eabi/include/c++/6.2.1/cmath ****     typename __gnu_cxx::__enable_if<__is_integer<_Tp>::__value, 
 121:/opt/gcc-arm/gcc-arm-none-eabi-6_2-2016q4/arm-none-eabi/include/c++/6.2.1/cmath ****                                     double>::__type
 122:/opt/gcc-arm/gcc-arm-none-eabi-6_2-2016q4/arm-none-eabi/include/c++/6.2.1/cmath ****     acos(_Tp __x)
 123:/opt/gcc-arm/gcc-arm-none-eabi-6_2-2016q4/arm-none-eabi/include/c++/6.2.1/cmath ****     { return __builtin_acos(__x); }
 124:/opt/gcc-arm/gcc-arm-none-eabi-6_2-2016q4/arm-none-eabi/include/c++/6.2.1/cmath **** 
 125:/opt/gcc-arm/gcc-arm-none-eabi-6_2-2016q4/arm-none-eabi/include/c++/6.2.1/cmath ****   using ::asin;
 126:/opt/gcc-arm/gcc-arm-none-eabi-6_2-2016q4/arm-none-eabi/include/c++/6.2.1/cmath **** 
 127:/opt/gcc-arm/gcc-arm-none-eabi-6_2-2016q4/arm-none-eabi/include/c++/6.2.1/cmath **** #ifndef __CORRECT_ISO_CPP_MATH_H_PROTO
 128:/opt/gcc-arm/gcc-arm-none-eabi-6_2-2016q4/arm-none-eabi/include/c++/6.2.1/cmath ****   inline _GLIBCXX_CONSTEXPR float
 129:/opt/gcc-arm/gcc-arm-none-eabi-6_2-2016q4/arm-none-eabi/include/c++/6.2.1/cmath ****   asin(float __x)
 130:/opt/gcc-arm/gcc-arm-none-eabi-6_2-2016q4/arm-none-eabi/include/c++/6.2.1/cmath ****   { return __builtin_asinf(__x); }
 131:/opt/gcc-arm/gcc-arm-none-eabi-6_2-2016q4/arm-none-eabi/include/c++/6.2.1/cmath **** 
 132:/opt/gcc-arm/gcc-arm-none-eabi-6_2-2016q4/arm-none-eabi/include/c++/6.2.1/cmath ****   inline _GLIBCXX_CONSTEXPR long double
 133:/opt/gcc-arm/gcc-arm-none-eabi-6_2-2016q4/arm-none-eabi/include/c++/6.2.1/cmath ****   asin(long double __x)
 134:/opt/gcc-arm/gcc-arm-none-eabi-6_2-2016q4/arm-none-eabi/include/c++/6.2.1/cmath ****   { return __builtin_asinl(__x); }
 135:/opt/gcc-arm/gcc-arm-none-eabi-6_2-2016q4/arm-none-eabi/include/c++/6.2.1/cmath **** #endif
 136:/opt/gcc-arm/gcc-arm-none-eabi-6_2-2016q4/arm-none-eabi/include/c++/6.2.1/cmath **** 
 137:/opt/gcc-arm/gcc-arm-none-eabi-6_2-2016q4/arm-none-eabi/include/c++/6.2.1/cmath ****   template<typename _Tp>
 138:/opt/gcc-arm/gcc-arm-none-eabi-6_2-2016q4/arm-none-eabi/include/c++/6.2.1/cmath ****     inline _GLIBCXX_CONSTEXPR
 139:/opt/gcc-arm/gcc-arm-none-eabi-6_2-2016q4/arm-none-eabi/include/c++/6.2.1/cmath ****     typename __gnu_cxx::__enable_if<__is_integer<_Tp>::__value,
 140:/opt/gcc-arm/gcc-arm-none-eabi-6_2-2016q4/arm-none-eabi/include/c++/6.2.1/cmath ****                                     double>::__type
 141:/opt/gcc-arm/gcc-arm-none-eabi-6_2-2016q4/arm-none-eabi/include/c++/6.2.1/cmath ****     asin(_Tp __x)
 142:/opt/gcc-arm/gcc-arm-none-eabi-6_2-2016q4/arm-none-eabi/include/c++/6.2.1/cmath ****     { return __builtin_asin(__x); }
 143:/opt/gcc-arm/gcc-arm-none-eabi-6_2-2016q4/arm-none-eabi/include/c++/6.2.1/cmath **** 
 144:/opt/gcc-arm/gcc-arm-none-eabi-6_2-2016q4/arm-none-eabi/include/c++/6.2.1/cmath ****   using ::atan;
 145:/opt/gcc-arm/gcc-arm-none-eabi-6_2-2016q4/arm-none-eabi/include/c++/6.2.1/cmath **** 
 146:/opt/gcc-arm/gcc-arm-none-eabi-6_2-2016q4/arm-none-eabi/include/c++/6.2.1/cmath **** #ifndef __CORRECT_ISO_CPP_MATH_H_PROTO
 147:/opt/gcc-arm/gcc-arm-none-eabi-6_2-2016q4/arm-none-eabi/include/c++/6.2.1/cmath ****   inline _GLIBCXX_CONSTEXPR float
 148:/opt/gcc-arm/gcc-arm-none-eabi-6_2-2016q4/arm-none-eabi/include/c++/6.2.1/cmath ****   atan(float __x)
 149:/opt/gcc-arm/gcc-arm-none-eabi-6_2-2016q4/arm-none-eabi/include/c++/6.2.1/cmath ****   { return __builtin_atanf(__x); }
 2718              		.loc 13 149 0
 2719 00c4 FFF7FEFF 		bl	atanf
 2720              	.LVL346:
 2721              	.LBE243:
 2722              	.LBE242:
 2723              		.loc 12 85 0
 2724 00c8 0146     		mov	r1, r0
 2725 00ca 4846     		mov	r0, r9
 2726 00cc FFF7FEFF 		bl	__aeabi_fadd
 2727              	.LVL347:
  86:src/main.cpp  ****       angle[1] = cmd_msg.heading_angle + atan(L/(L-R));
 2728              		.loc 12 86 0
 2729 00d0 019B     		ldr	r3, [sp, #4]
  85:src/main.cpp  ****       angle[1] = cmd_msg.heading_angle + atan(L/(L-R));
 2730              		.loc 12 85 0
 2731 00d2 0546     		mov	r5, r0
 2732              	.LVL348:
 2733              		.loc 12 86 0
 2734 00d4 1946     		mov	r1, r3
 2735 00d6 3046     		mov	r0, r6
 2736              	.LVL349:
 2737 00d8 FFF7FEFF 		bl	__aeabi_fsub
 2738              	.LVL350:
 2739 00dc 0146     		mov	r1, r0
 2740 00de 3046     		mov	r0, r6
 2741 00e0 FFF7FEFF 		bl	__aeabi_fdiv
 2742              	.LVL351:
 2743              	.LBB244:
 2744              	.LBB245:
 2745              		.loc 13 149 0
 2746 00e4 FFF7FEFF 		bl	atanf
 2747              	.LVL352:
 2748              	.LBE245:
 2749              	.LBE244:
 2750              		.loc 12 86 0
 2751 00e8 0146     		mov	r1, r0
 2752 00ea 4846     		mov	r0, r9
 2753 00ec FFF7FEFF 		bl	__aeabi_fadd
 2754              	.LVL353:
 2755              	.LBE241:
 2756              	.LBE240:
  87:src/main.cpp  ****     }else{
  88:src/main.cpp  ****       angle[0] = 0;
  89:src/main.cpp  ****       angle[1] = 0;
  90:src/main.cpp  ****     }
  91:src/main.cpp  **** 
  92:src/main.cpp  ****     angle[0] = angle[0] > MAX_ANGLE_PIVOT? MAX_ANGLE_PIVOT : ( angle[0] < -MAX_ANGLE_PIVOT? -MAX_AN
 2757              		.loc 12 92 0
 2758 00f0 5A49     		ldr	r1, .L159+28
 2759              	.LBB247:
 2760              	.LBB246:
  86:src/main.cpp  ****     }else{
 2761              		.loc 12 86 0
 2762 00f2 0646     		mov	r6, r0
 2763              	.LVL354:
 2764              	.LBE246:
 2765              	.LBE247:
 2766              		.loc 12 92 0
 2767 00f4 2846     		mov	r0, r5
 2768              	.LVL355:
 2769 00f6 FFF7FEFF 		bl	__aeabi_fcmpgt
 2770              	.LVL356:
 2771 00fa 0028     		cmp	r0, #0
 2772 00fc 41D1     		bne	.L144
 2773 00fe 5849     		ldr	r1, .L159+32
 2774 0100 2846     		mov	r0, r5
 2775 0102 FFF7FEFF 		bl	__aeabi_fcmplt
 2776              	.LVL357:
 2777 0106 0028     		cmp	r0, #0
 2778 0108 3DD1     		bne	.L145
 2779              	.LVL358:
 2780              	.L133:
  93:src/main.cpp  ****     angle[1] = angle[1] > MAX_ANGLE_PIVOT? MAX_ANGLE_PIVOT : ( angle[1] < -MAX_ANGLE_PIVOT? -MAX_AN
 2781              		.loc 12 93 0
 2782 010a 5449     		ldr	r1, .L159+28
 2783 010c 3046     		mov	r0, r6
 2784 010e FFF7FEFF 		bl	__aeabi_fcmpgt
 2785              	.LVL359:
 2786 0112 0028     		cmp	r0, #0
 2787 0114 3FD1     		bne	.L146
 2788 0116 5249     		ldr	r1, .L159+32
 2789 0118 3046     		mov	r0, r6
 2790 011a FFF7FEFF 		bl	__aeabi_fcmplt
 2791              	.LVL360:
 2792 011e 0028     		cmp	r0, #0
 2793 0120 3BD1     		bne	.L147
 2794              	.LVL361:
 2795              	.L131:
  94:src/main.cpp  **** 
  95:src/main.cpp  ****     if(cmd_msg.heading_angle > 0){
 2796              		.loc 12 95 0
 2797 0122 0021     		movs	r1, #0
 2798 0124 4846     		mov	r0, r9
 2799 0126 FFF7FEFF 		bl	__aeabi_fcmpgt
 2800              	.LVL362:
  96:src/main.cpp  ****       servo_left->setReference(angle[0]+135);
 2801              		.loc 12 96 0
 2802 012a D4F81490 		ldr	r9, [r4, #20]
 2803 012e 4D49     		ldr	r1, .L159+36
  95:src/main.cpp  ****       servo_left->setReference(angle[0]+135);
 2804              		.loc 12 95 0
 2805 0130 0028     		cmp	r0, #0
 2806 0132 34D0     		beq	.L156
 2807              		.loc 12 96 0
 2808 0134 2846     		mov	r0, r5
 2809 0136 FFF7FEFF 		bl	__aeabi_fadd
 2810              	.LVL363:
 2811 013a D9F80030 		ldr	r3, [r9]
 2812 013e 0146     		mov	r1, r0
 2813 0140 5B69     		ldr	r3, [r3, #20]
 2814 0142 4846     		mov	r0, r9
 2815 0144 9847     		blx	r3
 2816              	.LVL364:
  97:src/main.cpp  ****       servo_right->setReference(-angle[1]+135);
 2817              		.loc 12 97 0
 2818 0146 3146     		mov	r1, r6
 2819 0148 4648     		ldr	r0, .L159+36
 2820 014a FFF7FEFF 		bl	__aeabi_fsub
 2821              	.LVL365:
 2822 014e A569     		ldr	r5, [r4, #24]
 2823 0150 0146     		mov	r1, r0
 2824 0152 2846     		mov	r0, r5
 2825 0154 2B68     		ldr	r3, [r5]
 2826 0156 5B69     		ldr	r3, [r3, #20]
 2827              	.LVL366:
 2828              	.L158:
  98:src/main.cpp  ****     }else{
  99:src/main.cpp  ****       servo_left->setReference(angle[1]+135);
 100:src/main.cpp  ****       servo_right->setReference(-angle[0]+135);
 2829              		.loc 12 100 0
 2830 0158 9847     		blx	r3
 2831              	.LVL367:
 101:src/main.cpp  ****     }
 102:src/main.cpp  ****     motorCmd[0] = cmd_msg.speed*speedMult[0];
 2832              		.loc 12 102 0
 2833 015a 3E6A     		ldr	r6, [r7, #32]	@ float
 2834 015c 5146     		mov	r1, r10
 2835 015e 3046     		mov	r0, r6
 2836 0160 FFF7FEFF 		bl	__aeabi_fmul
 2837              	.LVL368:
 103:src/main.cpp  ****     motorCmd[1] = cmd_msg.speed*speedMult[1];
 2838              		.loc 12 103 0
 2839 0164 5946     		mov	r1, fp
 102:src/main.cpp  ****     motorCmd[1] = cmd_msg.speed*speedMult[1];
 2840              		.loc 12 102 0
 2841 0166 0546     		mov	r5, r0
 2842 0168 E061     		str	r0, [r4, #28]	@ float
 2843              		.loc 12 103 0
 2844 016a 3046     		mov	r0, r6
 2845 016c FFF7FEFF 		bl	__aeabi_fmul
 2846              	.LVL369:
 104:src/main.cpp  ****     motorCmd[2] = cmd_msg.speed*speedMult[1];
 105:src/main.cpp  ****     motorCmd[3] = cmd_msg.speed*speedMult[0];
 2847              		.loc 12 105 0
 2848 0170 A562     		str	r5, [r4, #40]	@ float
 103:src/main.cpp  ****     motorCmd[2] = cmd_msg.speed*speedMult[1];
 2849              		.loc 12 103 0
 2850 0172 2062     		str	r0, [r4, #32]	@ float
 104:src/main.cpp  ****     motorCmd[2] = cmd_msg.speed*speedMult[1];
 2851              		.loc 12 104 0
 2852 0174 6062     		str	r0, [r4, #36]	@ float
 2853              	.L137:
 2854              	.LBE239:
 2855              	.LBE251:
 106:src/main.cpp  **** 
