   1              		.cpu cortex-m3
   2              		.eabi_attribute 20, 1
   3              		.eabi_attribute 21, 1
   4              		.eabi_attribute 23, 3
   5              		.eabi_attribute 24, 1
   6              		.eabi_attribute 25, 1
   7              		.eabi_attribute 26, 1
   8              		.eabi_attribute 30, 4
   9              		.eabi_attribute 34, 1
  10              		.eabi_attribute 18, 4
  11              		.file	"motor.cpp"
  12              		.text
  13              	.Ltext0:
  14              		.cfi_sections	.debug_frame
  15              		.align	1
  16              		.global	_ZN5motor11createMotorEP13motorSettings
  17              		.syntax unified
  18              		.thumb
  19              		.thumb_func
  20              		.fpu softvfp
  22              	_ZN5motor11createMotorEP13motorSettings:
  23              		.fnstart
  24              	.LFB1139:
  25              		.file 1 "src/motor.cpp"
   1:src/motor.cpp **** 
   2:src/motor.cpp **** #include "motor.h"
   3:src/motor.cpp **** #include "motorSettings.h"
   4:src/motor.cpp **** 
   5:src/motor.cpp **** #include "servo.h"
   6:src/motor.cpp **** #include "DCMotor.h"
   7:src/motor.cpp **** 
   8:src/motor.cpp **** motor *motor::createMotor(motorSettings *settings){
  26              		.loc 1 8 0
  27              		.cfi_startproc
  28              		.cfi_personality 0,__gxx_personality_v0
  29              		.cfi_lsda 0,.LLSDA1139
  30              		@ args = 0, pretend = 0, frame = 0
  31              		@ frame_needed = 0, uses_anonymous_args = 0
  32              	.LVL0:
  33 0000 38B5     		push	{r3, r4, r5, lr}
  34              		.save {r3, r4, r5, lr}
  35              	.LCFI0:
  36              		.cfi_def_cfa_offset 16
  37              		.cfi_offset 3, -16
  38              		.cfi_offset 4, -12
  39              		.cfi_offset 5, -8
  40              		.cfi_offset 14, -4
   9:src/motor.cpp ****     switch (settings->m_motorType) {
  41              		.loc 1 9 0
  42 0002 0368     		ldr	r3, [r0]
   8:src/motor.cpp ****     switch (settings->m_motorType) {
  43              		.loc 1 8 0
  44 0004 0546     		mov	r5, r0
  45              		.loc 1 9 0
  46 0006 012B     		cmp	r3, #1
  47 0008 03D0     		beq	.L3
  48 000a 022B     		cmp	r3, #2
  49 000c 09D0     		beq	.L4
  10:src/motor.cpp **** 	    case MOTOR_TYPE_SERVO:
  11:src/motor.cpp **** 	    	/*settings->m_ServoLimitMax = 7000;
  12:src/motor.cpp ****   			settings->m_ServoLimitMin = 2000;*/
  13:src/motor.cpp **** 	        return new servo(settings);
  14:src/motor.cpp **** 			
  15:src/motor.cpp **** 	    case MOTOR_TYPE_DC_MOTOR:
  16:src/motor.cpp **** 	        return new DCMotor(settings);
  17:src/motor.cpp **** 
  18:src/motor.cpp **** 	    default:
  19:src/motor.cpp **** 	        return 0;
  50              		.loc 1 19 0
  51 000e 0020     		movs	r0, #0
  52              	.LVL1:
  53 0010 38BD     		pop	{r3, r4, r5, pc}
  54              	.LVL2:
  55              	.L3:
  13:src/motor.cpp **** 			
  56              		.loc 1 13 0
  57 0012 4C20     		movs	r0, #76
  58              	.LVL3:
  59              	.LEHB0:
  60 0014 FFF7FEFF 		bl	_Znwj
  61              	.LVL4:
  62              	.LEHE0:
  63 0018 2946     		mov	r1, r5
  64 001a 0446     		mov	r4, r0
  65              	.LEHB1:
  66 001c FFF7FEFF 		bl	_ZN5servoC1EP13motorSettings
  67              	.LVL5:
  68              	.LEHE1:
  69 0020 06E0     		b	.L12
  70              	.LVL6:
  71              	.L4:
  16:src/motor.cpp **** 
  72              		.loc 1 16 0
  73 0022 3020     		movs	r0, #48
  74              	.LVL7:
  75              	.LEHB2:
  76 0024 FFF7FEFF 		bl	_Znwj
  77              	.LVL8:
  78              	.LEHE2:
  79 0028 2946     		mov	r1, r5
  80 002a 0446     		mov	r4, r0
  81              	.LEHB3:
  82 002c FFF7FEFF 		bl	_ZN7DCMotorC1EP13motorSettings
  83              	.LVL9:
  84              	.LEHE3:
  85              	.L12:
  13:src/motor.cpp **** 			
  86              		.loc 1 13 0
  87 0030 2046     		mov	r0, r4
  88 0032 38BD     		pop	{r3, r4, r5, pc}
  89              	.LVL10:
  90              	.L9:
  91              	.L13:
  16:src/motor.cpp **** 
  92              		.loc 1 16 0
  93 0034 2046     		mov	r0, r4
  94 0036 FFF7FEFF 		bl	_ZdlPv
  95              	.LVL11:
  96              	.LEHB4:
  97 003a FFF7FEFF 		bl	__cxa_end_cleanup
  98              	.LVL12:
  99              	.LEHE4:
 100              	.L10:
 101 003e F9E7     		b	.L13
 102              		.cfi_endproc
 103              	.LFE1139:
 104              		.global	__gxx_personality_v0
 105              		.personality	__gxx_personality_v0
 106              		.handlerdata
 107              	.LLSDA1139:
 108 0008 FF       		.byte	0xff
 109 0009 FF       		.byte	0xff
 110 000a 01       		.byte	0x1
 111 000b 14       		.uleb128 .LLSDACSE1139-.LLSDACSB1139
 112              	.LLSDACSB1139:
 113 000c 14       		.uleb128 .LEHB0-.LFB1139
 114 000d 04       		.uleb128 .LEHE0-.LEHB0
 115 000e 00       		.uleb128 0
 116 000f 00       		.uleb128 0
 117 0010 1C       		.uleb128 .LEHB1-.LFB1139
 118 0011 04       		.uleb128 .LEHE1-.LEHB1
 119 0012 34       		.uleb128 .L9-.LFB1139
 120 0013 00       		.uleb128 0
 121 0014 24       		.uleb128 .LEHB2-.LFB1139
 122 0015 04       		.uleb128 .LEHE2-.LEHB2
 123 0016 00       		.uleb128 0
 124 0017 00       		.uleb128 0
 125 0018 2C       		.uleb128 .LEHB3-.LFB1139
 126 0019 04       		.uleb128 .LEHE3-.LEHB3
 127 001a 3E       		.uleb128 .L10-.LFB1139
 128 001b 00       		.uleb128 0
 129 001c 3A       		.uleb128 .LEHB4-.LFB1139
 130 001d 04       		.uleb128 .LEHE4-.LEHB4
 131 001e 00       		.uleb128 0
 132 001f 00       		.uleb128 0
 133              	.LLSDACSE1139:
 134              		.text
 135              		.fnend
 137              		.align	1
 138              		.global	_ZN5motorC2EP13motorSettings
 139              		.syntax unified
 140              		.thumb
 141              		.thumb_func
 142              		.fpu softvfp
 144              	_ZN5motorC2EP13motorSettings:
 145              		.fnstart
 146              	.LFB1141:
  20:src/motor.cpp ****     }
  21:src/motor.cpp **** }
  22:src/motor.cpp **** 
  23:src/motor.cpp **** 
  24:src/motor.cpp **** motor::motor(motorSettings *settings){
 147              		.loc 1 24 0
 148              		.cfi_startproc
 149              		@ args = 0, pretend = 0, frame = 0
 150              		@ frame_needed = 0, uses_anonymous_args = 0
 151              		@ link register save eliminated.
 152              	.LVL13:
 153              	.LBB5:
 154              		.loc 1 24 0
 155 0040 014A     		ldr	r2, .L15
  25:src/motor.cpp ****     m_settings = settings;
 156              		.loc 1 25 0
 157 0042 4160     		str	r1, [r0, #4]
  24:src/motor.cpp ****     m_settings = settings;
 158              		.loc 1 24 0
 159 0044 0260     		str	r2, [r0]
 160              	.LBE5:
  26:src/motor.cpp **** }
 161              		.loc 1 26 0
 162 0046 7047     		bx	lr
 163              	.L16:
 164              		.align	2
 165              	.L15:
 166 0048 08000000 		.word	.LANCHOR0+8
 167              		.cfi_endproc
 168              	.LFE1141:
 169              		.cantunwind
 170              		.fnend
 172              		.global	_ZN5motorC1EP13motorSettings
 173              		.thumb_set _ZN5motorC1EP13motorSettings,_ZN5motorC2EP13motorSettings
 174              		.align	1
 175              		.global	_ZN5motorD2Ev
 176              		.syntax unified
 177              		.thumb
 178              		.thumb_func
 179              		.fpu softvfp
 181              	_ZN5motorD2Ev:
 182              		.fnstart
 183              	.LFB1144:
  27:src/motor.cpp **** 
  28:src/motor.cpp **** motor::~motor()
 184              		.loc 1 28 0
 185              		.cfi_startproc
 186              		@ args = 0, pretend = 0, frame = 0
 187              		@ frame_needed = 0, uses_anonymous_args = 0
 188              		@ link register save eliminated.
 189              	.LVL14:
  29:src/motor.cpp **** {
  30:src/motor.cpp **** }...
 190              		.loc 1 30 0
 191 004c 7047     		bx	lr
 192              		.cfi_endproc
 193              	.LFE1144:
 194              		.cantunwind
 195              		.fnend
 197              		.global	_ZN5motorD1Ev
 198              		.thumb_set _ZN5motorD1Ev,_ZN5motorD2Ev
 199              		.align	1
 200              		.global	_ZN5motorD0Ev
 201              		.syntax unified
 202              		.thumb
 203              		.thumb_func
 204              		.fpu softvfp
 206              	_ZN5motorD0Ev:
 207              		.fnstart
 208              	.LFB1146:
  28:src/motor.cpp **** motor::~motor()
 209              		.loc 1 28 0
 210              		.cfi_startproc
 211              		@ args = 0, pretend = 0, frame = 0
 212              		@ frame_needed = 0, uses_anonymous_args = 0
 213              	.LVL15:
 214 004e 10B5     		push	{r4, lr}
 215              	.LCFI1:
 216              		.cfi_def_cfa_offset 8
 217              		.cfi_offset 4, -8
 218              		.cfi_offset 14, -4
  28:src/motor.cpp **** motor::~motor()
 219              		.loc 1 28 0
 220 0050 0446     		mov	r4, r0
 221              		.loc 1 30 0
 222 0052 FFF7FEFF 		bl	_ZdlPv
 223              	.LVL16:
 224 0056 2046     		mov	r0, r4
 225 0058 10BD     		pop	{r4, pc}
 226              		.cfi_endproc
 227              	.LFE1146:
 228              		.cantunwind
 229              		.fnend
 231              		.global	_ZTS5motor
 232              		.global	_ZTI5motor
 233              		.global	_ZTV5motor
 234              		.section	.rodata
 235              		.align	2
 236              		.set	.LANCHOR0,. + 0
 239              	_ZTV5motor:
 240 0000 00000000 		.word	0
 241 0004 00000000 		.word	_ZTI5motor
 242 0008 00000000 		.word	0
 243 000c 00000000 		.word	0
 244 0010 00000000 		.word	__cxa_pure_virtual
 245 0014 00000000 		.word	__cxa_pure_virtual
 246 0018 00000000 		.word	__cxa_pure_virtual
 247 001c 00000000 		.word	__cxa_pure_virtual
 248 0020 00000000 		.word	__cxa_pure_virtual
 249 0024 00000000 		.word	__cxa_pure_virtual
 252              	_ZTS5motor:
 253 0028 356D6F74 		.ascii	"5motor\000"
 253      6F7200
 254 002f 00       		.space	1
 257              	_ZTI5motor:
 258 0030 08000000 		.word	_ZTVN10__cxxabiv117__class_type_infoE+8
 259 0034 00000000 		.word	_ZTS5motor
 260              		.text
 261              	.Letext0:
 262              		.file 2 "/opt/gcc-arm/gcc-arm-none-eabi-6_2-2016q4/arm-none-eabi/include/machine/_default_types.h"
 263              		.file 3 "/opt/gcc-arm/gcc-arm-none-eabi-6_2-2016q4/lib/gcc/arm-none-eabi/6.2.1/include/stddef.h"
 264              		.file 4 "/opt/gcc-arm/gcc-arm-none-eabi-6_2-2016q4/lib/gcc/arm-none-eabi/6.2.1/include/stdarg.h"
 265              		.file 5 "/opt/gcc-arm/gcc-arm-none-eabi-6_2-2016q4/arm-none-eabi/include/sys/lock.h"
 266              		.file 6 "/opt/gcc-arm/gcc-arm-none-eabi-6_2-2016q4/arm-none-eabi/include/sys/_types.h"
 267              		.file 7 "/opt/gcc-arm/gcc-arm-none-eabi-6_2-2016q4/arm-none-eabi/include/sys/reent.h"
 268              		.file 8 "<built-in>"
 269              		.file 9 "/opt/gcc-arm/gcc-arm-none-eabi-6_2-2016q4/arm-none-eabi/include/sys/_stdint.h"
 270              		.file 10 "/opt/gcc-arm/gcc-arm-none-eabi-6_2-2016q4/arm-none-eabi/include/stdio.h"
 271              		.file 11 "/opt/gcc-arm/gcc-arm-none-eabi-6_2-2016q4/arm-none-eabi/include/c++/6.2.1/type_traits"
 272              		.file 12 "/opt/gcc-arm/gcc-arm-none-eabi-6_2-2016q4/arm-none-eabi/include/c++/6.2.1/arm-none-eabi/
 273              		.file 13 "/opt/gcc-arm/gcc-arm-none-eabi-6_2-2016q4/arm-none-eabi/include/c++/6.2.1/bits/stl_pair.
 274              		.file 14 "/opt/gcc-arm/gcc-arm-none-eabi-6_2-2016q4/arm-none-eabi/include/c++/6.2.1/bits/exception
 275              		.file 15 "/opt/gcc-arm/gcc-arm-none-eabi-6_2-2016q4/arm-none-eabi/include/c++/6.2.1/debug/debug.h"
 276              		.file 16 "/opt/gcc-arm/gcc-arm-none-eabi-6_2-2016q4/arm-none-eabi/include/c++/6.2.1/cwchar"
 277              		.file 17 "/opt/gcc-arm/gcc-arm-none-eabi-6_2-2016q4/arm-none-eabi/include/c++/6.2.1/cstdint"
 278              		.file 18 "/opt/gcc-arm/gcc-arm-none-eabi-6_2-2016q4/arm-none-eabi/include/c++/6.2.1/new"
 279              		.file 19 "/opt/gcc-arm/gcc-arm-none-eabi-6_2-2016q4/arm-none-eabi/include/c++/6.2.1/clocale"
 280              		.file 20 "/opt/gcc-arm/gcc-arm-none-eabi-6_2-2016q4/arm-none-eabi/include/c++/6.2.1/cstdlib"
 281              		.file 21 "/opt/gcc-arm/gcc-arm-none-eabi-6_2-2016q4/arm-none-eabi/include/c++/6.2.1/cstdio"
 282              		.file 22 "/opt/gcc-arm/gcc-arm-none-eabi-6_2-2016q4/arm-none-eabi/include/c++/6.2.1/bits/uses_allo
 283              		.file 23 "/opt/gcc-arm/gcc-arm-none-eabi-6_2-2016q4/arm-none-eabi/include/c++/6.2.1/bits/stl_itera
 284              		.file 24 "/opt/gcc-arm/gcc-arm-none-eabi-6_2-2016q4/arm-none-eabi/include/c++/6.2.1/tuple"
 285              		.file 25 "/opt/gcc-arm/gcc-arm-none-eabi-6_2-2016q4/arm-none-eabi/include/c++/6.2.1/bits/predefine
 286              		.file 26 "/opt/gcc-arm/gcc-arm-none-eabi-6_2-2016q4/arm-none-eabi/include/c++/6.2.1/ext/new_alloca
 287              		.file 27 "/opt/gcc-arm/gcc-arm-none-eabi-6_2-2016q4/arm-none-eabi/include/c++/6.2.1/ext/numeric_tr
 288              		.file 28 "/opt/gcc-arm/gcc-arm-none-eabi-6_2-2016q4/arm-none-eabi/include/wchar.h"
 289              		.file 29 "/opt/gcc-arm/gcc-arm-none-eabi-6_2-2016q4/arm-none-eabi/include/stdint.h"
 290              		.file 30 "/opt/gcc-arm/gcc-arm-none-eabi-6_2-2016q4/arm-none-eabi/include/locale.h"
 291              		.file 31 "/opt/gcc-arm/gcc-arm-none-eabi-6_2-2016q4/arm-none-eabi/include/ctype.h"
 292              		.file 32 "/opt/gcc-arm/gcc-arm-none-eabi-6_2-2016q4/arm-none-eabi/include/stdlib.h"
 293              		.file 33 "/opt/gcc-arm/gcc-arm-none-eabi-6_2-2016q4/arm-none-eabi/include/sys/errno.h"
 294              		.file 34 "./lib/CMSIS/CM3/CoreSupport/core_cm3.h"
 295              		.file 35 "./lib/CMSIS/CM3/DeviceSupport/ST/STM32F10x/system_stm32f10x.h"
 296              		.file 36 "./lib/CMSIS/CM3/DeviceSupport/ST/STM32F10x/stm32f10x.h"
 297              		.file 37 "./inc/motorSettings.h"
 298              		.file 38 "/opt/gcc-arm/gcc-arm-none-eabi-6_2-2016q4/arm-none-eabi/include/c++/6.2.1/stdlib.h"
 299              		.file 39 "./inc/motor.h"