   1              		.cpu cortex-m3
   2              		.eabi_attribute 20, 1
   3              		.eabi_attribute 21, 1
   4              		.eabi_attribute 23, 3
   5              		.eabi_attribute 24, 1
   6              		.eabi_attribute 25, 1
   7              		.eabi_attribute 26, 1
   8              		.eabi_attribute 30, 4
   9              		.eabi_attribute 34, 1
  10              		.eabi_attribute 18, 4
  11              		.file	"stm32f10x_dma.c"
  12              		.text
  13              	.Ltext0:
  14              		.cfi_sections	.debug_frame
  15              		.align	1
  16              		.global	DMA_DeInit
  17              		.syntax unified
  18              		.thumb
  19              		.thumb_func
  20              		.fpu softvfp
  22              	DMA_DeInit:
  23              	.LFB29:
  24              		.file 1 "lib/STM32F10x_StdPeriph_Driver/src/stm32f10x_dma.c"
   1:lib/STM32F10x_StdPeriph_Driver/src/stm32f10x_dma.c **** /**
   2:lib/STM32F10x_StdPeriph_Driver/src/stm32f10x_dma.c ****   ******************************************************************************
   3:lib/STM32F10x_StdPeriph_Driver/src/stm32f10x_dma.c ****   * @file    stm32f10x_dma.c
   4:lib/STM32F10x_StdPeriph_Driver/src/stm32f10x_dma.c ****   * @author  MCD Application Team
   5:lib/STM32F10x_StdPeriph_Driver/src/stm32f10x_dma.c ****   * @version V3.5.0
   6:lib/STM32F10x_StdPeriph_Driver/src/stm32f10x_dma.c ****   * @date    11-March-2011
   7:lib/STM32F10x_StdPeriph_Driver/src/stm32f10x_dma.c ****   * @brief   This file provides all the DMA firmware functions.
   8:lib/STM32F10x_StdPeriph_Driver/src/stm32f10x_dma.c ****   ******************************************************************************
   9:lib/STM32F10x_StdPeriph_Driver/src/stm32f10x_dma.c ****   * @attention
  10:lib/STM32F10x_StdPeriph_Driver/src/stm32f10x_dma.c ****   *
  11:lib/STM32F10x_StdPeriph_Driver/src/stm32f10x_dma.c ****   * THE PRESENT FIRMWARE WHICH IS FOR GUIDANCE ONLY AIMS AT PROVIDING CUSTOMERS
  12:lib/STM32F10x_StdPeriph_Driver/src/stm32f10x_dma.c ****   * WITH CODING INFORMATION REGARDING THEIR PRODUCTS IN ORDER FOR THEM TO SAVE
  13:lib/STM32F10x_StdPeriph_Driver/src/stm32f10x_dma.c ****   * TIME. AS A RESULT, STMICROELECTRONICS SHALL NOT BE HELD LIABLE FOR ANY
  14:lib/STM32F10x_StdPeriph_Driver/src/stm32f10x_dma.c ****   * DIRECT, INDIRECT OR CONSEQUENTIAL DAMAGES WITH RESPECT TO ANY CLAIMS ARISING
  15:lib/STM32F10x_StdPeriph_Driver/src/stm32f10x_dma.c ****   * FROM THE CONTENT OF SUCH FIRMWARE AND/OR THE USE MADE BY CUSTOMERS OF THE
  16:lib/STM32F10x_StdPeriph_Driver/src/stm32f10x_dma.c ****   * CODING INFORMATION CONTAINED HEREIN IN CONNECTION WITH THEIR PRODUCTS.
  17:lib/STM32F10x_StdPeriph_Driver/src/stm32f10x_dma.c ****   *
  18:lib/STM32F10x_StdPeriph_Driver/src/stm32f10x_dma.c ****   * <h2><center>&copy; COPYRIGHT 2011 STMicroelectronics</center></h2>
  19:lib/STM32F10x_StdPeriph_Driver/src/stm32f10x_dma.c ****   ******************************************************************************
  20:lib/STM32F10x_StdPeriph_Driver/src/stm32f10x_dma.c ****   */
  21:lib/STM32F10x_StdPeriph_Driver/src/stm32f10x_dma.c **** 
  22:lib/STM32F10x_StdPeriph_Driver/src/stm32f10x_dma.c **** /* Includes ------------------------------------------------------------------*/
  23:lib/STM32F10x_StdPeriph_Driver/src/stm32f10x_dma.c **** #include "stm32f10x_dma.h"
  24:lib/STM32F10x_StdPeriph_Driver/src/stm32f10x_dma.c **** #include "stm32f10x_rcc.h"
  25:lib/STM32F10x_StdPeriph_Driver/src/stm32f10x_dma.c **** 
  26:lib/STM32F10x_StdPeriph_Driver/src/stm32f10x_dma.c **** /** @addtogroup STM32F10x_StdPeriph_Driver
  27:lib/STM32F10x_StdPeriph_Driver/src/stm32f10x_dma.c ****   * @{
  28:lib/STM32F10x_StdPeriph_Driver/src/stm32f10x_dma.c ****   */
  29:lib/STM32F10x_StdPeriph_Driver/src/stm32f10x_dma.c **** 
  30:lib/STM32F10x_StdPeriph_Driver/src/stm32f10x_dma.c **** /** @defgroup DMA 
  31:lib/STM32F10x_StdPeriph_Driver/src/stm32f10x_dma.c ****   * @brief DMA driver modules
  32:lib/STM32F10x_StdPeriph_Driver/src/stm32f10x_dma.c ****   * @{
  33:lib/STM32F10x_StdPeriph_Driver/src/stm32f10x_dma.c ****   */ 
  34:lib/STM32F10x_StdPeriph_Driver/src/stm32f10x_dma.c **** 
  35:lib/STM32F10x_StdPeriph_Driver/src/stm32f10x_dma.c **** /** @defgroup DMA_Private_TypesDefinitions
  36:lib/STM32F10x_StdPeriph_Driver/src/stm32f10x_dma.c ****   * @{
  37:lib/STM32F10x_StdPeriph_Driver/src/stm32f10x_dma.c ****   */ 
  38:lib/STM32F10x_StdPeriph_Driver/src/stm32f10x_dma.c **** /**
  39:lib/STM32F10x_StdPeriph_Driver/src/stm32f10x_dma.c ****   * @}
  40:lib/STM32F10x_StdPeriph_Driver/src/stm32f10x_dma.c ****   */
  41:lib/STM32F10x_StdPeriph_Driver/src/stm32f10x_dma.c **** 
  42:lib/STM32F10x_StdPeriph_Driver/src/stm32f10x_dma.c **** /** @defgroup DMA_Private_Defines
  43:lib/STM32F10x_StdPeriph_Driver/src/stm32f10x_dma.c ****   * @{
  44:lib/STM32F10x_StdPeriph_Driver/src/stm32f10x_dma.c ****   */
  45:lib/STM32F10x_StdPeriph_Driver/src/stm32f10x_dma.c **** 
  46:lib/STM32F10x_StdPeriph_Driver/src/stm32f10x_dma.c **** 
  47:lib/STM32F10x_StdPeriph_Driver/src/stm32f10x_dma.c **** /* DMA1 Channelx interrupt pending bit masks */
  48:lib/STM32F10x_StdPeriph_Driver/src/stm32f10x_dma.c **** #define DMA1_Channel1_IT_Mask    ((uint32_t)(DMA_ISR_GIF1 | DMA_ISR_TCIF1 | DMA_ISR_HTIF1 | DMA_ISR
  49:lib/STM32F10x_StdPeriph_Driver/src/stm32f10x_dma.c **** #define DMA1_Channel2_IT_Mask    ((uint32_t)(DMA_ISR_GIF2 | DMA_ISR_TCIF2 | DMA_ISR_HTIF2 | DMA_ISR
  50:lib/STM32F10x_StdPeriph_Driver/src/stm32f10x_dma.c **** #define DMA1_Channel3_IT_Mask    ((uint32_t)(DMA_ISR_GIF3 | DMA_ISR_TCIF3 | DMA_ISR_HTIF3 | DMA_ISR
  51:lib/STM32F10x_StdPeriph_Driver/src/stm32f10x_dma.c **** #define DMA1_Channel4_IT_Mask    ((uint32_t)(DMA_ISR_GIF4 | DMA_ISR_TCIF4 | DMA_ISR_HTIF4 | DMA_ISR
  52:lib/STM32F10x_StdPeriph_Driver/src/stm32f10x_dma.c **** #define DMA1_Channel5_IT_Mask    ((uint32_t)(DMA_ISR_GIF5 | DMA_ISR_TCIF5 | DMA_ISR_HTIF5 | DMA_ISR
  53:lib/STM32F10x_StdPeriph_Driver/src/stm32f10x_dma.c **** #define DMA1_Channel6_IT_Mask    ((uint32_t)(DMA_ISR_GIF6 | DMA_ISR_TCIF6 | DMA_ISR_HTIF6 | DMA_ISR
  54:lib/STM32F10x_StdPeriph_Driver/src/stm32f10x_dma.c **** #define DMA1_Channel7_IT_Mask    ((uint32_t)(DMA_ISR_GIF7 | DMA_ISR_TCIF7 | DMA_ISR_HTIF7 | DMA_ISR
  55:lib/STM32F10x_StdPeriph_Driver/src/stm32f10x_dma.c **** 
  56:lib/STM32F10x_StdPeriph_Driver/src/stm32f10x_dma.c **** /* DMA2 Channelx interrupt pending bit masks */
  57:lib/STM32F10x_StdPeriph_Driver/src/stm32f10x_dma.c **** #define DMA2_Channel1_IT_Mask    ((uint32_t)(DMA_ISR_GIF1 | DMA_ISR_TCIF1 | DMA_ISR_HTIF1 | DMA_ISR
  58:lib/STM32F10x_StdPeriph_Driver/src/stm32f10x_dma.c **** #define DMA2_Channel2_IT_Mask    ((uint32_t)(DMA_ISR_GIF2 | DMA_ISR_TCIF2 | DMA_ISR_HTIF2 | DMA_ISR
  59:lib/STM32F10x_StdPeriph_Driver/src/stm32f10x_dma.c **** #define DMA2_Channel3_IT_Mask    ((uint32_t)(DMA_ISR_GIF3 | DMA_ISR_TCIF3 | DMA_ISR_HTIF3 | DMA_ISR
  60:lib/STM32F10x_StdPeriph_Driver/src/stm32f10x_dma.c **** #define DMA2_Channel4_IT_Mask    ((uint32_t)(DMA_ISR_GIF4 | DMA_ISR_TCIF4 | DMA_ISR_HTIF4 | DMA_ISR
  61:lib/STM32F10x_StdPeriph_Driver/src/stm32f10x_dma.c **** #define DMA2_Channel5_IT_Mask    ((uint32_t)(DMA_ISR_GIF5 | DMA_ISR_TCIF5 | DMA_ISR_HTIF5 | DMA_ISR
  62:lib/STM32F10x_StdPeriph_Driver/src/stm32f10x_dma.c **** 
  63:lib/STM32F10x_StdPeriph_Driver/src/stm32f10x_dma.c **** /* DMA2 FLAG mask */
  64:lib/STM32F10x_StdPeriph_Driver/src/stm32f10x_dma.c **** #define FLAG_Mask                ((uint32_t)0x10000000)
  65:lib/STM32F10x_StdPeriph_Driver/src/stm32f10x_dma.c **** 
  66:lib/STM32F10x_StdPeriph_Driver/src/stm32f10x_dma.c **** /* DMA registers Masks */
  67:lib/STM32F10x_StdPeriph_Driver/src/stm32f10x_dma.c **** #define CCR_CLEAR_Mask           ((uint32_t)0xFFFF800F)
  68:lib/STM32F10x_StdPeriph_Driver/src/stm32f10x_dma.c **** 
  69:lib/STM32F10x_StdPeriph_Driver/src/stm32f10x_dma.c **** /**
  70:lib/STM32F10x_StdPeriph_Driver/src/stm32f10x_dma.c ****   * @}
  71:lib/STM32F10x_StdPeriph_Driver/src/stm32f10x_dma.c ****   */
  72:lib/STM32F10x_StdPeriph_Driver/src/stm32f10x_dma.c **** 
  73:lib/STM32F10x_StdPeriph_Driver/src/stm32f10x_dma.c **** /** @defgroup DMA_Private_Macros
  74:lib/STM32F10x_StdPeriph_Driver/src/stm32f10x_dma.c ****   * @{
  75:lib/STM32F10x_StdPeriph_Driver/src/stm32f10x_dma.c ****   */
  76:lib/STM32F10x_StdPeriph_Driver/src/stm32f10x_dma.c **** 
  77:lib/STM32F10x_StdPeriph_Driver/src/stm32f10x_dma.c **** /**
  78:lib/STM32F10x_StdPeriph_Driver/src/stm32f10x_dma.c ****   * @}
  79:lib/STM32F10x_StdPeriph_Driver/src/stm32f10x_dma.c ****   */
  80:lib/STM32F10x_StdPeriph_Driver/src/stm32f10x_dma.c **** 
  81:lib/STM32F10x_StdPeriph_Driver/src/stm32f10x_dma.c **** /** @defgroup DMA_Private_Variables
  82:lib/STM32F10x_StdPeriph_Driver/src/stm32f10x_dma.c ****   * @{
  83:lib/STM32F10x_StdPeriph_Driver/src/stm32f10x_dma.c ****   */
  84:lib/STM32F10x_StdPeriph_Driver/src/stm32f10x_dma.c **** 
  85:lib/STM32F10x_StdPeriph_Driver/src/stm32f10x_dma.c **** /**
  86:lib/STM32F10x_StdPeriph_Driver/src/stm32f10x_dma.c ****   * @}
  87:lib/STM32F10x_StdPeriph_Driver/src/stm32f10x_dma.c ****   */
  88:lib/STM32F10x_StdPeriph_Driver/src/stm32f10x_dma.c **** 
  89:lib/STM32F10x_StdPeriph_Driver/src/stm32f10x_dma.c **** /** @defgroup DMA_Private_FunctionPrototypes
  90:lib/STM32F10x_StdPeriph_Driver/src/stm32f10x_dma.c ****   * @{
  91:lib/STM32F10x_StdPeriph_Driver/src/stm32f10x_dma.c ****   */
  92:lib/STM32F10x_StdPeriph_Driver/src/stm32f10x_dma.c **** 
  93:lib/STM32F10x_StdPeriph_Driver/src/stm32f10x_dma.c **** /**
  94:lib/STM32F10x_StdPeriph_Driver/src/stm32f10x_dma.c ****   * @}
  95:lib/STM32F10x_StdPeriph_Driver/src/stm32f10x_dma.c ****   */
  96:lib/STM32F10x_StdPeriph_Driver/src/stm32f10x_dma.c **** 
  97:lib/STM32F10x_StdPeriph_Driver/src/stm32f10x_dma.c **** /** @defgroup DMA_Private_Functions
  98:lib/STM32F10x_StdPeriph_Driver/src/stm32f10x_dma.c ****   * @{
  99:lib/STM32F10x_StdPeriph_Driver/src/stm32f10x_dma.c ****   */
 100:lib/STM32F10x_StdPeriph_Driver/src/stm32f10x_dma.c **** 
 101:lib/STM32F10x_StdPeriph_Driver/src/stm32f10x_dma.c **** /**
 102:lib/STM32F10x_StdPeriph_Driver/src/stm32f10x_dma.c ****   * @brief  Deinitializes the DMAy Channelx registers to their default reset
 103:lib/STM32F10x_StdPeriph_Driver/src/stm32f10x_dma.c ****   *         values.
 104:lib/STM32F10x_StdPeriph_Driver/src/stm32f10x_dma.c ****   * @param  DMAy_Channelx: where y can be 1 or 2 to select the DMA and
 105:lib/STM32F10x_StdPeriph_Driver/src/stm32f10x_dma.c ****   *   x can be 1 to 7 for DMA1 and 1 to 5 for DMA2 to select the DMA Channel.
 106:lib/STM32F10x_StdPeriph_Driver/src/stm32f10x_dma.c ****   * @retval None
 107:lib/STM32F10x_StdPeriph_Driver/src/stm32f10x_dma.c ****   */
 108:lib/STM32F10x_StdPeriph_Driver/src/stm32f10x_dma.c **** void DMA_DeInit(DMA_Channel_TypeDef* DMAy_Channelx)
 109:lib/STM32F10x_StdPeriph_Driver/src/stm32f10x_dma.c **** {
  25              		.loc 1 109 0
  26              		.cfi_startproc
  27              		@ args = 0, pretend = 0, frame = 0
  28              		@ frame_needed = 0, uses_anonymous_args = 0
  29              		@ link register save eliminated.
  30              	.LVL0:
 110:lib/STM32F10x_StdPeriph_Driver/src/stm32f10x_dma.c ****   /* Check the parameters */
 111:lib/STM32F10x_StdPeriph_Driver/src/stm32f10x_dma.c ****   assert_param(IS_DMA_ALL_PERIPH(DMAy_Channelx));
 112:lib/STM32F10x_StdPeriph_Driver/src/stm32f10x_dma.c ****   
 113:lib/STM32F10x_StdPeriph_Driver/src/stm32f10x_dma.c ****   /* Disable the selected DMAy Channelx */
 114:lib/STM32F10x_StdPeriph_Driver/src/stm32f10x_dma.c ****   DMAy_Channelx->CCR &= (uint16_t)(~DMA_CCR1_EN);
  31              		.loc 1 114 0
  32 0000 0368     		ldr	r3, [r0]
  33 0002 23F00103 		bic	r3, r3, #1
  34 0006 1B04     		lsls	r3, r3, #16
  35 0008 1B0C     		lsrs	r3, r3, #16
  36 000a 0360     		str	r3, [r0]
 115:lib/STM32F10x_StdPeriph_Driver/src/stm32f10x_dma.c ****   
 116:lib/STM32F10x_StdPeriph_Driver/src/stm32f10x_dma.c ****   /* Reset DMAy Channelx control register */
 117:lib/STM32F10x_StdPeriph_Driver/src/stm32f10x_dma.c ****   DMAy_Channelx->CCR  = 0;
  37              		.loc 1 117 0
  38 000c 0023     		movs	r3, #0
  39 000e 0360     		str	r3, [r0]
 118:lib/STM32F10x_StdPeriph_Driver/src/stm32f10x_dma.c ****   
 119:lib/STM32F10x_StdPeriph_Driver/src/stm32f10x_dma.c ****   /* Reset DMAy Channelx remaining bytes register */
 120:lib/STM32F10x_StdPeriph_Driver/src/stm32f10x_dma.c ****   DMAy_Channelx->CNDTR = 0;
  40              		.loc 1 120 0
  41 0010 4360     		str	r3, [r0, #4]
 121:lib/STM32F10x_StdPeriph_Driver/src/stm32f10x_dma.c ****   
 122:lib/STM32F10x_StdPeriph_Driver/src/stm32f10x_dma.c ****   /* Reset DMAy Channelx peripheral address register */
 123:lib/STM32F10x_StdPeriph_Driver/src/stm32f10x_dma.c ****   DMAy_Channelx->CPAR  = 0;
  42              		.loc 1 123 0
  43 0012 8360     		str	r3, [r0, #8]
 124:lib/STM32F10x_StdPeriph_Driver/src/stm32f10x_dma.c ****   
 125:lib/STM32F10x_StdPeriph_Driver/src/stm32f10x_dma.c ****   /* Reset DMAy Channelx memory address register */
 126:lib/STM32F10x_StdPeriph_Driver/src/stm32f10x_dma.c ****   DMAy_Channelx->CMAR = 0;
  44              		.loc 1 126 0
  45 0014 C360     		str	r3, [r0, #12]
 127:lib/STM32F10x_StdPeriph_Driver/src/stm32f10x_dma.c ****   
 128:lib/STM32F10x_StdPeriph_Driver/src/stm32f10x_dma.c ****   if (DMAy_Channelx == DMA1_Channel1)
  46              		.loc 1 128 0
  47 0016 294B     		ldr	r3, .L20
  48 0018 9842     		cmp	r0, r3
  49 001a 04D1     		bne	.L2
 129:lib/STM32F10x_StdPeriph_Driver/src/stm32f10x_dma.c ****   {
 130:lib/STM32F10x_StdPeriph_Driver/src/stm32f10x_dma.c ****     /* Reset interrupt pending bits for DMA1 Channel1 */
 131:lib/STM32F10x_StdPeriph_Driver/src/stm32f10x_dma.c ****     DMA1->IFCR |= DMA1_Channel1_IT_Mask;
  50              		.loc 1 131 0
  51 001c 284A     		ldr	r2, .L20+4
  52              	.L16:
 132:lib/STM32F10x_StdPeriph_Driver/src/stm32f10x_dma.c ****   }
 133:lib/STM32F10x_StdPeriph_Driver/src/stm32f10x_dma.c ****   else if (DMAy_Channelx == DMA1_Channel2)
 134:lib/STM32F10x_StdPeriph_Driver/src/stm32f10x_dma.c ****   {
 135:lib/STM32F10x_StdPeriph_Driver/src/stm32f10x_dma.c ****     /* Reset interrupt pending bits for DMA1 Channel2 */
 136:lib/STM32F10x_StdPeriph_Driver/src/stm32f10x_dma.c ****     DMA1->IFCR |= DMA1_Channel2_IT_Mask;
 137:lib/STM32F10x_StdPeriph_Driver/src/stm32f10x_dma.c ****   }
 138:lib/STM32F10x_StdPeriph_Driver/src/stm32f10x_dma.c ****   else if (DMAy_Channelx == DMA1_Channel3)
 139:lib/STM32F10x_StdPeriph_Driver/src/stm32f10x_dma.c ****   {
 140:lib/STM32F10x_StdPeriph_Driver/src/stm32f10x_dma.c ****     /* Reset interrupt pending bits for DMA1 Channel3 */
 141:lib/STM32F10x_StdPeriph_Driver/src/stm32f10x_dma.c ****     DMA1->IFCR |= DMA1_Channel3_IT_Mask;
 142:lib/STM32F10x_StdPeriph_Driver/src/stm32f10x_dma.c ****   }
 143:lib/STM32F10x_StdPeriph_Driver/src/stm32f10x_dma.c ****   else if (DMAy_Channelx == DMA1_Channel4)
 144:lib/STM32F10x_StdPeriph_Driver/src/stm32f10x_dma.c ****   {
 145:lib/STM32F10x_StdPeriph_Driver/src/stm32f10x_dma.c ****     /* Reset interrupt pending bits for DMA1 Channel4 */
 146:lib/STM32F10x_StdPeriph_Driver/src/stm32f10x_dma.c ****     DMA1->IFCR |= DMA1_Channel4_IT_Mask;
 147:lib/STM32F10x_StdPeriph_Driver/src/stm32f10x_dma.c ****   }
 148:lib/STM32F10x_StdPeriph_Driver/src/stm32f10x_dma.c ****   else if (DMAy_Channelx == DMA1_Channel5)
 149:lib/STM32F10x_StdPeriph_Driver/src/stm32f10x_dma.c ****   {
 150:lib/STM32F10x_StdPeriph_Driver/src/stm32f10x_dma.c ****     /* Reset interrupt pending bits for DMA1 Channel5 */
 151:lib/STM32F10x_StdPeriph_Driver/src/stm32f10x_dma.c ****     DMA1->IFCR |= DMA1_Channel5_IT_Mask;
 152:lib/STM32F10x_StdPeriph_Driver/src/stm32f10x_dma.c ****   }
 153:lib/STM32F10x_StdPeriph_Driver/src/stm32f10x_dma.c ****   else if (DMAy_Channelx == DMA1_Channel6)
 154:lib/STM32F10x_StdPeriph_Driver/src/stm32f10x_dma.c ****   {
 155:lib/STM32F10x_StdPeriph_Driver/src/stm32f10x_dma.c ****     /* Reset interrupt pending bits for DMA1 Channel6 */
 156:lib/STM32F10x_StdPeriph_Driver/src/stm32f10x_dma.c ****     DMA1->IFCR |= DMA1_Channel6_IT_Mask;
 157:lib/STM32F10x_StdPeriph_Driver/src/stm32f10x_dma.c ****   }
 158:lib/STM32F10x_StdPeriph_Driver/src/stm32f10x_dma.c ****   else if (DMAy_Channelx == DMA1_Channel7)
 159:lib/STM32F10x_StdPeriph_Driver/src/stm32f10x_dma.c ****   {
 160:lib/STM32F10x_StdPeriph_Driver/src/stm32f10x_dma.c ****     /* Reset interrupt pending bits for DMA1 Channel7 */
 161:lib/STM32F10x_StdPeriph_Driver/src/stm32f10x_dma.c ****     DMA1->IFCR |= DMA1_Channel7_IT_Mask;
 162:lib/STM32F10x_StdPeriph_Driver/src/stm32f10x_dma.c ****   }
 163:lib/STM32F10x_StdPeriph_Driver/src/stm32f10x_dma.c ****   else if (DMAy_Channelx == DMA2_Channel1)
 164:lib/STM32F10x_StdPeriph_Driver/src/stm32f10x_dma.c ****   {
 165:lib/STM32F10x_StdPeriph_Driver/src/stm32f10x_dma.c ****     /* Reset interrupt pending bits for DMA2 Channel1 */
 166:lib/STM32F10x_StdPeriph_Driver/src/stm32f10x_dma.c ****     DMA2->IFCR |= DMA2_Channel1_IT_Mask;
  53              		.loc 1 166 0
  54 001e 5368     		ldr	r3, [r2, #4]
  55 0020 43F00F03 		orr	r3, r3, #15
  56 0024 26E0     		b	.L14
  57              	.L2:
 133:lib/STM32F10x_StdPeriph_Driver/src/stm32f10x_dma.c ****   {
  58              		.loc 1 133 0
  59 0026 274B     		ldr	r3, .L20+8
  60 0028 9842     		cmp	r0, r3
  61 002a 04D1     		bne	.L4
 136:lib/STM32F10x_StdPeriph_Driver/src/stm32f10x_dma.c ****   }
  62              		.loc 1 136 0
  63 002c 244A     		ldr	r2, .L20+4
  64              	.L17:
 167:lib/STM32F10x_StdPeriph_Driver/src/stm32f10x_dma.c ****   }
 168:lib/STM32F10x_StdPeriph_Driver/src/stm32f10x_dma.c ****   else if (DMAy_Channelx == DMA2_Channel2)
 169:lib/STM32F10x_StdPeriph_Driver/src/stm32f10x_dma.c ****   {
 170:lib/STM32F10x_StdPeriph_Driver/src/stm32f10x_dma.c ****     /* Reset interrupt pending bits for DMA2 Channel2 */
 171:lib/STM32F10x_StdPeriph_Driver/src/stm32f10x_dma.c ****     DMA2->IFCR |= DMA2_Channel2_IT_Mask;
  65              		.loc 1 171 0
  66 002e 5368     		ldr	r3, [r2, #4]
  67 0030 43F0F003 		orr	r3, r3, #240
  68 0034 1EE0     		b	.L14
  69              	.L4:
 138:lib/STM32F10x_StdPeriph_Driver/src/stm32f10x_dma.c ****   {
  70              		.loc 1 138 0
  71 0036 244B     		ldr	r3, .L20+12
  72 0038 9842     		cmp	r0, r3
  73 003a 04D1     		bne	.L5
 141:lib/STM32F10x_StdPeriph_Driver/src/stm32f10x_dma.c ****   }
  74              		.loc 1 141 0
  75 003c 204A     		ldr	r2, .L20+4
  76              	.L18:
 172:lib/STM32F10x_StdPeriph_Driver/src/stm32f10x_dma.c ****   }
 173:lib/STM32F10x_StdPeriph_Driver/src/stm32f10x_dma.c ****   else if (DMAy_Channelx == DMA2_Channel3)
 174:lib/STM32F10x_StdPeriph_Driver/src/stm32f10x_dma.c ****   {
 175:lib/STM32F10x_StdPeriph_Driver/src/stm32f10x_dma.c ****     /* Reset interrupt pending bits for DMA2 Channel3 */
 176:lib/STM32F10x_StdPeriph_Driver/src/stm32f10x_dma.c ****     DMA2->IFCR |= DMA2_Channel3_IT_Mask;
  77              		.loc 1 176 0
  78 003e 5368     		ldr	r3, [r2, #4]
  79 0040 43F47063 		orr	r3, r3, #3840
  80 0044 16E0     		b	.L14
  81              	.L5:
 143:lib/STM32F10x_StdPeriph_Driver/src/stm32f10x_dma.c ****   {
  82              		.loc 1 143 0
  83 0046 214B     		ldr	r3, .L20+16
  84 0048 9842     		cmp	r0, r3
  85 004a 04D1     		bne	.L6
 146:lib/STM32F10x_StdPeriph_Driver/src/stm32f10x_dma.c ****   }
  86              		.loc 1 146 0
  87 004c 1C4A     		ldr	r2, .L20+4
  88              	.L19:
 177:lib/STM32F10x_StdPeriph_Driver/src/stm32f10x_dma.c ****   }
 178:lib/STM32F10x_StdPeriph_Driver/src/stm32f10x_dma.c ****   else if (DMAy_Channelx == DMA2_Channel4)
 179:lib/STM32F10x_StdPeriph_Driver/src/stm32f10x_dma.c ****   {
 180:lib/STM32F10x_StdPeriph_Driver/src/stm32f10x_dma.c ****     /* Reset interrupt pending bits for DMA2 Channel4 */
 181:lib/STM32F10x_StdPeriph_Driver/src/stm32f10x_dma.c ****     DMA2->IFCR |= DMA2_Channel4_IT_Mask;
  89              		.loc 1 181 0
  90 004e 5368     		ldr	r3, [r2, #4]
  91 0050 43F47043 		orr	r3, r3, #61440
  92 0054 0EE0     		b	.L14
  93              	.L6:
 148:lib/STM32F10x_StdPeriph_Driver/src/stm32f10x_dma.c ****   {
  94              		.loc 1 148 0
  95 0056 1E4B     		ldr	r3, .L20+20
  96 0058 9842     		cmp	r0, r3
  97 005a 04D1     		bne	.L7
 151:lib/STM32F10x_StdPeriph_Driver/src/stm32f10x_dma.c ****   }
  98              		.loc 1 151 0
  99 005c 184A     		ldr	r2, .L20+4
 100              	.L15:
 182:lib/STM32F10x_StdPeriph_Driver/src/stm32f10x_dma.c ****   }
 183:lib/STM32F10x_StdPeriph_Driver/src/stm32f10x_dma.c ****   else
 184:lib/STM32F10x_StdPeriph_Driver/src/stm32f10x_dma.c ****   { 
 185:lib/STM32F10x_StdPeriph_Driver/src/stm32f10x_dma.c ****     if (DMAy_Channelx == DMA2_Channel5)
 186:lib/STM32F10x_StdPeriph_Driver/src/stm32f10x_dma.c ****     {
 187:lib/STM32F10x_StdPeriph_Driver/src/stm32f10x_dma.c ****       /* Reset interrupt pending bits for DMA2 Channel5 */
 188:lib/STM32F10x_StdPeriph_Driver/src/stm32f10x_dma.c ****       DMA2->IFCR |= DMA2_Channel5_IT_Mask;
 101              		.loc 1 188 0
 102 005e 5368     		ldr	r3, [r2, #4]
 103 0060 43F47023 		orr	r3, r3, #983040
 104 0064 06E0     		b	.L14
 105              	.L7:
 153:lib/STM32F10x_StdPeriph_Driver/src/stm32f10x_dma.c ****   {
 106              		.loc 1 153 0
 107 0066 1B4B     		ldr	r3, .L20+24
 108 0068 9842     		cmp	r0, r3
 109 006a 05D1     		bne	.L8
 156:lib/STM32F10x_StdPeriph_Driver/src/stm32f10x_dma.c ****   }
 110              		.loc 1 156 0
 111 006c 144A     		ldr	r2, .L20+4
 112 006e 5368     		ldr	r3, [r2, #4]
 113 0070 43F47003 		orr	r3, r3, #15728640
 114              	.L14:
 115              		.loc 1 188 0
 116 0074 5360     		str	r3, [r2, #4]
 117              	.L1:
 118 0076 7047     		bx	lr
 119              	.L8:
 158:lib/STM32F10x_StdPeriph_Driver/src/stm32f10x_dma.c ****   {
 120              		.loc 1 158 0
 121 0078 174B     		ldr	r3, .L20+28
 122 007a 9842     		cmp	r0, r3
 123 007c 04D1     		bne	.L9
 161:lib/STM32F10x_StdPeriph_Driver/src/stm32f10x_dma.c ****   }
 124              		.loc 1 161 0
 125 007e 104A     		ldr	r2, .L20+4
 126 0080 5368     		ldr	r3, [r2, #4]
 127 0082 43F07063 		orr	r3, r3, #251658240
 128 0086 F5E7     		b	.L14
 129              	.L9:
 163:lib/STM32F10x_StdPeriph_Driver/src/stm32f10x_dma.c ****   {
 130              		.loc 1 163 0
 131 0088 144B     		ldr	r3, .L20+32
 132 008a 9842     		cmp	r0, r3
 133 008c 01D1     		bne	.L10
 166:lib/STM32F10x_StdPeriph_Driver/src/stm32f10x_dma.c ****   }
 134              		.loc 1 166 0
 135 008e 144A     		ldr	r2, .L20+36
 136 0090 C5E7     		b	.L16
 137              	.L10:
 168:lib/STM32F10x_StdPeriph_Driver/src/stm32f10x_dma.c ****   {
 138              		.loc 1 168 0
 139 0092 144B     		ldr	r3, .L20+40
 140 0094 9842     		cmp	r0, r3
 141 0096 01D1     		bne	.L11
 171:lib/STM32F10x_StdPeriph_Driver/src/stm32f10x_dma.c ****   }
 142              		.loc 1 171 0
 143 0098 114A     		ldr	r2, .L20+36
 144 009a C8E7     		b	.L17
 145              	.L11:
 173:lib/STM32F10x_StdPeriph_Driver/src/stm32f10x_dma.c ****   {
 146              		.loc 1 173 0
 147 009c 124B     		ldr	r3, .L20+44
 148 009e 9842     		cmp	r0, r3
 149 00a0 01D1     		bne	.L12
 176:lib/STM32F10x_StdPeriph_Driver/src/stm32f10x_dma.c ****   }
 150              		.loc 1 176 0
 151 00a2 0F4A     		ldr	r2, .L20+36
 152 00a4 CBE7     		b	.L18
 153              	.L12:
 178:lib/STM32F10x_StdPeriph_Driver/src/stm32f10x_dma.c ****   {
 154              		.loc 1 178 0
 155 00a6 114B     		ldr	r3, .L20+48
 156 00a8 9842     		cmp	r0, r3
 157 00aa 01D1     		bne	.L13
 181:lib/STM32F10x_StdPeriph_Driver/src/stm32f10x_dma.c ****   }
 158              		.loc 1 181 0
 159 00ac 0C4A     		ldr	r2, .L20+36
 160 00ae CEE7     		b	.L19
 161              	.L13:
 185:lib/STM32F10x_StdPeriph_Driver/src/stm32f10x_dma.c ****     {
 162              		.loc 1 185 0
 163 00b0 0F4B     		ldr	r3, .L20+52
 164 00b2 9842     		cmp	r0, r3
 165 00b4 DFD1     		bne	.L1
 166              		.loc 1 188 0
 167 00b6 0A4A     		ldr	r2, .L20+36
 168 00b8 D1E7     		b	.L15
 169              	.L21:
 170 00ba 00BF     		.align	2
 171              	.L20:
 172 00bc 08000240 		.word	1073872904
 173 00c0 00000240 		.word	1073872896
 174 00c4 1C000240 		.word	1073872924
 175 00c8 30000240 		.word	1073872944
 176 00cc 44000240 		.word	1073872964
 177 00d0 58000240 		.word	1073872984
 178 00d4 6C000240 		.word	1073873004
 179 00d8 80000240 		.word	1073873024
 180 00dc 08040240 		.word	1073873928
 181 00e0 00040240 		.word	1073873920
 182 00e4 1C040240 		.word	1073873948
 183 00e8 30040240 		.word	1073873968
 184 00ec 44040240 		.word	1073873988
 185 00f0 58040240 		.word	1073874008
 186              		.cfi_endproc
 187              	.LFE29:
 189              		.align	1
 190              		.global	DMA_Init
 191              		.syntax unified
 192              		.thumb
 193              		.thumb_func
 194              		.fpu softvfp
 196              	DMA_Init:
 197              	.LFB30:
 189:lib/STM32F10x_StdPeriph_Driver/src/stm32f10x_dma.c ****     }
 190:lib/STM32F10x_StdPeriph_Driver/src/stm32f10x_dma.c ****   }
 191:lib/STM32F10x_StdPeriph_Driver/src/stm32f10x_dma.c **** }
 192:lib/STM32F10x_StdPeriph_Driver/src/stm32f10x_dma.c **** 
 193:lib/STM32F10x_StdPeriph_Driver/src/stm32f10x_dma.c **** /**
 194:lib/STM32F10x_StdPeriph_Driver/src/stm32f10x_dma.c ****   * @brief  Initializes the DMAy Channelx according to the specified
 195:lib/STM32F10x_StdPeriph_Driver/src/stm32f10x_dma.c ****   *         parameters in the DMA_InitStruct.
 196:lib/STM32F10x_StdPeriph_Driver/src/stm32f10x_dma.c ****   * @param  DMAy_Channelx: where y can be 1 or 2 to select the DMA and 
 197:lib/STM32F10x_StdPeriph_Driver/src/stm32f10x_dma.c ****   *   x can be 1 to 7 for DMA1 and 1 to 5 for DMA2 to select the DMA Channel.
 198:lib/STM32F10x_StdPeriph_Driver/src/stm32f10x_dma.c ****   * @param  DMA_InitStruct: pointer to a DMA_InitTypeDef structure that
 199:lib/STM32F10x_StdPeriph_Driver/src/stm32f10x_dma.c ****   *         contains the configuration information for the specified DMA Channel.
 200:lib/STM32F10x_StdPeriph_Driver/src/stm32f10x_dma.c ****   * @retval None
 201:lib/STM32F10x_StdPeriph_Driver/src/stm32f10x_dma.c ****   */
 202:lib/STM32F10x_StdPeriph_Driver/src/stm32f10x_dma.c **** void DMA_Init(DMA_Channel_TypeDef* DMAy_Channelx, DMA_InitTypeDef* DMA_InitStruct)
 203:lib/STM32F10x_StdPeriph_Driver/src/stm32f10x_dma.c **** {
 198              		.loc 1 203 0
 199              		.cfi_startproc
 200              		@ args = 0, pretend = 0, frame = 0
 201              		@ frame_needed = 0, uses_anonymous_args = 0
 202              	.LVL1:
 204:lib/STM32F10x_StdPeriph_Driver/src/stm32f10x_dma.c ****   uint32_t tmpreg = 0;
 205:lib/STM32F10x_StdPeriph_Driver/src/stm32f10x_dma.c **** 
 206:lib/STM32F10x_StdPeriph_Driver/src/stm32f10x_dma.c ****   /* Check the parameters */
 207:lib/STM32F10x_StdPeriph_Driver/src/stm32f10x_dma.c ****   assert_param(IS_DMA_ALL_PERIPH(DMAy_Channelx));
 208:lib/STM32F10x_StdPeriph_Driver/src/stm32f10x_dma.c ****   assert_param(IS_DMA_DIR(DMA_InitStruct->DMA_DIR));
 209:lib/STM32F10x_StdPeriph_Driver/src/stm32f10x_dma.c ****   assert_param(IS_DMA_BUFFER_SIZE(DMA_InitStruct->DMA_BufferSize));
 210:lib/STM32F10x_StdPeriph_Driver/src/stm32f10x_dma.c ****   assert_param(IS_DMA_PERIPHERAL_INC_STATE(DMA_InitStruct->DMA_PeripheralInc));
 211:lib/STM32F10x_StdPeriph_Driver/src/stm32f10x_dma.c ****   assert_param(IS_DMA_MEMORY_INC_STATE(DMA_InitStruct->DMA_MemoryInc));   
 212:lib/STM32F10x_StdPeriph_Driver/src/stm32f10x_dma.c ****   assert_param(IS_DMA_PERIPHERAL_DATA_SIZE(DMA_InitStruct->DMA_PeripheralDataSize));
 213:lib/STM32F10x_StdPeriph_Driver/src/stm32f10x_dma.c ****   assert_param(IS_DMA_MEMORY_DATA_SIZE(DMA_InitStruct->DMA_MemoryDataSize));
 214:lib/STM32F10x_StdPeriph_Driver/src/stm32f10x_dma.c ****   assert_param(IS_DMA_MODE(DMA_InitStruct->DMA_Mode));
 215:lib/STM32F10x_StdPeriph_Driver/src/stm32f10x_dma.c ****   assert_param(IS_DMA_PRIORITY(DMA_InitStruct->DMA_Priority));
 216:lib/STM32F10x_StdPeriph_Driver/src/stm32f10x_dma.c ****   assert_param(IS_DMA_M2M_STATE(DMA_InitStruct->DMA_M2M));
 217:lib/STM32F10x_StdPeriph_Driver/src/stm32f10x_dma.c **** 
 218:lib/STM32F10x_StdPeriph_Driver/src/stm32f10x_dma.c **** /*--------------------------- DMAy Channelx CCR Configuration -----------------*/
 219:lib/STM32F10x_StdPeriph_Driver/src/stm32f10x_dma.c ****   /* Get the DMAy_Channelx CCR value */
 220:lib/STM32F10x_StdPeriph_Driver/src/stm32f10x_dma.c ****   tmpreg = DMAy_Channelx->CCR;
 221:lib/STM32F10x_StdPeriph_Driver/src/stm32f10x_dma.c ****   /* Clear MEM2MEM, PL, MSIZE, PSIZE, MINC, PINC, CIRC and DIR bits */
 222:lib/STM32F10x_StdPeriph_Driver/src/stm32f10x_dma.c ****   tmpreg &= CCR_CLEAR_Mask;
 223:lib/STM32F10x_StdPeriph_Driver/src/stm32f10x_dma.c ****   /* Configure DMAy Channelx: data transfer, data size, priority level and mode */
 224:lib/STM32F10x_StdPeriph_Driver/src/stm32f10x_dma.c ****   /* Set DIR bit according to DMA_DIR value */
 225:lib/STM32F10x_StdPeriph_Driver/src/stm32f10x_dma.c ****   /* Set CIRC bit according to DMA_Mode value */
 226:lib/STM32F10x_StdPeriph_Driver/src/stm32f10x_dma.c ****   /* Set PINC bit according to DMA_PeripheralInc value */
 227:lib/STM32F10x_StdPeriph_Driver/src/stm32f10x_dma.c ****   /* Set MINC bit according to DMA_MemoryInc value */
 228:lib/STM32F10x_StdPeriph_Driver/src/stm32f10x_dma.c ****   /* Set PSIZE bits according to DMA_PeripheralDataSize value */
 229:lib/STM32F10x_StdPeriph_Driver/src/stm32f10x_dma.c ****   /* Set MSIZE bits according to DMA_MemoryDataSize value */
 230:lib/STM32F10x_StdPeriph_Driver/src/stm32f10x_dma.c ****   /* Set PL bits according to DMA_Priority value */
 231:lib/STM32F10x_StdPeriph_Driver/src/stm32f10x_dma.c ****   /* Set the MEM2MEM bit according to DMA_M2M value */
 232:lib/STM32F10x_StdPeriph_Driver/src/stm32f10x_dma.c ****   tmpreg |= DMA_InitStruct->DMA_DIR | DMA_InitStruct->DMA_Mode |
 203              		.loc 1 232 0
 204 00f4 8B68     		ldr	r3, [r1, #8]
 203:lib/STM32F10x_StdPeriph_Driver/src/stm32f10x_dma.c ****   uint32_t tmpreg = 0;
 205              		.loc 1 203 0
 206 00f6 10B5     		push	{r4, lr}
 207              	.LCFI0:
 208              		.cfi_def_cfa_offset 8
 209              		.cfi_offset 4, -8
 210              		.cfi_offset 14, -4
 211              		.loc 1 232 0
 212 00f8 0C6A     		ldr	r4, [r1, #32]
 220:lib/STM32F10x_StdPeriph_Driver/src/stm32f10x_dma.c ****   /* Clear MEM2MEM, PL, MSIZE, PSIZE, MINC, PINC, CIRC and DIR bits */
 213              		.loc 1 220 0
 214 00fa 0268     		ldr	r2, [r0]
 215              	.LVL2:
 216              		.loc 1 232 0
 217 00fc 2343     		orrs	r3, r3, r4
 218 00fe 0C69     		ldr	r4, [r1, #16]
 222:lib/STM32F10x_StdPeriph_Driver/src/stm32f10x_dma.c ****   /* Configure DMAy Channelx: data transfer, data size, priority level and mode */
 219              		.loc 1 222 0
 220 0100 22F4FF42 		bic	r2, r2, #32640
 221              	.LVL3:
 222              		.loc 1 232 0
 223 0104 2343     		orrs	r3, r3, r4
 233:lib/STM32F10x_StdPeriph_Driver/src/stm32f10x_dma.c ****             DMA_InitStruct->DMA_PeripheralInc | DMA_InitStruct->DMA_MemoryInc |
 224              		.loc 1 233 0
 225 0106 4C69     		ldr	r4, [r1, #20]
 222:lib/STM32F10x_StdPeriph_Driver/src/stm32f10x_dma.c ****   /* Configure DMAy Channelx: data transfer, data size, priority level and mode */
 226              		.loc 1 222 0
 227 0108 22F07002 		bic	r2, r2, #112
 228              	.LVL4:
 229              		.loc 1 233 0
 230 010c 2343     		orrs	r3, r3, r4
 231 010e 8C69     		ldr	r4, [r1, #24]
 232 0110 2343     		orrs	r3, r3, r4
 234:lib/STM32F10x_StdPeriph_Driver/src/stm32f10x_dma.c ****             DMA_InitStruct->DMA_PeripheralDataSize | DMA_InitStruct->DMA_MemoryDataSize |
 233              		.loc 1 234 0
 234 0112 CC69     		ldr	r4, [r1, #28]
 235 0114 2343     		orrs	r3, r3, r4
 236 0116 4C6A     		ldr	r4, [r1, #36]
 237 0118 2343     		orrs	r3, r3, r4
 235:lib/STM32F10x_StdPeriph_Driver/src/stm32f10x_dma.c ****             DMA_InitStruct->DMA_Priority | DMA_InitStruct->DMA_M2M;
 238              		.loc 1 235 0
 239 011a 8C6A     		ldr	r4, [r1, #40]
 240 011c 2343     		orrs	r3, r3, r4
 232:lib/STM32F10x_StdPeriph_Driver/src/stm32f10x_dma.c ****             DMA_InitStruct->DMA_PeripheralInc | DMA_InitStruct->DMA_MemoryInc |
 241              		.loc 1 232 0
 242 011e 1343     		orrs	r3, r3, r2
 243              	.LVL5:
 236:lib/STM32F10x_StdPeriph_Driver/src/stm32f10x_dma.c **** 
 237:lib/STM32F10x_StdPeriph_Driver/src/stm32f10x_dma.c ****   /* Write to DMAy Channelx CCR */
 238:lib/STM32F10x_StdPeriph_Driver/src/stm32f10x_dma.c ****   DMAy_Channelx->CCR = tmpreg;
 244              		.loc 1 238 0
 245 0120 0360     		str	r3, [r0]
 239:lib/STM32F10x_StdPeriph_Driver/src/stm32f10x_dma.c **** 
 240:lib/STM32F10x_StdPeriph_Driver/src/stm32f10x_dma.c **** /*--------------------------- DMAy Channelx CNDTR Configuration ---------------*/
 241:lib/STM32F10x_StdPeriph_Driver/src/stm32f10x_dma.c ****   /* Write to DMAy Channelx CNDTR */
 242:lib/STM32F10x_StdPeriph_Driver/src/stm32f10x_dma.c ****   DMAy_Channelx->CNDTR = DMA_InitStruct->DMA_BufferSize;
 246              		.loc 1 242 0
 247 0122 CB68     		ldr	r3, [r1, #12]
 248              	.LVL6:
 249 0124 4360     		str	r3, [r0, #4]
 250              	.LVL7:
 243:lib/STM32F10x_StdPeriph_Driver/src/stm32f10x_dma.c **** 
 244:lib/STM32F10x_StdPeriph_Driver/src/stm32f10x_dma.c **** /*--------------------------- DMAy Channelx CPAR Configuration ----------------*/
 245:lib/STM32F10x_StdPeriph_Driver/src/stm32f10x_dma.c ****   /* Write to DMAy Channelx CPAR */
 246:lib/STM32F10x_StdPeriph_Driver/src/stm32f10x_dma.c ****   DMAy_Channelx->CPAR = DMA_InitStruct->DMA_PeripheralBaseAddr;
 251              		.loc 1 246 0
 252 0126 0B68     		ldr	r3, [r1]
 253 0128 8360     		str	r3, [r0, #8]
 247:lib/STM32F10x_StdPeriph_Driver/src/stm32f10x_dma.c **** 
 248:lib/STM32F10x_StdPeriph_Driver/src/stm32f10x_dma.c **** /*--------------------------- DMAy Channelx CMAR Configuration ----------------*/
 249:lib/STM32F10x_StdPeriph_Driver/src/stm32f10x_dma.c ****   /* Write to DMAy Channelx CMAR */
 250:lib/STM32F10x_StdPeriph_Driver/src/stm32f10x_dma.c ****   DMAy_Channelx->CMAR = DMA_InitStruct->DMA_MemoryBaseAddr;
 254              		.loc 1 250 0
 255 012a 4B68     		ldr	r3, [r1, #4]
 256 012c C360     		str	r3, [r0, #12]
 257 012e 10BD     		pop	{r4, pc}
 258              		.cfi_endproc
 259              	.LFE30:
 261              		.align	1
 262              		.global	DMA_StructInit
 263              		.syntax unified
 264              		.thumb
 265              		.thumb_func
 266              		.fpu softvfp
 268              	DMA_StructInit:
 269              	.LFB31:
 251:lib/STM32F10x_StdPeriph_Driver/src/stm32f10x_dma.c **** }
 252:lib/STM32F10x_StdPeriph_Driver/src/stm32f10x_dma.c **** 
 253:lib/STM32F10x_StdPeriph_Driver/src/stm32f10x_dma.c **** /**
 254:lib/STM32F10x_StdPeriph_Driver/src/stm32f10x_dma.c ****   * @brief  Fills each DMA_InitStruct member with its default value.
 255:lib/STM32F10x_StdPeriph_Driver/src/stm32f10x_dma.c ****   * @param  DMA_InitStruct : pointer to a DMA_InitTypeDef structure which will
 256:lib/STM32F10x_StdPeriph_Driver/src/stm32f10x_dma.c ****   *         be initialized.
 257:lib/STM32F10x_StdPeriph_Driver/src/stm32f10x_dma.c ****   * @retval None
 258:lib/STM32F10x_StdPeriph_Driver/src/stm32f10x_dma.c ****   */
 259:lib/STM32F10x_StdPeriph_Driver/src/stm32f10x_dma.c **** void DMA_StructInit(DMA_InitTypeDef* DMA_InitStruct)
 260:lib/STM32F10x_StdPeriph_Driver/src/stm32f10x_dma.c **** {
 270              		.loc 1 260 0
 271              		.cfi_startproc
 272              		@ args = 0, pretend = 0, frame = 0
 273              		@ frame_needed = 0, uses_anonymous_args = 0
 274              		@ link register save eliminated.
 275              	.LVL8:
 261:lib/STM32F10x_StdPeriph_Driver/src/stm32f10x_dma.c **** /*-------------- Reset DMA init structure parameters values ------------------*/
 262:lib/STM32F10x_StdPeriph_Driver/src/stm32f10x_dma.c ****   /* Initialize the DMA_PeripheralBaseAddr member */
 263:lib/STM32F10x_StdPeriph_Driver/src/stm32f10x_dma.c ****   DMA_InitStruct->DMA_PeripheralBaseAddr = 0;
 276              		.loc 1 263 0
 277 0130 0023     		movs	r3, #0
 278 0132 0360     		str	r3, [r0]
 264:lib/STM32F10x_StdPeriph_Driver/src/stm32f10x_dma.c ****   /* Initialize the DMA_MemoryBaseAddr member */
 265:lib/STM32F10x_StdPeriph_Driver/src/stm32f10x_dma.c ****   DMA_InitStruct->DMA_MemoryBaseAddr = 0;
 279              		.loc 1 265 0
 280 0134 4360     		str	r3, [r0, #4]
 266:lib/STM32F10x_StdPeriph_Driver/src/stm32f10x_dma.c ****   /* Initialize the DMA_DIR member */
 267:lib/STM32F10x_StdPeriph_Driver/src/stm32f10x_dma.c ****   DMA_InitStruct->DMA_DIR = DMA_DIR_PeripheralSRC;
 281              		.loc 1 267 0
 282 0136 8360     		str	r3, [r0, #8]
 268:lib/STM32F10x_StdPeriph_Driver/src/stm32f10x_dma.c ****   /* Initialize the DMA_BufferSize member */
 269:lib/STM32F10x_StdPeriph_Driver/src/stm32f10x_dma.c ****   DMA_InitStruct->DMA_BufferSize = 0;
 283              		.loc 1 269 0
 284 0138 C360     		str	r3, [r0, #12]
 270:lib/STM32F10x_StdPeriph_Driver/src/stm32f10x_dma.c ****   /* Initialize the DMA_PeripheralInc member */
 271:lib/STM32F10x_StdPeriph_Driver/src/stm32f10x_dma.c ****   DMA_InitStruct->DMA_PeripheralInc = DMA_PeripheralInc_Disable;
 285              		.loc 1 271 0
 286 013a 0361     		str	r3, [r0, #16]
 272:lib/STM32F10x_StdPeriph_Driver/src/stm32f10x_dma.c ****   /* Initialize the DMA_MemoryInc member */
 273:lib/STM32F10x_StdPeriph_Driver/src/stm32f10x_dma.c ****   DMA_InitStruct->DMA_MemoryInc = DMA_MemoryInc_Disable;
 287              		.loc 1 273 0
 288 013c 4361     		str	r3, [r0, #20]
 274:lib/STM32F10x_StdPeriph_Driver/src/stm32f10x_dma.c ****   /* Initialize the DMA_PeripheralDataSize member */
 275:lib/STM32F10x_StdPeriph_Driver/src/stm32f10x_dma.c ****   DMA_InitStruct->DMA_PeripheralDataSize = DMA_PeripheralDataSize_Byte;
 289              		.loc 1 275 0
 290 013e 8361     		str	r3, [r0, #24]
 276:lib/STM32F10x_StdPeriph_Driver/src/stm32f10x_dma.c ****   /* Initialize the DMA_MemoryDataSize member */
 277:lib/STM32F10x_StdPeriph_Driver/src/stm32f10x_dma.c ****   DMA_InitStruct->DMA_MemoryDataSize = DMA_MemoryDataSize_Byte;
 291              		.loc 1 277 0
 292 0140 C361     		str	r3, [r0, #28]
 278:lib/STM32F10x_StdPeriph_Driver/src/stm32f10x_dma.c ****   /* Initialize the DMA_Mode member */
 279:lib/STM32F10x_StdPeriph_Driver/src/stm32f10x_dma.c ****   DMA_InitStruct->DMA_Mode = DMA_Mode_Normal;
 293              		.loc 1 279 0
 294 0142 0362     		str	r3, [r0, #32]
 280:lib/STM32F10x_StdPeriph_Driver/src/stm32f10x_dma.c ****   /* Initialize the DMA_Priority member */
 281:lib/STM32F10x_StdPeriph_Driver/src/stm32f10x_dma.c ****   DMA_InitStruct->DMA_Priority = DMA_Priority_Low;
 295              		.loc 1 281 0
 296 0144 4362     		str	r3, [r0, #36]
 282:lib/STM32F10x_StdPeriph_Driver/src/stm32f10x_dma.c ****   /* Initialize the DMA_M2M member */
 283:lib/STM32F10x_StdPeriph_Driver/src/stm32f10x_dma.c ****   DMA_InitStruct->DMA_M2M = DMA_M2M_Disable;
 297              		.loc 1 283 0
 298 0146 8362     		str	r3, [r0, #40]
 299 0148 7047     		bx	lr
 300              		.cfi_endproc
 301              	.LFE31:
 303              		.align	1
 304              		.global	DMA_Cmd
 305              		.syntax unified
 306              		.thumb
 307              		.thumb_func
 308              		.fpu softvfp
 310              	DMA_Cmd:
 311              	.LFB32:
 284:lib/STM32F10x_StdPeriph_Driver/src/stm32f10x_dma.c **** }
 285:lib/STM32F10x_StdPeriph_Driver/src/stm32f10x_dma.c **** 
 286:lib/STM32F10x_StdPeriph_Driver/src/stm32f10x_dma.c **** /**
 287:lib/STM32F10x_StdPeriph_Driver/src/stm32f10x_dma.c ****   * @brief  Enables or disables the specified DMAy Channelx.
 288:lib/STM32F10x_StdPeriph_Driver/src/stm32f10x_dma.c ****   * @param  DMAy_Channelx: where y can be 1 or 2 to select the DMA and 
 289:lib/STM32F10x_StdPeriph_Driver/src/stm32f10x_dma.c ****   *   x can be 1 to 7 for DMA1 and 1 to 5 for DMA2 to select the DMA Channel.
 290:lib/STM32F10x_StdPeriph_Driver/src/stm32f10x_dma.c ****   * @param  NewState: new state of the DMAy Channelx. 
 291:lib/STM32F10x_StdPeriph_Driver/src/stm32f10x_dma.c ****   *   This parameter can be: ENABLE or DISABLE.
 292:lib/STM32F10x_StdPeriph_Driver/src/stm32f10x_dma.c ****   * @retval None
 293:lib/STM32F10x_StdPeriph_Driver/src/stm32f10x_dma.c ****   */
 294:lib/STM32F10x_StdPeriph_Driver/src/stm32f10x_dma.c **** void DMA_Cmd(DMA_Channel_TypeDef* DMAy_Channelx, FunctionalState NewState)
 295:lib/STM32F10x_StdPeriph_Driver/src/stm32f10x_dma.c **** {
 312              		.loc 1 295 0
 313              		.cfi_startproc
 314              		@ args = 0, pretend = 0, frame = 0
 315              		@ frame_needed = 0, uses_anonymous_args = 0
 316              		@ link register save eliminated.
 317              	.LVL9:
 296:lib/STM32F10x_StdPeriph_Driver/src/stm32f10x_dma.c ****   /* Check the parameters */
 297:lib/STM32F10x_StdPeriph_Driver/src/stm32f10x_dma.c ****   assert_param(IS_DMA_ALL_PERIPH(DMAy_Channelx));
 298:lib/STM32F10x_StdPeriph_Driver/src/stm32f10x_dma.c ****   assert_param(IS_FUNCTIONAL_STATE(NewState));
 299:lib/STM32F10x_StdPeriph_Driver/src/stm32f10x_dma.c **** 
 300:lib/STM32F10x_StdPeriph_Driver/src/stm32f10x_dma.c ****   if (NewState != DISABLE)
 301:lib/STM32F10x_StdPeriph_Driver/src/stm32f10x_dma.c ****   {
 302:lib/STM32F10x_StdPeriph_Driver/src/stm32f10x_dma.c ****     /* Enable the selected DMAy Channelx */
 303:lib/STM32F10x_StdPeriph_Driver/src/stm32f10x_dma.c ****     DMAy_Channelx->CCR |= DMA_CCR1_EN;
 318              		.loc 1 303 0
 319 014a 0368     		ldr	r3, [r0]
 300:lib/STM32F10x_StdPeriph_Driver/src/stm32f10x_dma.c ****   {
 320              		.loc 1 300 0
 321 014c 19B1     		cbz	r1, .L25
 322              		.loc 1 303 0
 323 014e 43F00103 		orr	r3, r3, #1
 324              	.L27:
 304:lib/STM32F10x_StdPeriph_Driver/src/stm32f10x_dma.c ****   }
 305:lib/STM32F10x_StdPeriph_Driver/src/stm32f10x_dma.c ****   else
 306:lib/STM32F10x_StdPeriph_Driver/src/stm32f10x_dma.c ****   {
 307:lib/STM32F10x_StdPeriph_Driver/src/stm32f10x_dma.c ****     /* Disable the selected DMAy Channelx */
 308:lib/STM32F10x_StdPeriph_Driver/src/stm32f10x_dma.c ****     DMAy_Channelx->CCR &= (uint16_t)(~DMA_CCR1_EN);
 325              		.loc 1 308 0
 326 0152 0360     		str	r3, [r0]
 327 0154 7047     		bx	lr
 328              	.L25:
 329 0156 23F00103 		bic	r3, r3, #1
 330 015a 1B04     		lsls	r3, r3, #16
 331 015c 1B0C     		lsrs	r3, r3, #16
 332 015e F8E7     		b	.L27
 333              		.cfi_endproc
 334              	.LFE32:
 336              		.align	1
 337              		.global	DMA_ITConfig
 338              		.syntax unified
 339              		.thumb
 340              		.thumb_func
 341              		.fpu softvfp
 343              	DMA_ITConfig:
 344              	.LFB33:
 309:lib/STM32F10x_StdPeriph_Driver/src/stm32f10x_dma.c ****   }
 310:lib/STM32F10x_StdPeriph_Driver/src/stm32f10x_dma.c **** }
 311:lib/STM32F10x_StdPeriph_Driver/src/stm32f10x_dma.c **** 
 312:lib/STM32F10x_StdPeriph_Driver/src/stm32f10x_dma.c **** /**
 313:lib/STM32F10x_StdPeriph_Driver/src/stm32f10x_dma.c ****   * @brief  Enables or disables the specified DMAy Channelx interrupts.
 314:lib/STM32F10x_StdPeriph_Driver/src/stm32f10x_dma.c ****   * @param  DMAy_Channelx: where y can be 1 or 2 to select the DMA and 
 315:lib/STM32F10x_StdPeriph_Driver/src/stm32f10x_dma.c ****   *   x can be 1 to 7 for DMA1 and 1 to 5 for DMA2 to select the DMA Channel.
 316:lib/STM32F10x_StdPeriph_Driver/src/stm32f10x_dma.c ****   * @param  DMA_IT: specifies the DMA interrupts sources to be enabled
 317:lib/STM32F10x_StdPeriph_Driver/src/stm32f10x_dma.c ****   *   or disabled. 
 318:lib/STM32F10x_StdPeriph_Driver/src/stm32f10x_dma.c ****   *   This parameter can be any combination of the following values:
 319:lib/STM32F10x_StdPeriph_Driver/src/stm32f10x_dma.c ****   *     @arg DMA_IT_TC:  Transfer complete interrupt mask
 320:lib/STM32F10x_StdPeriph_Driver/src/stm32f10x_dma.c ****   *     @arg DMA_IT_HT:  Half transfer interrupt mask
 321:lib/STM32F10x_StdPeriph_Driver/src/stm32f10x_dma.c ****   *     @arg DMA_IT_TE:  Transfer error interrupt mask
 322:lib/STM32F10x_StdPeriph_Driver/src/stm32f10x_dma.c ****   * @param  NewState: new state of the specified DMA interrupts.
 323:lib/STM32F10x_StdPeriph_Driver/src/stm32f10x_dma.c ****   *   This parameter can be: ENABLE or DISABLE.
 324:lib/STM32F10x_StdPeriph_Driver/src/stm32f10x_dma.c ****   * @retval None
 325:lib/STM32F10x_StdPeriph_Driver/src/stm32f10x_dma.c ****   */
 326:lib/STM32F10x_StdPeriph_Driver/src/stm32f10x_dma.c **** void DMA_ITConfig(DMA_Channel_TypeDef* DMAy_Channelx, uint32_t DMA_IT, FunctionalState NewState)
 327:lib/STM32F10x_StdPeriph_Driver/src/stm32f10x_dma.c **** {
 345              		.loc 1 327 0
 346              		.cfi_startproc
 347              		@ args = 0, pretend = 0, frame = 0
 348              		@ frame_needed = 0, uses_anonymous_args = 0
 349              		@ link register save eliminated.
 350              	.LVL10:
 328:lib/STM32F10x_StdPeriph_Driver/src/stm32f10x_dma.c ****   /* Check the parameters */
 329:lib/STM32F10x_StdPeriph_Driver/src/stm32f10x_dma.c ****   assert_param(IS_DMA_ALL_PERIPH(DMAy_Channelx));
 330:lib/STM32F10x_StdPeriph_Driver/src/stm32f10x_dma.c ****   assert_param(IS_DMA_CONFIG_IT(DMA_IT));
 331:lib/STM32F10x_StdPeriph_Driver/src/stm32f10x_dma.c ****   assert_param(IS_FUNCTIONAL_STATE(NewState));
 332:lib/STM32F10x_StdPeriph_Driver/src/stm32f10x_dma.c ****   if (NewState != DISABLE)
 333:lib/STM32F10x_StdPeriph_Driver/src/stm32f10x_dma.c ****   {
 334:lib/STM32F10x_StdPeriph_Driver/src/stm32f10x_dma.c ****     /* Enable the selected DMA interrupts */
 335:lib/STM32F10x_StdPeriph_Driver/src/stm32f10x_dma.c ****     DMAy_Channelx->CCR |= DMA_IT;
 351              		.loc 1 335 0
 352 0160 0368     		ldr	r3, [r0]
 332:lib/STM32F10x_StdPeriph_Driver/src/stm32f10x_dma.c ****   {
 353              		.loc 1 332 0
 354 0162 12B1     		cbz	r2, .L29
 355              		.loc 1 335 0
 356 0164 1943     		orrs	r1, r1, r3
 357              	.LVL11:
 358              	.L31:
 336:lib/STM32F10x_StdPeriph_Driver/src/stm32f10x_dma.c ****   }
 337:lib/STM32F10x_StdPeriph_Driver/src/stm32f10x_dma.c ****   else
 338:lib/STM32F10x_StdPeriph_Driver/src/stm32f10x_dma.c ****   {
 339:lib/STM32F10x_StdPeriph_Driver/src/stm32f10x_dma.c ****     /* Disable the selected DMA interrupts */
 340:lib/STM32F10x_StdPeriph_Driver/src/stm32f10x_dma.c ****     DMAy_Channelx->CCR &= ~DMA_IT;
 359              		.loc 1 340 0
 360 0166 0160     		str	r1, [r0]
 361 0168 7047     		bx	lr
 362              	.LVL12:
 363              	.L29:
 364 016a 23EA0101 		bic	r1, r3, r1
 365              	.LVL13:
 366 016e FAE7     		b	.L31
 367              		.cfi_endproc
 368              	.LFE33:
 370              		.align	1
 371              		.global	DMA_SetCurrDataCounter
 372              		.syntax unified
 373              		.thumb
 374              		.thumb_func
 375              		.fpu softvfp
 377              	DMA_SetCurrDataCounter:
 378              	.LFB34:
 341:lib/STM32F10x_StdPeriph_Driver/src/stm32f10x_dma.c ****   }
 342:lib/STM32F10x_StdPeriph_Driver/src/stm32f10x_dma.c **** }
 343:lib/STM32F10x_StdPeriph_Driver/src/stm32f10x_dma.c **** 
 344:lib/STM32F10x_StdPeriph_Driver/src/stm32f10x_dma.c **** /**
 345:lib/STM32F10x_StdPeriph_Driver/src/stm32f10x_dma.c ****   * @brief  Sets the number of data units in the current DMAy Channelx transfer.
 346:lib/STM32F10x_StdPeriph_Driver/src/stm32f10x_dma.c ****   * @param  DMAy_Channelx: where y can be 1 or 2 to select the DMA and 
 347:lib/STM32F10x_StdPeriph_Driver/src/stm32f10x_dma.c ****   *         x can be 1 to 7 for DMA1 and 1 to 5 for DMA2 to select the DMA Channel.
 348:lib/STM32F10x_StdPeriph_Driver/src/stm32f10x_dma.c ****   * @param  DataNumber: The number of data units in the current DMAy Channelx
 349:lib/STM32F10x_StdPeriph_Driver/src/stm32f10x_dma.c ****   *         transfer.   
 350:lib/STM32F10x_StdPeriph_Driver/src/stm32f10x_dma.c ****   * @note   This function can only be used when the DMAy_Channelx is disabled.                 
 351:lib/STM32F10x_StdPeriph_Driver/src/stm32f10x_dma.c ****   * @retval None.
 352:lib/STM32F10x_StdPeriph_Driver/src/stm32f10x_dma.c ****   */
 353:lib/STM32F10x_StdPeriph_Driver/src/stm32f10x_dma.c **** void DMA_SetCurrDataCounter(DMA_Channel_TypeDef* DMAy_Channelx, uint16_t DataNumber)
 354:lib/STM32F10x_StdPeriph_Driver/src/stm32f10x_dma.c **** {
 379              		.loc 1 354 0
 380              		.cfi_startproc
 381              		@ args = 0, pretend = 0, frame = 0
 382              		@ frame_needed = 0, uses_anonymous_args = 0
 383              		@ link register save eliminated.
 384              	.LVL14:
 355:lib/STM32F10x_StdPeriph_Driver/src/stm32f10x_dma.c ****   /* Check the parameters */
 356:lib/STM32F10x_StdPeriph_Driver/src/stm32f10x_dma.c ****   assert_param(IS_DMA_ALL_PERIPH(DMAy_Channelx));
 357:lib/STM32F10x_StdPeriph_Driver/src/stm32f10x_dma.c ****   
 358:lib/STM32F10x_StdPeriph_Driver/src/stm32f10x_dma.c **** /*--------------------------- DMAy Channelx CNDTR Configuration ---------------*/
 359:lib/STM32F10x_StdPeriph_Driver/src/stm32f10x_dma.c ****   /* Write to DMAy Channelx CNDTR */
 360:lib/STM32F10x_StdPeriph_Driver/src/stm32f10x_dma.c ****   DMAy_Channelx->CNDTR = DataNumber;  
 385              		.loc 1 360 0
 386 0170 4160     		str	r1, [r0, #4]
 387 0172 7047     		bx	lr
 388              		.cfi_endproc
 389              	.LFE34:
 391              		.align	1
 392              		.global	DMA_GetCurrDataCounter
 393              		.syntax unified
 394              		.thumb
 395              		.thumb_func
 396              		.fpu softvfp
 398              	DMA_GetCurrDataCounter:
 399              	.LFB35:
 361:lib/STM32F10x_StdPeriph_Driver/src/stm32f10x_dma.c **** }
 362:lib/STM32F10x_StdPeriph_Driver/src/stm32f10x_dma.c **** 
 363:lib/STM32F10x_StdPeriph_Driver/src/stm32f10x_dma.c **** /**
 364:lib/STM32F10x_StdPeriph_Driver/src/stm32f10x_dma.c ****   * @brief  Returns the number of remaining data units in the current
 365:lib/STM32F10x_StdPeriph_Driver/src/stm32f10x_dma.c ****   *         DMAy Channelx transfer.
 366:lib/STM32F10x_StdPeriph_Driver/src/stm32f10x_dma.c ****   * @param  DMAy_Channelx: where y can be 1 or 2 to select the DMA and 
 367:lib/STM32F10x_StdPeriph_Driver/src/stm32f10x_dma.c ****   *   x can be 1 to 7 for DMA1 and 1 to 5 for DMA2 to select the DMA Channel.
 368:lib/STM32F10x_StdPeriph_Driver/src/stm32f10x_dma.c ****   * @retval The number of remaining data units in the current DMAy Channelx
 369:lib/STM32F10x_StdPeriph_Driver/src/stm32f10x_dma.c ****   *         transfer.
 370:lib/STM32F10x_StdPeriph_Driver/src/stm32f10x_dma.c ****   */
 371:lib/STM32F10x_StdPeriph_Driver/src/stm32f10x_dma.c **** uint16_t DMA_GetCurrDataCounter(DMA_Channel_TypeDef* DMAy_Channelx)
 372:lib/STM32F10x_StdPeriph_Driver/src/stm32f10x_dma.c **** {
 400              		.loc 1 372 0
 401              		.cfi_startproc
 402              		@ args = 0, pretend = 0, frame = 0
 403              		@ frame_needed = 0, uses_anonymous_args = 0
 404              		@ link register save eliminated.
 405              	.LVL15:
 373:lib/STM32F10x_StdPeriph_Driver/src/stm32f10x_dma.c ****   /* Check the parameters */
 374:lib/STM32F10x_StdPeriph_Driver/src/stm32f10x_dma.c ****   assert_param(IS_DMA_ALL_PERIPH(DMAy_Channelx));
 375:lib/STM32F10x_StdPeriph_Driver/src/stm32f10x_dma.c ****   /* Return the number of remaining data units for DMAy Channelx */
 376:lib/STM32F10x_StdPeriph_Driver/src/stm32f10x_dma.c ****   return ((uint16_t)(DMAy_Channelx->CNDTR));
 406              		.loc 1 376 0
 407 0174 4068     		ldr	r0, [r0, #4]
 408              	.LVL16:
 377:lib/STM32F10x_StdPeriph_Driver/src/stm32f10x_dma.c **** }
 409              		.loc 1 377 0
 410 0176 80B2     		uxth	r0, r0
 411 0178 7047     		bx	lr
 412              		.cfi_endproc
 413              	.LFE35:
 415              		.align	1
 416              		.global	DMA_GetITStatus
 417              		.syntax unified
 418              		.thumb
 419              		.thumb_func
 420              		.fpu softvfp
 422              	DMA_GetITStatus:
 423              	.LFB38:
 378:lib/STM32F10x_StdPeriph_Driver/src/stm32f10x_dma.c **** 
 379:lib/STM32F10x_StdPeriph_Driver/src/stm32f10x_dma.c **** /**
 380:lib/STM32F10x_StdPeriph_Driver/src/stm32f10x_dma.c ****   * @brief  Checks whether the specified DMAy Channelx flag is set or not.
 381:lib/STM32F10x_StdPeriph_Driver/src/stm32f10x_dma.c ****   * @param  DMAy_FLAG: specifies the flag to check.
 382:lib/STM32F10x_StdPeriph_Driver/src/stm32f10x_dma.c ****   *   This parameter can be one of the following values:
 383:lib/STM32F10x_StdPeriph_Driver/src/stm32f10x_dma.c ****   *     @arg DMA1_FLAG_GL1: DMA1 Channel1 global flag.
 384:lib/STM32F10x_StdPeriph_Driver/src/stm32f10x_dma.c ****   *     @arg DMA1_FLAG_TC1: DMA1 Channel1 transfer complete flag.
 385:lib/STM32F10x_StdPeriph_Driver/src/stm32f10x_dma.c ****   *     @arg DMA1_FLAG_HT1: DMA1 Channel1 half transfer flag.
 386:lib/STM32F10x_StdPeriph_Driver/src/stm32f10x_dma.c ****   *     @arg DMA1_FLAG_TE1: DMA1 Channel1 transfer error flag.
 387:lib/STM32F10x_StdPeriph_Driver/src/stm32f10x_dma.c ****   *     @arg DMA1_FLAG_GL2: DMA1 Channel2 global flag.
 388:lib/STM32F10x_StdPeriph_Driver/src/stm32f10x_dma.c ****   *     @arg DMA1_FLAG_TC2: DMA1 Channel2 transfer complete flag.
 389:lib/STM32F10x_StdPeriph_Driver/src/stm32f10x_dma.c ****   *     @arg DMA1_FLAG_HT2: DMA1 Channel2 half transfer flag.
 390:lib/STM32F10x_StdPeriph_Driver/src/stm32f10x_dma.c ****   *     @arg DMA1_FLAG_TE2: DMA1 Channel2 transfer error flag.
 391:lib/STM32F10x_StdPeriph_Driver/src/stm32f10x_dma.c ****   *     @arg DMA1_FLAG_GL3: DMA1 Channel3 global flag.
 392:lib/STM32F10x_StdPeriph_Driver/src/stm32f10x_dma.c ****   *     @arg DMA1_FLAG_TC3: DMA1 Channel3 transfer complete flag.
 393:lib/STM32F10x_StdPeriph_Driver/src/stm32f10x_dma.c ****   *     @arg DMA1_FLAG_HT3: DMA1 Channel3 half transfer flag.
 394:lib/STM32F10x_StdPeriph_Driver/src/stm32f10x_dma.c ****   *     @arg DMA1_FLAG_TE3: DMA1 Channel3 transfer error flag.
 395:lib/STM32F10x_StdPeriph_Driver/src/stm32f10x_dma.c ****   *     @arg DMA1_FLAG_GL4: DMA1 Channel4 global flag.
 396:lib/STM32F10x_StdPeriph_Driver/src/stm32f10x_dma.c ****   *     @arg DMA1_FLAG_TC4: DMA1 Channel4 transfer complete flag.
 397:lib/STM32F10x_StdPeriph_Driver/src/stm32f10x_dma.c ****   *     @arg DMA1_FLAG_HT4: DMA1 Channel4 half transfer flag.
 398:lib/STM32F10x_StdPeriph_Driver/src/stm32f10x_dma.c ****   *     @arg DMA1_FLAG_TE4: DMA1 Channel4 transfer error flag.
 399:lib/STM32F10x_StdPeriph_Driver/src/stm32f10x_dma.c ****   *     @arg DMA1_FLAG_GL5: DMA1 Channel5 global flag.
 400:lib/STM32F10x_StdPeriph_Driver/src/stm32f10x_dma.c ****   *     @arg DMA1_FLAG_TC5: DMA1 Channel5 transfer complete flag.
 401:lib/STM32F10x_StdPeriph_Driver/src/stm32f10x_dma.c ****   *     @arg DMA1_FLAG_HT5: DMA1 Channel5 half transfer flag.
 402:lib/STM32F10x_StdPeriph_Driver/src/stm32f10x_dma.c ****   *     @arg DMA1_FLAG_TE5: DMA1 Channel5 transfer error flag.
 403:lib/STM32F10x_StdPeriph_Driver/src/stm32f10x_dma.c ****   *     @arg DMA1_FLAG_GL6: DMA1 Channel6 global flag.
 404:lib/STM32F10x_StdPeriph_Driver/src/stm32f10x_dma.c ****   *     @arg DMA1_FLAG_TC6: DMA1 Channel6 transfer complete flag.
 405:lib/STM32F10x_StdPeriph_Driver/src/stm32f10x_dma.c ****   *     @arg DMA1_FLAG_HT6: DMA1 Channel6 half transfer flag.
 406:lib/STM32F10x_StdPeriph_Driver/src/stm32f10x_dma.c ****   *     @arg DMA1_FLAG_TE6: DMA1 Channel6 transfer error flag.
 407:lib/STM32F10x_StdPeriph_Driver/src/stm32f10x_dma.c ****   *     @arg DMA1_FLAG_GL7: DMA1 Channel7 global flag.
 408:lib/STM32F10x_StdPeriph_Driver/src/stm32f10x_dma.c ****   *     @arg DMA1_FLAG_TC7: DMA1 Channel7 transfer complete flag.
 409:lib/STM32F10x_StdPeriph_Driver/src/stm32f10x_dma.c ****   *     @arg DMA1_FLAG_HT7: DMA1 Channel7 half transfer flag.
 410:lib/STM32F10x_StdPeriph_Driver/src/stm32f10x_dma.c ****   *     @arg DMA1_FLAG_TE7: DMA1 Channel7 transfer error flag.
 411:lib/STM32F10x_StdPeriph_Driver/src/stm32f10x_dma.c ****   *     @arg DMA2_FLAG_GL1: DMA2 Channel1 global flag.
 412:lib/STM32F10x_StdPeriph_Driver/src/stm32f10x_dma.c ****   *     @arg DMA2_FLAG_TC1: DMA2 Channel1 transfer complete flag.
 413:lib/STM32F10x_StdPeriph_Driver/src/stm32f10x_dma.c ****   *     @arg DMA2_FLAG_HT1: DMA2 Channel1 half transfer flag.
 414:lib/STM32F10x_StdPeriph_Driver/src/stm32f10x_dma.c ****   *     @arg DMA2_FLAG_TE1: DMA2 Channel1 transfer error flag.
 415:lib/STM32F10x_StdPeriph_Driver/src/stm32f10x_dma.c ****   *     @arg DMA2_FLAG_GL2: DMA2 Channel2 global flag.
 416:lib/STM32F10x_StdPeriph_Driver/src/stm32f10x_dma.c ****   *     @arg DMA2_FLAG_TC2: DMA2 Channel2 transfer complete flag.
 417:lib/STM32F10x_StdPeriph_Driver/src/stm32f10x_dma.c ****   *     @arg DMA2_FLAG_HT2: DMA2 Channel2 half transfer flag.
 418:lib/STM32F10x_StdPeriph_Driver/src/stm32f10x_dma.c ****   *     @arg DMA2_FLAG_TE2: DMA2 Channel2 transfer error flag.
 419:lib/STM32F10x_StdPeriph_Driver/src/stm32f10x_dma.c ****   *     @arg DMA2_FLAG_GL3: DMA2 Channel3 global flag.
 420:lib/STM32F10x_StdPeriph_Driver/src/stm32f10x_dma.c ****   *     @arg DMA2_FLAG_TC3: DMA2 Channel3 transfer complete flag.
 421:lib/STM32F10x_StdPeriph_Driver/src/stm32f10x_dma.c ****   *     @arg DMA2_FLAG_HT3: DMA2 Channel3 half transfer flag.
 422:lib/STM32F10x_StdPeriph_Driver/src/stm32f10x_dma.c ****   *     @arg DMA2_FLAG_TE3: DMA2 Channel3 transfer error flag.
 423:lib/STM32F10x_StdPeriph_Driver/src/stm32f10x_dma.c ****   *     @arg DMA2_FLAG_GL4: DMA2 Channel4 global flag.
 424:lib/STM32F10x_StdPeriph_Driver/src/stm32f10x_dma.c ****   *     @arg DMA2_FLAG_TC4: DMA2 Channel4 transfer complete flag.
 425:lib/STM32F10x_StdPeriph_Driver/src/stm32f10x_dma.c ****   *     @arg DMA2_FLAG_HT4: DMA2 Channel4 half transfer flag.
 426:lib/STM32F10x_StdPeriph_Driver/src/stm32f10x_dma.c ****   *     @arg DMA2_FLAG_TE4: DMA2 Channel4 transfer error flag.
 427:lib/STM32F10x_StdPeriph_Driver/src/stm32f10x_dma.c ****   *     @arg DMA2_FLAG_GL5: DMA2 Channel5 global flag.
 428:lib/STM32F10x_StdPeriph_Driver/src/stm32f10x_dma.c ****   *     @arg DMA2_FLAG_TC5: DMA2 Channel5 transfer complete flag.
 429:lib/STM32F10x_StdPeriph_Driver/src/stm32f10x_dma.c ****   *     @arg DMA2_FLAG_HT5: DMA2 Channel5 half transfer flag.
 430:lib/STM32F10x_StdPeriph_Driver/src/stm32f10x_dma.c ****   *     @arg DMA2_FLAG_TE5: DMA2 Channel5 transfer error flag.
 431:lib/STM32F10x_StdPeriph_Driver/src/stm32f10x_dma.c ****   * @retval The new state of DMAy_FLAG (SET or RESET).
 432:lib/STM32F10x_StdPeriph_Driver/src/stm32f10x_dma.c ****   */
 433:lib/STM32F10x_StdPeriph_Driver/src/stm32f10x_dma.c **** FlagStatus DMA_GetFlagStatus(uint32_t DMAy_FLAG)
 434:lib/STM32F10x_StdPeriph_Driver/src/stm32f10x_dma.c **** {
 435:lib/STM32F10x_StdPeriph_Driver/src/stm32f10x_dma.c ****   FlagStatus bitstatus = RESET;
 436:lib/STM32F10x_StdPeriph_Driver/src/stm32f10x_dma.c ****   uint32_t tmpreg = 0;
 437:lib/STM32F10x_StdPeriph_Driver/src/stm32f10x_dma.c ****   
 438:lib/STM32F10x_StdPeriph_Driver/src/stm32f10x_dma.c ****   /* Check the parameters */
 439:lib/STM32F10x_StdPeriph_Driver/src/stm32f10x_dma.c ****   assert_param(IS_DMA_GET_FLAG(DMAy_FLAG));
 440:lib/STM32F10x_StdPeriph_Driver/src/stm32f10x_dma.c **** 
 441:lib/STM32F10x_StdPeriph_Driver/src/stm32f10x_dma.c ****   /* Calculate the used DMAy */
 442:lib/STM32F10x_StdPeriph_Driver/src/stm32f10x_dma.c ****   if ((DMAy_FLAG & FLAG_Mask) != (uint32_t)RESET)
 443:lib/STM32F10x_StdPeriph_Driver/src/stm32f10x_dma.c ****   {
 444:lib/STM32F10x_StdPeriph_Driver/src/stm32f10x_dma.c ****     /* Get DMA2 ISR register value */
 445:lib/STM32F10x_StdPeriph_Driver/src/stm32f10x_dma.c ****     tmpreg = DMA2->ISR ;
 446:lib/STM32F10x_StdPeriph_Driver/src/stm32f10x_dma.c ****   }
 447:lib/STM32F10x_StdPeriph_Driver/src/stm32f10x_dma.c ****   else
 448:lib/STM32F10x_StdPeriph_Driver/src/stm32f10x_dma.c ****   {
 449:lib/STM32F10x_StdPeriph_Driver/src/stm32f10x_dma.c ****     /* Get DMA1 ISR register value */
 450:lib/STM32F10x_StdPeriph_Driver/src/stm32f10x_dma.c ****     tmpreg = DMA1->ISR ;
 451:lib/STM32F10x_StdPeriph_Driver/src/stm32f10x_dma.c ****   }
 452:lib/STM32F10x_StdPeriph_Driver/src/stm32f10x_dma.c **** 
 453:lib/STM32F10x_StdPeriph_Driver/src/stm32f10x_dma.c ****   /* Check the status of the specified DMAy flag */
 454:lib/STM32F10x_StdPeriph_Driver/src/stm32f10x_dma.c ****   if ((tmpreg & DMAy_FLAG) != (uint32_t)RESET)
 455:lib/STM32F10x_StdPeriph_Driver/src/stm32f10x_dma.c ****   {
 456:lib/STM32F10x_StdPeriph_Driver/src/stm32f10x_dma.c ****     /* DMAy_FLAG is set */
 457:lib/STM32F10x_StdPeriph_Driver/src/stm32f10x_dma.c ****     bitstatus = SET;
 458:lib/STM32F10x_StdPeriph_Driver/src/stm32f10x_dma.c ****   }
 459:lib/STM32F10x_StdPeriph_Driver/src/stm32f10x_dma.c ****   else
 460:lib/STM32F10x_StdPeriph_Driver/src/stm32f10x_dma.c ****   {
 461:lib/STM32F10x_StdPeriph_Driver/src/stm32f10x_dma.c ****     /* DMAy_FLAG is reset */
 462:lib/STM32F10x_StdPeriph_Driver/src/stm32f10x_dma.c ****     bitstatus = RESET;
 463:lib/STM32F10x_StdPeriph_Driver/src/stm32f10x_dma.c ****   }
 464:lib/STM32F10x_StdPeriph_Driver/src/stm32f10x_dma.c ****   
 465:lib/STM32F10x_StdPeriph_Driver/src/stm32f10x_dma.c ****   /* Return the DMAy_FLAG status */
 466:lib/STM32F10x_StdPeriph_Driver/src/stm32f10x_dma.c ****   return  bitstatus;
 467:lib/STM32F10x_StdPeriph_Driver/src/stm32f10x_dma.c **** }
 468:lib/STM32F10x_StdPeriph_Driver/src/stm32f10x_dma.c **** 
 469:lib/STM32F10x_StdPeriph_Driver/src/stm32f10x_dma.c **** /**
 470:lib/STM32F10x_StdPeriph_Driver/src/stm32f10x_dma.c ****   * @brief  Clears the DMAy Channelx's pending flags.
 471:lib/STM32F10x_StdPeriph_Driver/src/stm32f10x_dma.c ****   * @param  DMAy_FLAG: specifies the flag to clear.
 472:lib/STM32F10x_StdPeriph_Driver/src/stm32f10x_dma.c ****   *   This parameter can be any combination (for the same DMA) of the following values:
 473:lib/STM32F10x_StdPeriph_Driver/src/stm32f10x_dma.c ****   *     @arg DMA1_FLAG_GL1: DMA1 Channel1 global flag.
 474:lib/STM32F10x_StdPeriph_Driver/src/stm32f10x_dma.c ****   *     @arg DMA1_FLAG_TC1: DMA1 Channel1 transfer complete flag.
 475:lib/STM32F10x_StdPeriph_Driver/src/stm32f10x_dma.c ****   *     @arg DMA1_FLAG_HT1: DMA1 Channel1 half transfer flag.
 476:lib/STM32F10x_StdPeriph_Driver/src/stm32f10x_dma.c ****   *     @arg DMA1_FLAG_TE1: DMA1 Channel1 transfer error flag.
 477:lib/STM32F10x_StdPeriph_Driver/src/stm32f10x_dma.c ****   *     @arg DMA1_FLAG_GL2: DMA1 Channel2 global flag.
 478:lib/STM32F10x_StdPeriph_Driver/src/stm32f10x_dma.c ****   *     @arg DMA1_FLAG_TC2: DMA1 Channel2 transfer complete flag.
 479:lib/STM32F10x_StdPeriph_Driver/src/stm32f10x_dma.c ****   *     @arg DMA1_FLAG_HT2: DMA1 Channel2 half transfer flag.
 480:lib/STM32F10x_StdPeriph_Driver/src/stm32f10x_dma.c ****   *     @arg DMA1_FLAG_TE2: DMA1 Channel2 transfer error flag.
 481:lib/STM32F10x_StdPeriph_Driver/src/stm32f10x_dma.c ****   *     @arg DMA1_FLAG_GL3: DMA1 Channel3 global flag.
 482:lib/STM32F10x_StdPeriph_Driver/src/stm32f10x_dma.c ****   *     @arg DMA1_FLAG_TC3: DMA1 Channel3 transfer complete flag.
 483:lib/STM32F10x_StdPeriph_Driver/src/stm32f10x_dma.c ****   *     @arg DMA1_FLAG_HT3: DMA1 Channel3 half transfer flag.
 484:lib/STM32F10x_StdPeriph_Driver/src/stm32f10x_dma.c ****   *     @arg DMA1_FLAG_TE3: DMA1 Channel3 transfer error flag.
 485:lib/STM32F10x_StdPeriph_Driver/src/stm32f10x_dma.c ****   *     @arg DMA1_FLAG_GL4: DMA1 Channel4 global flag.
 486:lib/STM32F10x_StdPeriph_Driver/src/stm32f10x_dma.c ****   *     @arg DMA1_FLAG_TC4: DMA1 Channel4 transfer complete flag.
 487:lib/STM32F10x_StdPeriph_Driver/src/stm32f10x_dma.c ****   *     @arg DMA1_FLAG_HT4: DMA1 Channel4 half transfer flag.
 488:lib/STM32F10x_StdPeriph_Driver/src/stm32f10x_dma.c ****   *     @arg DMA1_FLAG_TE4: DMA1 Channel4 transfer error flag.
 489:lib/STM32F10x_StdPeriph_Driver/src/stm32f10x_dma.c ****   *     @arg DMA1_FLAG_GL5: DMA1 Channel5 global flag.
 490:lib/STM32F10x_StdPeriph_Driver/src/stm32f10x_dma.c ****   *     @arg DMA1_FLAG_TC5: DMA1 Channel5 transfer complete flag.
 491:lib/STM32F10x_StdPeriph_Driver/src/stm32f10x_dma.c ****   *     @arg DMA1_FLAG_HT5: DMA1 Channel5 half transfer flag.
 492:lib/STM32F10x_StdPeriph_Driver/src/stm32f10x_dma.c ****   *     @arg DMA1_FLAG_TE5: DMA1 Channel5 transfer error flag.
 493:lib/STM32F10x_StdPeriph_Driver/src/stm32f10x_dma.c ****   *     @arg DMA1_FLAG_GL6: DMA1 Channel6 global flag.
 494:lib/STM32F10x_StdPeriph_Driver/src/stm32f10x_dma.c ****   *     @arg DMA1_FLAG_TC6: DMA1 Channel6 transfer complete flag.
 495:lib/STM32F10x_StdPeriph_Driver/src/stm32f10x_dma.c ****   *     @arg DMA1_FLAG_HT6: DMA1 Channel6 half transfer flag.
 496:lib/STM32F10x_StdPeriph_Driver/src/stm32f10x_dma.c ****   *     @arg DMA1_FLAG_TE6: DMA1 Channel6 transfer error flag.
 497:lib/STM32F10x_StdPeriph_Driver/src/stm32f10x_dma.c ****   *     @arg DMA1_FLAG_GL7: DMA1 Channel7 global flag.
 498:lib/STM32F10x_StdPeriph_Driver/src/stm32f10x_dma.c ****   *     @arg DMA1_FLAG_TC7: DMA1 Channel7 transfer complete flag.
 499:lib/STM32F10x_StdPeriph_Driver/src/stm32f10x_dma.c ****   *     @arg DMA1_FLAG_HT7: DMA1 Channel7 half transfer flag.
 500:lib/STM32F10x_StdPeriph_Driver/src/stm32f10x_dma.c ****   *     @arg DMA1_FLAG_TE7: DMA1 Channel7 transfer error flag.
 501:lib/STM32F10x_StdPeriph_Driver/src/stm32f10x_dma.c ****   *     @arg DMA2_FLAG_GL1: DMA2 Channel1 global flag.
 502:lib/STM32F10x_StdPeriph_Driver/src/stm32f10x_dma.c ****   *     @arg DMA2_FLAG_TC1: DMA2 Channel1 transfer complete flag.
 503:lib/STM32F10x_StdPeriph_Driver/src/stm32f10x_dma.c ****   *     @arg DMA2_FLAG_HT1: DMA2 Channel1 half transfer flag.
 504:lib/STM32F10x_StdPeriph_Driver/src/stm32f10x_dma.c ****   *     @arg DMA2_FLAG_TE1: DMA2 Channel1 transfer error flag.
 505:lib/STM32F10x_StdPeriph_Driver/src/stm32f10x_dma.c ****   *     @arg DMA2_FLAG_GL2: DMA2 Channel2 global flag.
 506:lib/STM32F10x_StdPeriph_Driver/src/stm32f10x_dma.c ****   *     @arg DMA2_FLAG_TC2: DMA2 Channel2 transfer complete flag.
 507:lib/STM32F10x_StdPeriph_Driver/src/stm32f10x_dma.c ****   *     @arg DMA2_FLAG_HT2: DMA2 Channel2 half transfer flag.
 508:lib/STM32F10x_StdPeriph_Driver/src/stm32f10x_dma.c ****   *     @arg DMA2_FLAG_TE2: DMA2 Channel2 transfer error flag.
 509:lib/STM32F10x_StdPeriph_Driver/src/stm32f10x_dma.c ****   *     @arg DMA2_FLAG_GL3: DMA2 Channel3 global flag.
 510:lib/STM32F10x_StdPeriph_Driver/src/stm32f10x_dma.c ****   *     @arg DMA2_FLAG_TC3: DMA2 Channel3 transfer complete flag.
 511:lib/STM32F10x_StdPeriph_Driver/src/stm32f10x_dma.c ****   *     @arg DMA2_FLAG_HT3: DMA2 Channel3 half transfer flag.
 512:lib/STM32F10x_StdPeriph_Driver/src/stm32f10x_dma.c ****   *     @arg DMA2_FLAG_TE3: DMA2 Channel3 transfer error flag.
 513:lib/STM32F10x_StdPeriph_Driver/src/stm32f10x_dma.c ****   *     @arg DMA2_FLAG_GL4: DMA2 Channel4 global flag.
 514:lib/STM32F10x_StdPeriph_Driver/src/stm32f10x_dma.c ****   *     @arg DMA2_FLAG_TC4: DMA2 Channel4 transfer complete flag.
 515:lib/STM32F10x_StdPeriph_Driver/src/stm32f10x_dma.c ****   *     @arg DMA2_FLAG_HT4: DMA2 Channel4 half transfer flag.
 516:lib/STM32F10x_StdPeriph_Driver/src/stm32f10x_dma.c ****   *     @arg DMA2_FLAG_TE4: DMA2 Channel4 transfer error flag.
 517:lib/STM32F10x_StdPeriph_Driver/src/stm32f10x_dma.c ****   *     @arg DMA2_FLAG_GL5: DMA2 Channel5 global flag.
 518:lib/STM32F10x_StdPeriph_Driver/src/stm32f10x_dma.c ****   *     @arg DMA2_FLAG_TC5: DMA2 Channel5 transfer complete flag.
 519:lib/STM32F10x_StdPeriph_Driver/src/stm32f10x_dma.c ****   *     @arg DMA2_FLAG_HT5: DMA2 Channel5 half transfer flag.
 520:lib/STM32F10x_StdPeriph_Driver/src/stm32f10x_dma.c ****   *     @arg DMA2_FLAG_TE5: DMA2 Channel5 transfer error flag.
 521:lib/STM32F10x_StdPeriph_Driver/src/stm32f10x_dma.c ****   * @retval None
 522:lib/STM32F10x_StdPeriph_Driver/src/stm32f10x_dma.c ****   */
 523:lib/STM32F10x_StdPeriph_Driver/src/stm32f10x_dma.c **** void DMA_ClearFlag(uint32_t DMAy_FLAG)
 524:lib/STM32F10x_StdPeriph_Driver/src/stm32f10x_dma.c **** {
 525:lib/STM32F10x_StdPeriph_Driver/src/stm32f10x_dma.c ****   /* Check the parameters */
 526:lib/STM32F10x_StdPeriph_Driver/src/stm32f10x_dma.c ****   assert_param(IS_DMA_CLEAR_FLAG(DMAy_FLAG));
 527:lib/STM32F10x_StdPeriph_Driver/src/stm32f10x_dma.c **** 
 528:lib/STM32F10x_StdPeriph_Driver/src/stm32f10x_dma.c ****   /* Calculate the used DMAy */
 529:lib/STM32F10x_StdPeriph_Driver/src/stm32f10x_dma.c ****   if ((DMAy_FLAG & FLAG_Mask) != (uint32_t)RESET)
 530:lib/STM32F10x_StdPeriph_Driver/src/stm32f10x_dma.c ****   {
 531:lib/STM32F10x_StdPeriph_Driver/src/stm32f10x_dma.c ****     /* Clear the selected DMAy flags */
 532:lib/STM32F10x_StdPeriph_Driver/src/stm32f10x_dma.c ****     DMA2->IFCR = DMAy_FLAG;
 533:lib/STM32F10x_StdPeriph_Driver/src/stm32f10x_dma.c ****   }
 534:lib/STM32F10x_StdPeriph_Driver/src/stm32f10x_dma.c ****   else
 535:lib/STM32F10x_StdPeriph_Driver/src/stm32f10x_dma.c ****   {
 536:lib/STM32F10x_StdPeriph_Driver/src/stm32f10x_dma.c ****     /* Clear the selected DMAy flags */
 537:lib/STM32F10x_StdPeriph_Driver/src/stm32f10x_dma.c ****     DMA1->IFCR = DMAy_FLAG;
 538:lib/STM32F10x_StdPeriph_Driver/src/stm32f10x_dma.c ****   }
 539:lib/STM32F10x_StdPeriph_Driver/src/stm32f10x_dma.c **** }
 540:lib/STM32F10x_StdPeriph_Driver/src/stm32f10x_dma.c **** 
 541:lib/STM32F10x_StdPeriph_Driver/src/stm32f10x_dma.c **** /**
 542:lib/STM32F10x_StdPeriph_Driver/src/stm32f10x_dma.c ****   * @brief  Checks whether the specified DMAy Channelx interrupt has occurred or not.
 543:lib/STM32F10x_StdPeriph_Driver/src/stm32f10x_dma.c ****   * @param  DMAy_IT: specifies the DMAy interrupt source to check. 
 544:lib/STM32F10x_StdPeriph_Driver/src/stm32f10x_dma.c ****   *   This parameter can be one of the following values:
 545:lib/STM32F10x_StdPeriph_Driver/src/stm32f10x_dma.c ****   *     @arg DMA1_IT_GL1: DMA1 Channel1 global interrupt.
 546:lib/STM32F10x_StdPeriph_Driver/src/stm32f10x_dma.c ****   *     @arg DMA1_IT_TC1: DMA1 Channel1 transfer complete interrupt.
 547:lib/STM32F10x_StdPeriph_Driver/src/stm32f10x_dma.c ****   *     @arg DMA1_IT_HT1: DMA1 Channel1 half transfer interrupt.
 548:lib/STM32F10x_StdPeriph_Driver/src/stm32f10x_dma.c ****   *     @arg DMA1_IT_TE1: DMA1 Channel1 transfer error interrupt.
 549:lib/STM32F10x_StdPeriph_Driver/src/stm32f10x_dma.c ****   *     @arg DMA1_IT_GL2: DMA1 Channel2 global interrupt.
 550:lib/STM32F10x_StdPeriph_Driver/src/stm32f10x_dma.c ****   *     @arg DMA1_IT_TC2: DMA1 Channel2 transfer complete interrupt.
 551:lib/STM32F10x_StdPeriph_Driver/src/stm32f10x_dma.c ****   *     @arg DMA1_IT_HT2: DMA1 Channel2 half transfer interrupt.
 552:lib/STM32F10x_StdPeriph_Driver/src/stm32f10x_dma.c ****   *     @arg DMA1_IT_TE2: DMA1 Channel2 transfer error interrupt.
 553:lib/STM32F10x_StdPeriph_Driver/src/stm32f10x_dma.c ****   *     @arg DMA1_IT_GL3: DMA1 Channel3 global interrupt.
 554:lib/STM32F10x_StdPeriph_Driver/src/stm32f10x_dma.c ****   *     @arg DMA1_IT_TC3: DMA1 Channel3 transfer complete interrupt.
 555:lib/STM32F10x_StdPeriph_Driver/src/stm32f10x_dma.c ****   *     @arg DMA1_IT_HT3: DMA1 Channel3 half transfer interrupt.
 556:lib/STM32F10x_StdPeriph_Driver/src/stm32f10x_dma.c ****   *     @arg DMA1_IT_TE3: DMA1 Channel3 transfer error interrupt.
 557:lib/STM32F10x_StdPeriph_Driver/src/stm32f10x_dma.c ****   *     @arg DMA1_IT_GL4: DMA1 Channel4 global interrupt.
 558:lib/STM32F10x_StdPeriph_Driver/src/stm32f10x_dma.c ****   *     @arg DMA1_IT_TC4: DMA1 Channel4 transfer complete interrupt.
 559:lib/STM32F10x_StdPeriph_Driver/src/stm32f10x_dma.c ****   *     @arg DMA1_IT_HT4: DMA1 Channel4 half transfer interrupt.
 560:lib/STM32F10x_StdPeriph_Driver/src/stm32f10x_dma.c ****   *     @arg DMA1_IT_TE4: DMA1 Channel4 transfer error interrupt.
 561:lib/STM32F10x_StdPeriph_Driver/src/stm32f10x_dma.c ****   *     @arg DMA1_IT_GL5: DMA1 Channel5 global interrupt.
 562:lib/STM32F10x_StdPeriph_Driver/src/stm32f10x_dma.c ****   *     @arg DMA1_IT_TC5: DMA1 Channel5 transfer complete interrupt.
 563:lib/STM32F10x_StdPeriph_Driver/src/stm32f10x_dma.c ****   *     @arg DMA1_IT_HT5: DMA1 Channel5 half transfer interrupt.
 564:lib/STM32F10x_StdPeriph_Driver/src/stm32f10x_dma.c ****   *     @arg DMA1_IT_TE5: DMA1 Channel5 transfer error interrupt.
 565:lib/STM32F10x_StdPeriph_Driver/src/stm32f10x_dma.c ****   *     @arg DMA1_IT_GL6: DMA1 Channel6 global interrupt.
 566:lib/STM32F10x_StdPeriph_Driver/src/stm32f10x_dma.c ****   *     @arg DMA1_IT_TC6: DMA1 Channel6 transfer complete interrupt.
 567:lib/STM32F10x_StdPeriph_Driver/src/stm32f10x_dma.c ****   *     @arg DMA1_IT_HT6: DMA1 Channel6 half transfer interrupt.
 568:lib/STM32F10x_StdPeriph_Driver/src/stm32f10x_dma.c ****   *     @arg DMA1_IT_TE6: DMA1 Channel6 transfer error interrupt.
 569:lib/STM32F10x_StdPeriph_Driver/src/stm32f10x_dma.c ****   *     @arg DMA1_IT_GL7: DMA1 Channel7 global interrupt.
 570:lib/STM32F10x_StdPeriph_Driver/src/stm32f10x_dma.c ****   *     @arg DMA1_IT_TC7: DMA1 Channel7 transfer complete interrupt.
 571:lib/STM32F10x_StdPeriph_Driver/src/stm32f10x_dma.c ****   *     @arg DMA1_IT_HT7: DMA1 Channel7 half transfer interrupt.
 572:lib/STM32F10x_StdPeriph_Driver/src/stm32f10x_dma.c ****   *     @arg DMA1_IT_TE7: DMA1 Channel7 transfer error interrupt.
 573:lib/STM32F10x_StdPeriph_Driver/src/stm32f10x_dma.c ****   *     @arg DMA2_IT_GL1: DMA2 Channel1 global interrupt.
 574:lib/STM32F10x_StdPeriph_Driver/src/stm32f10x_dma.c ****   *     @arg DMA2_IT_TC1: DMA2 Channel1 transfer complete interrupt.
 575:lib/STM32F10x_StdPeriph_Driver/src/stm32f10x_dma.c ****   *     @arg DMA2_IT_HT1: DMA2 Channel1 half transfer interrupt.
 576:lib/STM32F10x_StdPeriph_Driver/src/stm32f10x_dma.c ****   *     @arg DMA2_IT_TE1: DMA2 Channel1 transfer error interrupt.
 577:lib/STM32F10x_StdPeriph_Driver/src/stm32f10x_dma.c ****   *     @arg DMA2_IT_GL2: DMA2 Channel2 global interrupt.
 578:lib/STM32F10x_StdPeriph_Driver/src/stm32f10x_dma.c ****   *     @arg DMA2_IT_TC2: DMA2 Channel2 transfer complete interrupt.
 579:lib/STM32F10x_StdPeriph_Driver/src/stm32f10x_dma.c ****   *     @arg DMA2_IT_HT2: DMA2 Channel2 half transfer interrupt.
 580:lib/STM32F10x_StdPeriph_Driver/src/stm32f10x_dma.c ****   *     @arg DMA2_IT_TE2: DMA2 Channel2 transfer error interrupt.
 581:lib/STM32F10x_StdPeriph_Driver/src/stm32f10x_dma.c ****   *     @arg DMA2_IT_GL3: DMA2 Channel3 global interrupt.
 582:lib/STM32F10x_StdPeriph_Driver/src/stm32f10x_dma.c ****   *     @arg DMA2_IT_TC3: DMA2 Channel3 transfer complete interrupt.
 583:lib/STM32F10x_StdPeriph_Driver/src/stm32f10x_dma.c ****   *     @arg DMA2_IT_HT3: DMA2 Channel3 half transfer interrupt.
 584:lib/STM32F10x_StdPeriph_Driver/src/stm32f10x_dma.c ****   *     @arg DMA2_IT_TE3: DMA2 Channel3 transfer error interrupt.
 585:lib/STM32F10x_StdPeriph_Driver/src/stm32f10x_dma.c ****   *     @arg DMA2_IT_GL4: DMA2 Channel4 global interrupt.
 586:lib/STM32F10x_StdPeriph_Driver/src/stm32f10x_dma.c ****   *     @arg DMA2_IT_TC4: DMA2 Channel4 transfer complete interrupt.
 587:lib/STM32F10x_StdPeriph_Driver/src/stm32f10x_dma.c ****   *     @arg DMA2_IT_HT4: DMA2 Channel4 half transfer interrupt.
 588:lib/STM32F10x_StdPeriph_Driver/src/stm32f10x_dma.c ****   *     @arg DMA2_IT_TE4: DMA2 Channel4 transfer error interrupt.
 589:lib/STM32F10x_StdPeriph_Driver/src/stm32f10x_dma.c ****   *     @arg DMA2_IT_GL5: DMA2 Channel5 global interrupt.
 590:lib/STM32F10x_StdPeriph_Driver/src/stm32f10x_dma.c ****   *     @arg DMA2_IT_TC5: DMA2 Channel5 transfer complete interrupt.
 591:lib/STM32F10x_StdPeriph_Driver/src/stm32f10x_dma.c ****   *     @arg DMA2_IT_HT5: DMA2 Channel5 half transfer interrupt.
 592:lib/STM32F10x_StdPeriph_Driver/src/stm32f10x_dma.c ****   *     @arg DMA2_IT_TE5: DMA2 Channel5 transfer error interrupt.
 593:lib/STM32F10x_StdPeriph_Driver/src/stm32f10x_dma.c ****   * @retval The new state of DMAy_IT (SET or RESET).
 594:lib/STM32F10x_StdPeriph_Driver/src/stm32f10x_dma.c ****   */
 595:lib/STM32F10x_StdPeriph_Driver/src/stm32f10x_dma.c **** ITStatus DMA_GetITStatus(uint32_t DMAy_IT)
 596:lib/STM32F10x_StdPeriph_Driver/src/stm32f10x_dma.c **** {
 424              		.loc 1 596 0
 425              		.cfi_startproc
 426              		@ args = 0, pretend = 0, frame = 0
 427              		@ frame_needed = 0, uses_anonymous_args = 0
 428              		@ link register save eliminated.
 429              	.LVL17:
 597:lib/STM32F10x_StdPeriph_Driver/src/stm32f10x_dma.c ****   ITStatus bitstatus = RESET;
 598:lib/STM32F10x_StdPeriph_Driver/src/stm32f10x_dma.c ****   uint32_t tmpreg = 0;
 599:lib/STM32F10x_StdPeriph_Driver/src/stm32f10x_dma.c **** 
 600:lib/STM32F10x_StdPeriph_Driver/src/stm32f10x_dma.c ****   /* Check the parameters */
 601:lib/STM32F10x_StdPeriph_Driver/src/stm32f10x_dma.c ****   assert_param(IS_DMA_GET_IT(DMAy_IT));
 602:lib/STM32F10x_StdPeriph_Driver/src/stm32f10x_dma.c **** 
 603:lib/STM32F10x_StdPeriph_Driver/src/stm32f10x_dma.c ****   /* Calculate the used DMA */
 604:lib/STM32F10x_StdPeriph_Driver/src/stm32f10x_dma.c ****   if ((DMAy_IT & FLAG_Mask) != (uint32_t)RESET)
 430              		.loc 1 604 0
 431 017a C300     		lsls	r3, r0, #3
 605:lib/STM32F10x_StdPeriph_Driver/src/stm32f10x_dma.c ****   {
 606:lib/STM32F10x_StdPeriph_Driver/src/stm32f10x_dma.c ****     /* Get DMA2 ISR register value */
 607:lib/STM32F10x_StdPeriph_Driver/src/stm32f10x_dma.c ****     tmpreg = DMA2->ISR;
 432              		.loc 1 607 0
 433 017c 4CBF     		ite	mi
 434 017e 044B     		ldrmi	r3, .L38
 608:lib/STM32F10x_StdPeriph_Driver/src/stm32f10x_dma.c ****   }
 609:lib/STM32F10x_StdPeriph_Driver/src/stm32f10x_dma.c ****   else
 610:lib/STM32F10x_StdPeriph_Driver/src/stm32f10x_dma.c ****   {
 611:lib/STM32F10x_StdPeriph_Driver/src/stm32f10x_dma.c ****     /* Get DMA1 ISR register value */
 612:lib/STM32F10x_StdPeriph_Driver/src/stm32f10x_dma.c ****     tmpreg = DMA1->ISR;
 435              		.loc 1 612 0
 436 0180 044B     		ldrpl	r3, .L38+4
 437 0182 1B68     		ldr	r3, [r3]
 438              	.LVL18:
 613:lib/STM32F10x_StdPeriph_Driver/src/stm32f10x_dma.c ****   }
 614:lib/STM32F10x_StdPeriph_Driver/src/stm32f10x_dma.c **** 
 615:lib/STM32F10x_StdPeriph_Driver/src/stm32f10x_dma.c ****   /* Check the status of the specified DMAy interrupt */
 616:lib/STM32F10x_StdPeriph_Driver/src/stm32f10x_dma.c ****   if ((tmpreg & DMAy_IT) != (uint32_t)RESET)
 439              		.loc 1 616 0
 440 0184 0342     		tst	r3, r0
 617:lib/STM32F10x_StdPeriph_Driver/src/stm32f10x_dma.c ****   {
 618:lib/STM32F10x_StdPeriph_Driver/src/stm32f10x_dma.c ****     /* DMAy_IT is set */
 619:lib/STM32F10x_StdPeriph_Driver/src/stm32f10x_dma.c ****     bitstatus = SET;
 620:lib/STM32F10x_StdPeriph_Driver/src/stm32f10x_dma.c ****   }
 621:lib/STM32F10x_StdPeriph_Driver/src/stm32f10x_dma.c ****   else
 622:lib/STM32F10x_StdPeriph_Driver/src/stm32f10x_dma.c ****   {
 623:lib/STM32F10x_StdPeriph_Driver/src/stm32f10x_dma.c ****     /* DMAy_IT is reset */
 624:lib/STM32F10x_StdPeriph_Driver/src/stm32f10x_dma.c ****     bitstatus = RESET;
 625:lib/STM32F10x_StdPeriph_Driver/src/stm32f10x_dma.c ****   }
 626:lib/STM32F10x_StdPeriph_Driver/src/stm32f10x_dma.c ****   /* Return the DMA_IT status */
 627:lib/STM32F10x_StdPeriph_Driver/src/stm32f10x_dma.c ****   return  bitstatus;
 628:lib/STM32F10x_StdPeriph_Driver/src/stm32f10x_dma.c **** }
 441              		.loc 1 628 0
 442 0186 14BF     		ite	ne
 443 0188 0120     		movne	r0, #1
 444              	.LVL19:
 445 018a 0020     		moveq	r0, #0
 446 018c 7047     		bx	lr
 447              	.L39:
 448 018e 00BF     		.align	2
 449              	.L38:
 450 0190 00040240 		.word	1073873920
 451 0194 00000240 		.word	1073872896
 452              		.cfi_endproc
 453              	.LFE38:
 455              		.align	1
 456              		.global	DMA_GetFlagStatus
 457              		.syntax unified
 458              		.thumb
 459              		.thumb_func
 460              		.fpu softvfp
 462              	DMA_GetFlagStatus:
 463              	.LFB43:
 464              		.cfi_startproc
 465              		@ args = 0, pretend = 0, frame = 0
 466              		@ frame_needed = 0, uses_anonymous_args = 0
 467              		@ link register save eliminated.
 468 0198 FFF7FEBF 		b	DMA_GetITStatus
 469              		.cfi_endproc
 470              	.LFE43:
 472              		.align	1
 473              		.global	DMA_ClearITPendingBit
 474              		.syntax unified
 475              		.thumb
 476              		.thumb_func
 477              		.fpu softvfp
 479              	DMA_ClearITPendingBit:
 480              	.LFB39:
 629:lib/STM32F10x_StdPeriph_Driver/src/stm32f10x_dma.c **** 
 630:lib/STM32F10x_StdPeriph_Driver/src/stm32f10x_dma.c **** /**
 631:lib/STM32F10x_StdPeriph_Driver/src/stm32f10x_dma.c ****   * @brief  Clears the DMAy Channelx's interrupt pending bits.
 632:lib/STM32F10x_StdPeriph_Driver/src/stm32f10x_dma.c ****   * @param  DMAy_IT: specifies the DMAy interrupt pending bit to clear.
 633:lib/STM32F10x_StdPeriph_Driver/src/stm32f10x_dma.c ****   *   This parameter can be any combination (for the same DMA) of the following values:
 634:lib/STM32F10x_StdPeriph_Driver/src/stm32f10x_dma.c ****   *     @arg DMA1_IT_GL1: DMA1 Channel1 global interrupt.
 635:lib/STM32F10x_StdPeriph_Driver/src/stm32f10x_dma.c ****   *     @arg DMA1_IT_TC1: DMA1 Channel1 transfer complete interrupt.
 636:lib/STM32F10x_StdPeriph_Driver/src/stm32f10x_dma.c ****   *     @arg DMA1_IT_HT1: DMA1 Channel1 half transfer interrupt.
 637:lib/STM32F10x_StdPeriph_Driver/src/stm32f10x_dma.c ****   *     @arg DMA1_IT_TE1: DMA1 Channel1 transfer error interrupt.
 638:lib/STM32F10x_StdPeriph_Driver/src/stm32f10x_dma.c ****   *     @arg DMA1_IT_GL2: DMA1 Channel2 global interrupt.
 639:lib/STM32F10x_StdPeriph_Driver/src/stm32f10x_dma.c ****   *     @arg DMA1_IT_TC2: DMA1 Channel2 transfer complete interrupt.
 640:lib/STM32F10x_StdPeriph_Driver/src/stm32f10x_dma.c ****   *     @arg DMA1_IT_HT2: DMA1 Channel2 half transfer interrupt.
 641:lib/STM32F10x_StdPeriph_Driver/src/stm32f10x_dma.c ****   *     @arg DMA1_IT_TE2: DMA1 Channel2 transfer error interrupt.
 642:lib/STM32F10x_StdPeriph_Driver/src/stm32f10x_dma.c ****   *     @arg DMA1_IT_GL3: DMA1 Channel3 global interrupt.
 643:lib/STM32F10x_StdPeriph_Driver/src/stm32f10x_dma.c ****   *     @arg DMA1_IT_TC3: DMA1 Channel3 transfer complete interrupt.
 644:lib/STM32F10x_StdPeriph_Driver/src/stm32f10x_dma.c ****   *     @arg DMA1_IT_HT3: DMA1 Channel3 half transfer interrupt.
 645:lib/STM32F10x_StdPeriph_Driver/src/stm32f10x_dma.c ****   *     @arg DMA1_IT_TE3: DMA1 Channel3 transfer error interrupt.
 646:lib/STM32F10x_StdPeriph_Driver/src/stm32f10x_dma.c ****   *     @arg DMA1_IT_GL4: DMA1 Channel4 global interrupt.
 647:lib/STM32F10x_StdPeriph_Driver/src/stm32f10x_dma.c ****   *     @arg DMA1_IT_TC4: DMA1 Channel4 transfer complete interrupt.
 648:lib/STM32F10x_StdPeriph_Driver/src/stm32f10x_dma.c ****   *     @arg DMA1_IT_HT4: DMA1 Channel4 half transfer interrupt.
 649:lib/STM32F10x_StdPeriph_Driver/src/stm32f10x_dma.c ****   *     @arg DMA1_IT_TE4: DMA1 Channel4 transfer error interrupt.
 650:lib/STM32F10x_StdPeriph_Driver/src/stm32f10x_dma.c ****   *     @arg DMA1_IT_GL5: DMA1 Channel5 global interrupt.
 651:lib/STM32F10x_StdPeriph_Driver/src/stm32f10x_dma.c ****   *     @arg DMA1_IT_TC5: DMA1 Channel5 transfer complete interrupt.
 652:lib/STM32F10x_StdPeriph_Driver/src/stm32f10x_dma.c ****   *     @arg DMA1_IT_HT5: DMA1 Channel5 half transfer interrupt.
 653:lib/STM32F10x_StdPeriph_Driver/src/stm32f10x_dma.c ****   *     @arg DMA1_IT_TE5: DMA1 Channel5 transfer error interrupt.
 654:lib/STM32F10x_StdPeriph_Driver/src/stm32f10x_dma.c ****   *     @arg DMA1_IT_GL6: DMA1 Channel6 global interrupt.
 655:lib/STM32F10x_StdPeriph_Driver/src/stm32f10x_dma.c ****   *     @arg DMA1_IT_TC6: DMA1 Channel6 transfer complete interrupt.
 656:lib/STM32F10x_StdPeriph_Driver/src/stm32f10x_dma.c ****   *     @arg DMA1_IT_HT6: DMA1 Channel6 half transfer interrupt.
 657:lib/STM32F10x_StdPeriph_Driver/src/stm32f10x_dma.c ****   *     @arg DMA1_IT_TE6: DMA1 Channel6 transfer error interrupt.
 658:lib/STM32F10x_StdPeriph_Driver/src/stm32f10x_dma.c ****   *     @arg DMA1_IT_GL7: DMA1 Channel7 global interrupt.
 659:lib/STM32F10x_StdPeriph_Driver/src/stm32f10x_dma.c ****   *     @arg DMA1_IT_TC7: DMA1 Channel7 transfer complete interrupt.
 660:lib/STM32F10x_StdPeriph_Driver/src/stm32f10x_dma.c ****   *     @arg DMA1_IT_HT7: DMA1 Channel7 half transfer interrupt.
 661:lib/STM32F10x_StdPeriph_Driver/src/stm32f10x_dma.c ****   *     @arg DMA1_IT_TE7: DMA1 Channel7 transfer error interrupt.
 662:lib/STM32F10x_StdPeriph_Driver/src/stm32f10x_dma.c ****   *     @arg DMA2_IT_GL1: DMA2 Channel1 global interrupt.
 663:lib/STM32F10x_StdPeriph_Driver/src/stm32f10x_dma.c ****   *     @arg DMA2_IT_TC1: DMA2 Channel1 transfer complete interrupt.
 664:lib/STM32F10x_StdPeriph_Driver/src/stm32f10x_dma.c ****   *     @arg DMA2_IT_HT1: DMA2 Channel1 half transfer interrupt.
 665:lib/STM32F10x_StdPeriph_Driver/src/stm32f10x_dma.c ****   *     @arg DMA2_IT_TE1: DMA2 Channel1 transfer error interrupt.
 666:lib/STM32F10x_StdPeriph_Driver/src/stm32f10x_dma.c ****   *     @arg DMA2_IT_GL2: DMA2 Channel2 global interrupt.
 667:lib/STM32F10x_StdPeriph_Driver/src/stm32f10x_dma.c ****   *     @arg DMA2_IT_TC2: DMA2 Channel2 transfer complete interrupt.
 668:lib/STM32F10x_StdPeriph_Driver/src/stm32f10x_dma.c ****   *     @arg DMA2_IT_HT2: DMA2 Channel2 half transfer interrupt.
 669:lib/STM32F10x_StdPeriph_Driver/src/stm32f10x_dma.c ****   *     @arg DMA2_IT_TE2: DMA2 Channel2 transfer error interrupt.
 670:lib/STM32F10x_StdPeriph_Driver/src/stm32f10x_dma.c ****   *     @arg DMA2_IT_GL3: DMA2 Channel3 global interrupt.
 671:lib/STM32F10x_StdPeriph_Driver/src/stm32f10x_dma.c ****   *     @arg DMA2_IT_TC3: DMA2 Channel3 transfer complete interrupt.
 672:lib/STM32F10x_StdPeriph_Driver/src/stm32f10x_dma.c ****   *     @arg DMA2_IT_HT3: DMA2 Channel3 half transfer interrupt.
 673:lib/STM32F10x_StdPeriph_Driver/src/stm32f10x_dma.c ****   *     @arg DMA2_IT_TE3: DMA2 Channel3 transfer error interrupt.
 674:lib/STM32F10x_StdPeriph_Driver/src/stm32f10x_dma.c ****   *     @arg DMA2_IT_GL4: DMA2 Channel4 global interrupt.
 675:lib/STM32F10x_StdPeriph_Driver/src/stm32f10x_dma.c ****   *     @arg DMA2_IT_TC4: DMA2 Channel4 transfer complete interrupt.
 676:lib/STM32F10x_StdPeriph_Driver/src/stm32f10x_dma.c ****   *     @arg DMA2_IT_HT4: DMA2 Channel4 half transfer interrupt.
 677:lib/STM32F10x_StdPeriph_Driver/src/stm32f10x_dma.c ****   *     @arg DMA2_IT_TE4: DMA2 Channel4 transfer error interrupt.
 678:lib/STM32F10x_StdPeriph_Driver/src/stm32f10x_dma.c ****   *     @arg DMA2_IT_GL5: DMA2 Channel5 global interrupt.
 679:lib/STM32F10x_StdPeriph_Driver/src/stm32f10x_dma.c ****   *     @arg DMA2_IT_TC5: DMA2 Channel5 transfer complete interrupt.
 680:lib/STM32F10x_StdPeriph_Driver/src/stm32f10x_dma.c ****   *     @arg DMA2_IT_HT5: DMA2 Channel5 half transfer interrupt.
 681:lib/STM32F10x_StdPeriph_Driver/src/stm32f10x_dma.c ****   *     @arg DMA2_IT_TE5: DMA2 Channel5 transfer error interrupt.
 682:lib/STM32F10x_StdPeriph_Driver/src/stm32f10x_dma.c ****   * @retval None
 683:lib/STM32F10x_StdPeriph_Driver/src/stm32f10x_dma.c ****   */
 684:lib/STM32F10x_StdPeriph_Driver/src/stm32f10x_dma.c **** void DMA_ClearITPendingBit(uint32_t DMAy_IT)
 685:lib/STM32F10x_StdPeriph_Driver/src/stm32f10x_dma.c **** {
 481              		.loc 1 685 0
 482              		.cfi_startproc
 483              		@ args = 0, pretend = 0, frame = 0
 484              		@ frame_needed = 0, uses_anonymous_args = 0
 485              		@ link register save eliminated.
 486              	.LVL20:
 686:lib/STM32F10x_StdPeriph_Driver/src/stm32f10x_dma.c ****   /* Check the parameters */
 687:lib/STM32F10x_StdPeriph_Driver/src/stm32f10x_dma.c ****   assert_param(IS_DMA_CLEAR_IT(DMAy_IT));
 688:lib/STM32F10x_StdPeriph_Driver/src/stm32f10x_dma.c **** 
 689:lib/STM32F10x_StdPeriph_Driver/src/stm32f10x_dma.c ****   /* Calculate the used DMAy */
 690:lib/STM32F10x_StdPeriph_Driver/src/stm32f10x_dma.c ****   if ((DMAy_IT & FLAG_Mask) != (uint32_t)RESET)
 487              		.loc 1 690 0
 488 019c C300     		lsls	r3, r0, #3
 691:lib/STM32F10x_StdPeriph_Driver/src/stm32f10x_dma.c ****   {
 692:lib/STM32F10x_StdPeriph_Driver/src/stm32f10x_dma.c ****     /* Clear the selected DMAy interrupt pending bits */
 693:lib/STM32F10x_StdPeriph_Driver/src/stm32f10x_dma.c ****     DMA2->IFCR = DMAy_IT;
 489              		.loc 1 693 0
 490 019e 4CBF     		ite	mi
 491 01a0 014B     		ldrmi	r3, .L45
 694:lib/STM32F10x_StdPeriph_Driver/src/stm32f10x_dma.c ****   }
 695:lib/STM32F10x_StdPeriph_Driver/src/stm32f10x_dma.c ****   else
 696:lib/STM32F10x_StdPeriph_Driver/src/stm32f10x_dma.c ****   {
 697:lib/STM32F10x_StdPeriph_Driver/src/stm32f10x_dma.c ****     /* Clear the selected DMAy interrupt pending bits */
 698:lib/STM32F10x_StdPeriph_Driver/src/stm32f10x_dma.c ****     DMA1->IFCR = DMAy_IT;
 492              		.loc 1 698 0
 493 01a2 024B     		ldrpl	r3, .L45+4
 494 01a4 5860     		str	r0, [r3, #4]
 495 01a6 7047     		bx	lr
 496              	.L46:
 497              		.align	2
 498              	.L45:
 499 01a8 00040240 		.word	1073873920
 500 01ac 00000240 		.word	1073872896
 501              		.cfi_endproc
 502              	.LFE39:
 504              		.align	1
 505              		.global	DMA_ClearFlag
 506              		.syntax unified
 507              		.thumb
 508              		.thumb_func
 509              		.fpu softvfp
 511              	DMA_ClearFlag:
 512              	.LFB41:
 513              		.cfi_startproc
 514              		@ args = 0, pretend = 0, frame = 0
 515              		@ frame_needed = 0, uses_anonymous_args = 0
 516              		@ link register save eliminated.
 517 01b0 FFF7FEBF 		b	DMA_ClearITPendingBit
 518              		.cfi_endproc
 519              	.LFE41:
 521              	.Letext0:
 522              		.file 2 "/opt/gcc-arm/gcc-arm-none-eabi-6_2-2016q4/arm-none-eabi/include/machine/_default_types.h"
 523              		.file 3 "/opt/gcc-arm/gcc-arm-none-eabi-6_2-2016q4/arm-none-eabi/include/sys/_stdint.h"
 524              		.file 4 "./lib/CMSIS/CM3/CoreSupport/core_cm3.h"
 525              		.file 5 "./lib/CMSIS/CM3/DeviceSupport/ST/STM32F10x/system_stm32f10x.h"
 526              		.file 6 "./lib/CMSIS/CM3/DeviceSupport/ST/STM32F10x/stm32f10x.h"
 527              		.file 7 "./lib/STM32F10x_StdPeriph_Driver/inc/stm32f10x_dma.h"