   1              		.cpu cortex-m3
   2              		.eabi_attribute 20, 1
   3              		.eabi_attribute 21, 1
   4              		.eabi_attribute 23, 3
   5              		.eabi_attribute 24, 1
   6              		.eabi_attribute 25, 1
   7              		.eabi_attribute 26, 1
   8              		.eabi_attribute 30, 4
   9              		.eabi_attribute 34, 1
  10              		.eabi_attribute 18, 4
  11              		.file	"stm32f10x_fsmc.c"
  12              		.text
  13              	.Ltext0:
  14              		.cfi_sections	.debug_frame
  15              		.align	1
  16              		.global	FSMC_NORSRAMDeInit
  17              		.syntax unified
  18              		.thumb
  19              		.thumb_func
  20              		.fpu softvfp
  22              	FSMC_NORSRAMDeInit:
  23              	.LFB29:
  24              		.file 1 "lib/STM32F10x_StdPeriph_Driver/src/stm32f10x_fsmc.c"
   1:lib/STM32F10x_StdPeriph_Driver/src/stm32f10x_fsmc.c **** /**
   2:lib/STM32F10x_StdPeriph_Driver/src/stm32f10x_fsmc.c ****   ******************************************************************************
   3:lib/STM32F10x_StdPeriph_Driver/src/stm32f10x_fsmc.c ****   * @file    stm32f10x_fsmc.c
   4:lib/STM32F10x_StdPeriph_Driver/src/stm32f10x_fsmc.c ****   * @author  MCD Application Team
   5:lib/STM32F10x_StdPeriph_Driver/src/stm32f10x_fsmc.c ****   * @version V3.5.0
   6:lib/STM32F10x_StdPeriph_Driver/src/stm32f10x_fsmc.c ****   * @date    11-March-2011
   7:lib/STM32F10x_StdPeriph_Driver/src/stm32f10x_fsmc.c ****   * @brief   This file provides all the FSMC firmware functions.
   8:lib/STM32F10x_StdPeriph_Driver/src/stm32f10x_fsmc.c ****   ******************************************************************************
   9:lib/STM32F10x_StdPeriph_Driver/src/stm32f10x_fsmc.c ****   * @attention
  10:lib/STM32F10x_StdPeriph_Driver/src/stm32f10x_fsmc.c ****   *
  11:lib/STM32F10x_StdPeriph_Driver/src/stm32f10x_fsmc.c ****   * THE PRESENT FIRMWARE WHICH IS FOR GUIDANCE ONLY AIMS AT PROVIDING CUSTOMERS
  12:lib/STM32F10x_StdPeriph_Driver/src/stm32f10x_fsmc.c ****   * WITH CODING INFORMATION REGARDING THEIR PRODUCTS IN ORDER FOR THEM TO SAVE
  13:lib/STM32F10x_StdPeriph_Driver/src/stm32f10x_fsmc.c ****   * TIME. AS A RESULT, STMICROELECTRONICS SHALL NOT BE HELD LIABLE FOR ANY
  14:lib/STM32F10x_StdPeriph_Driver/src/stm32f10x_fsmc.c ****   * DIRECT, INDIRECT OR CONSEQUENTIAL DAMAGES WITH RESPECT TO ANY CLAIMS ARISING
  15:lib/STM32F10x_StdPeriph_Driver/src/stm32f10x_fsmc.c ****   * FROM THE CONTENT OF SUCH FIRMWARE AND/OR THE USE MADE BY CUSTOMERS OF THE
  16:lib/STM32F10x_StdPeriph_Driver/src/stm32f10x_fsmc.c ****   * CODING INFORMATION CONTAINED HEREIN IN CONNECTION WITH THEIR PRODUCTS.
  17:lib/STM32F10x_StdPeriph_Driver/src/stm32f10x_fsmc.c ****   *
  18:lib/STM32F10x_StdPeriph_Driver/src/stm32f10x_fsmc.c ****   * <h2><center>&copy; COPYRIGHT 2011 STMicroelectronics</center></h2>
  19:lib/STM32F10x_StdPeriph_Driver/src/stm32f10x_fsmc.c ****   ******************************************************************************
  20:lib/STM32F10x_StdPeriph_Driver/src/stm32f10x_fsmc.c ****   */
  21:lib/STM32F10x_StdPeriph_Driver/src/stm32f10x_fsmc.c **** 
  22:lib/STM32F10x_StdPeriph_Driver/src/stm32f10x_fsmc.c **** /* Includes ------------------------------------------------------------------*/
  23:lib/STM32F10x_StdPeriph_Driver/src/stm32f10x_fsmc.c **** #include "stm32f10x_fsmc.h"
  24:lib/STM32F10x_StdPeriph_Driver/src/stm32f10x_fsmc.c **** #include "stm32f10x_rcc.h"
  25:lib/STM32F10x_StdPeriph_Driver/src/stm32f10x_fsmc.c **** 
  26:lib/STM32F10x_StdPeriph_Driver/src/stm32f10x_fsmc.c **** /** @addtogroup STM32F10x_StdPeriph_Driver
  27:lib/STM32F10x_StdPeriph_Driver/src/stm32f10x_fsmc.c ****   * @{
  28:lib/STM32F10x_StdPeriph_Driver/src/stm32f10x_fsmc.c ****   */
  29:lib/STM32F10x_StdPeriph_Driver/src/stm32f10x_fsmc.c **** 
  30:lib/STM32F10x_StdPeriph_Driver/src/stm32f10x_fsmc.c **** /** @defgroup FSMC 
  31:lib/STM32F10x_StdPeriph_Driver/src/stm32f10x_fsmc.c ****   * @brief FSMC driver modules
  32:lib/STM32F10x_StdPeriph_Driver/src/stm32f10x_fsmc.c ****   * @{
  33:lib/STM32F10x_StdPeriph_Driver/src/stm32f10x_fsmc.c ****   */ 
  34:lib/STM32F10x_StdPeriph_Driver/src/stm32f10x_fsmc.c **** 
  35:lib/STM32F10x_StdPeriph_Driver/src/stm32f10x_fsmc.c **** /** @defgroup FSMC_Private_TypesDefinitions
  36:lib/STM32F10x_StdPeriph_Driver/src/stm32f10x_fsmc.c ****   * @{
  37:lib/STM32F10x_StdPeriph_Driver/src/stm32f10x_fsmc.c ****   */ 
  38:lib/STM32F10x_StdPeriph_Driver/src/stm32f10x_fsmc.c **** /**
  39:lib/STM32F10x_StdPeriph_Driver/src/stm32f10x_fsmc.c ****   * @}
  40:lib/STM32F10x_StdPeriph_Driver/src/stm32f10x_fsmc.c ****   */
  41:lib/STM32F10x_StdPeriph_Driver/src/stm32f10x_fsmc.c **** 
  42:lib/STM32F10x_StdPeriph_Driver/src/stm32f10x_fsmc.c **** /** @defgroup FSMC_Private_Defines
  43:lib/STM32F10x_StdPeriph_Driver/src/stm32f10x_fsmc.c ****   * @{
  44:lib/STM32F10x_StdPeriph_Driver/src/stm32f10x_fsmc.c ****   */
  45:lib/STM32F10x_StdPeriph_Driver/src/stm32f10x_fsmc.c **** 
  46:lib/STM32F10x_StdPeriph_Driver/src/stm32f10x_fsmc.c **** /* --------------------- FSMC registers bit mask ---------------------------- */
  47:lib/STM32F10x_StdPeriph_Driver/src/stm32f10x_fsmc.c **** 
  48:lib/STM32F10x_StdPeriph_Driver/src/stm32f10x_fsmc.c **** /* FSMC BCRx Mask */
  49:lib/STM32F10x_StdPeriph_Driver/src/stm32f10x_fsmc.c **** #define BCR_MBKEN_Set                       ((uint32_t)0x00000001)
  50:lib/STM32F10x_StdPeriph_Driver/src/stm32f10x_fsmc.c **** #define BCR_MBKEN_Reset                     ((uint32_t)0x000FFFFE)
  51:lib/STM32F10x_StdPeriph_Driver/src/stm32f10x_fsmc.c **** #define BCR_FACCEN_Set                      ((uint32_t)0x00000040)
  52:lib/STM32F10x_StdPeriph_Driver/src/stm32f10x_fsmc.c **** 
  53:lib/STM32F10x_StdPeriph_Driver/src/stm32f10x_fsmc.c **** /* FSMC PCRx Mask */
  54:lib/STM32F10x_StdPeriph_Driver/src/stm32f10x_fsmc.c **** #define PCR_PBKEN_Set                       ((uint32_t)0x00000004)
  55:lib/STM32F10x_StdPeriph_Driver/src/stm32f10x_fsmc.c **** #define PCR_PBKEN_Reset                     ((uint32_t)0x000FFFFB)
  56:lib/STM32F10x_StdPeriph_Driver/src/stm32f10x_fsmc.c **** #define PCR_ECCEN_Set                       ((uint32_t)0x00000040)
  57:lib/STM32F10x_StdPeriph_Driver/src/stm32f10x_fsmc.c **** #define PCR_ECCEN_Reset                     ((uint32_t)0x000FFFBF)
  58:lib/STM32F10x_StdPeriph_Driver/src/stm32f10x_fsmc.c **** #define PCR_MemoryType_NAND                 ((uint32_t)0x00000008)
  59:lib/STM32F10x_StdPeriph_Driver/src/stm32f10x_fsmc.c **** /**
  60:lib/STM32F10x_StdPeriph_Driver/src/stm32f10x_fsmc.c ****   * @}
  61:lib/STM32F10x_StdPeriph_Driver/src/stm32f10x_fsmc.c ****   */
  62:lib/STM32F10x_StdPeriph_Driver/src/stm32f10x_fsmc.c **** 
  63:lib/STM32F10x_StdPeriph_Driver/src/stm32f10x_fsmc.c **** /** @defgroup FSMC_Private_Macros
  64:lib/STM32F10x_StdPeriph_Driver/src/stm32f10x_fsmc.c ****   * @{
  65:lib/STM32F10x_StdPeriph_Driver/src/stm32f10x_fsmc.c ****   */
  66:lib/STM32F10x_StdPeriph_Driver/src/stm32f10x_fsmc.c **** 
  67:lib/STM32F10x_StdPeriph_Driver/src/stm32f10x_fsmc.c **** /**
  68:lib/STM32F10x_StdPeriph_Driver/src/stm32f10x_fsmc.c ****   * @}
  69:lib/STM32F10x_StdPeriph_Driver/src/stm32f10x_fsmc.c ****   */
  70:lib/STM32F10x_StdPeriph_Driver/src/stm32f10x_fsmc.c **** 
  71:lib/STM32F10x_StdPeriph_Driver/src/stm32f10x_fsmc.c **** /** @defgroup FSMC_Private_Variables
  72:lib/STM32F10x_StdPeriph_Driver/src/stm32f10x_fsmc.c ****   * @{
  73:lib/STM32F10x_StdPeriph_Driver/src/stm32f10x_fsmc.c ****   */
  74:lib/STM32F10x_StdPeriph_Driver/src/stm32f10x_fsmc.c **** 
  75:lib/STM32F10x_StdPeriph_Driver/src/stm32f10x_fsmc.c **** /**
  76:lib/STM32F10x_StdPeriph_Driver/src/stm32f10x_fsmc.c ****   * @}
  77:lib/STM32F10x_StdPeriph_Driver/src/stm32f10x_fsmc.c ****   */
  78:lib/STM32F10x_StdPeriph_Driver/src/stm32f10x_fsmc.c **** 
  79:lib/STM32F10x_StdPeriph_Driver/src/stm32f10x_fsmc.c **** /** @defgroup FSMC_Private_FunctionPrototypes
  80:lib/STM32F10x_StdPeriph_Driver/src/stm32f10x_fsmc.c ****   * @{
  81:lib/STM32F10x_StdPeriph_Driver/src/stm32f10x_fsmc.c ****   */
  82:lib/STM32F10x_StdPeriph_Driver/src/stm32f10x_fsmc.c **** 
  83:lib/STM32F10x_StdPeriph_Driver/src/stm32f10x_fsmc.c **** /**
  84:lib/STM32F10x_StdPeriph_Driver/src/stm32f10x_fsmc.c ****   * @}
  85:lib/STM32F10x_StdPeriph_Driver/src/stm32f10x_fsmc.c ****   */
  86:lib/STM32F10x_StdPeriph_Driver/src/stm32f10x_fsmc.c **** 
  87:lib/STM32F10x_StdPeriph_Driver/src/stm32f10x_fsmc.c **** /** @defgroup FSMC_Private_Functions
  88:lib/STM32F10x_StdPeriph_Driver/src/stm32f10x_fsmc.c ****   * @{
  89:lib/STM32F10x_StdPeriph_Driver/src/stm32f10x_fsmc.c ****   */
  90:lib/STM32F10x_StdPeriph_Driver/src/stm32f10x_fsmc.c **** 
  91:lib/STM32F10x_StdPeriph_Driver/src/stm32f10x_fsmc.c **** /**
  92:lib/STM32F10x_StdPeriph_Driver/src/stm32f10x_fsmc.c ****   * @brief  Deinitializes the FSMC NOR/SRAM Banks registers to their default 
  93:lib/STM32F10x_StdPeriph_Driver/src/stm32f10x_fsmc.c ****   *         reset values.
  94:lib/STM32F10x_StdPeriph_Driver/src/stm32f10x_fsmc.c ****   * @param  FSMC_Bank: specifies the FSMC Bank to be used
  95:lib/STM32F10x_StdPeriph_Driver/src/stm32f10x_fsmc.c ****   *   This parameter can be one of the following values:
  96:lib/STM32F10x_StdPeriph_Driver/src/stm32f10x_fsmc.c ****   *     @arg FSMC_Bank1_NORSRAM1: FSMC Bank1 NOR/SRAM1  
  97:lib/STM32F10x_StdPeriph_Driver/src/stm32f10x_fsmc.c ****   *     @arg FSMC_Bank1_NORSRAM2: FSMC Bank1 NOR/SRAM2 
  98:lib/STM32F10x_StdPeriph_Driver/src/stm32f10x_fsmc.c ****   *     @arg FSMC_Bank1_NORSRAM3: FSMC Bank1 NOR/SRAM3 
  99:lib/STM32F10x_StdPeriph_Driver/src/stm32f10x_fsmc.c ****   *     @arg FSMC_Bank1_NORSRAM4: FSMC Bank1 NOR/SRAM4 
 100:lib/STM32F10x_StdPeriph_Driver/src/stm32f10x_fsmc.c ****   * @retval None
 101:lib/STM32F10x_StdPeriph_Driver/src/stm32f10x_fsmc.c ****   */
 102:lib/STM32F10x_StdPeriph_Driver/src/stm32f10x_fsmc.c **** void FSMC_NORSRAMDeInit(uint32_t FSMC_Bank)
 103:lib/STM32F10x_StdPeriph_Driver/src/stm32f10x_fsmc.c **** {
  25              		.loc 1 103 0
  26              		.cfi_startproc
  27              		@ args = 0, pretend = 0, frame = 0
  28              		@ frame_needed = 0, uses_anonymous_args = 0
  29              		@ link register save eliminated.
  30              	.LVL0:
  31 0000 4FF02043 		mov	r3, #-1610612736
 104:lib/STM32F10x_StdPeriph_Driver/src/stm32f10x_fsmc.c ****   /* Check the parameter */
 105:lib/STM32F10x_StdPeriph_Driver/src/stm32f10x_fsmc.c ****   assert_param(IS_FSMC_NORSRAM_BANK(FSMC_Bank));
 106:lib/STM32F10x_StdPeriph_Driver/src/stm32f10x_fsmc.c ****   
 107:lib/STM32F10x_StdPeriph_Driver/src/stm32f10x_fsmc.c ****   /* FSMC_Bank1_NORSRAM1 */
 108:lib/STM32F10x_StdPeriph_Driver/src/stm32f10x_fsmc.c ****   if(FSMC_Bank == FSMC_Bank1_NORSRAM1)
  32              		.loc 1 108 0
  33 0004 58B9     		cbnz	r0, .L2
 109:lib/STM32F10x_StdPeriph_Driver/src/stm32f10x_fsmc.c ****   {
 110:lib/STM32F10x_StdPeriph_Driver/src/stm32f10x_fsmc.c ****     FSMC_Bank1->BTCR[FSMC_Bank] = 0x000030DB;    
  34              		.loc 1 110 0
  35 0006 43F2DB02 		movw	r2, #12507
  36 000a 1A60     		str	r2, [r3]
  37              	.L3:
 111:lib/STM32F10x_StdPeriph_Driver/src/stm32f10x_fsmc.c ****   }
 112:lib/STM32F10x_StdPeriph_Driver/src/stm32f10x_fsmc.c ****   /* FSMC_Bank1_NORSRAM2,  FSMC_Bank1_NORSRAM3 or FSMC_Bank1_NORSRAM4 */
 113:lib/STM32F10x_StdPeriph_Driver/src/stm32f10x_fsmc.c ****   else
 114:lib/STM32F10x_StdPeriph_Driver/src/stm32f10x_fsmc.c ****   {   
 115:lib/STM32F10x_StdPeriph_Driver/src/stm32f10x_fsmc.c ****     FSMC_Bank1->BTCR[FSMC_Bank] = 0x000030D2; 
 116:lib/STM32F10x_StdPeriph_Driver/src/stm32f10x_fsmc.c ****   }
 117:lib/STM32F10x_StdPeriph_Driver/src/stm32f10x_fsmc.c ****   FSMC_Bank1->BTCR[FSMC_Bank + 1] = 0x0FFFFFFF;
  38              		.loc 1 117 0
  39 000c 6FF07043 		mvn	r3, #-268435456
  40 0010 8000     		lsls	r0, r0, #2
  41              	.LVL1:
  42 0012 00F12040 		add	r0, r0, #-1610612736
  43 0016 4360     		str	r3, [r0, #4]
 118:lib/STM32F10x_StdPeriph_Driver/src/stm32f10x_fsmc.c ****   FSMC_Bank1E->BWTR[FSMC_Bank] = 0x0FFFFFFF;  
  44              		.loc 1 118 0
  45 0018 C0F80431 		str	r3, [r0, #260]
  46 001c 7047     		bx	lr
  47              	.LVL2:
  48              	.L2:
 115:lib/STM32F10x_StdPeriph_Driver/src/stm32f10x_fsmc.c ****   }
  49              		.loc 1 115 0
  50 001e 43F2D202 		movw	r2, #12498
  51 0022 43F82020 		str	r2, [r3, r0, lsl #2]
  52 0026 F1E7     		b	.L3
  53              		.cfi_endproc
  54              	.LFE29:
  56              		.align	1
  57              		.global	FSMC_NANDDeInit
  58              		.syntax unified
  59              		.thumb
  60              		.thumb_func
  61              		.fpu softvfp
  63              	FSMC_NANDDeInit:
  64              	.LFB30:
 119:lib/STM32F10x_StdPeriph_Driver/src/stm32f10x_fsmc.c **** }
 120:lib/STM32F10x_StdPeriph_Driver/src/stm32f10x_fsmc.c **** 
 121:lib/STM32F10x_StdPeriph_Driver/src/stm32f10x_fsmc.c **** /**
 122:lib/STM32F10x_StdPeriph_Driver/src/stm32f10x_fsmc.c ****   * @brief  Deinitializes the FSMC NAND Banks registers to their default reset values.
 123:lib/STM32F10x_StdPeriph_Driver/src/stm32f10x_fsmc.c ****   * @param  FSMC_Bank: specifies the FSMC Bank to be used
 124:lib/STM32F10x_StdPeriph_Driver/src/stm32f10x_fsmc.c ****   *   This parameter can be one of the following values:
 125:lib/STM32F10x_StdPeriph_Driver/src/stm32f10x_fsmc.c ****   *     @arg FSMC_Bank2_NAND: FSMC Bank2 NAND 
 126:lib/STM32F10x_StdPeriph_Driver/src/stm32f10x_fsmc.c ****   *     @arg FSMC_Bank3_NAND: FSMC Bank3 NAND 
 127:lib/STM32F10x_StdPeriph_Driver/src/stm32f10x_fsmc.c ****   * @retval None
 128:lib/STM32F10x_StdPeriph_Driver/src/stm32f10x_fsmc.c ****   */
 129:lib/STM32F10x_StdPeriph_Driver/src/stm32f10x_fsmc.c **** void FSMC_NANDDeInit(uint32_t FSMC_Bank)
 130:lib/STM32F10x_StdPeriph_Driver/src/stm32f10x_fsmc.c **** {
  65              		.loc 1 130 0
  66              		.cfi_startproc
  67              		@ args = 0, pretend = 0, frame = 0
  68              		@ frame_needed = 0, uses_anonymous_args = 0
  69              		@ link register save eliminated.
  70              	.LVL3:
  71 0028 4022     		movs	r2, #64
  72 002a 1821     		movs	r1, #24
 131:lib/STM32F10x_StdPeriph_Driver/src/stm32f10x_fsmc.c ****   /* Check the parameter */
 132:lib/STM32F10x_StdPeriph_Driver/src/stm32f10x_fsmc.c ****   assert_param(IS_FSMC_NAND_BANK(FSMC_Bank));
 133:lib/STM32F10x_StdPeriph_Driver/src/stm32f10x_fsmc.c ****   
 134:lib/STM32F10x_StdPeriph_Driver/src/stm32f10x_fsmc.c ****   if(FSMC_Bank == FSMC_Bank2_NAND)
  73              		.loc 1 134 0
  74 002c 1028     		cmp	r0, #16
 135:lib/STM32F10x_StdPeriph_Driver/src/stm32f10x_fsmc.c ****   {
 136:lib/STM32F10x_StdPeriph_Driver/src/stm32f10x_fsmc.c ****     /* Set the FSMC_Bank2 registers to their reset values */
 137:lib/STM32F10x_StdPeriph_Driver/src/stm32f10x_fsmc.c ****     FSMC_Bank2->PCR2 = 0x00000018;
  75              		.loc 1 137 0
  76 002e 0CBF     		ite	eq
  77 0030 044B     		ldreq	r3, .L8
 138:lib/STM32F10x_StdPeriph_Driver/src/stm32f10x_fsmc.c ****     FSMC_Bank2->SR2 = 0x00000040;
 139:lib/STM32F10x_StdPeriph_Driver/src/stm32f10x_fsmc.c ****     FSMC_Bank2->PMEM2 = 0xFCFCFCFC;
 140:lib/STM32F10x_StdPeriph_Driver/src/stm32f10x_fsmc.c ****     FSMC_Bank2->PATT2 = 0xFCFCFCFC;  
 141:lib/STM32F10x_StdPeriph_Driver/src/stm32f10x_fsmc.c ****   }
 142:lib/STM32F10x_StdPeriph_Driver/src/stm32f10x_fsmc.c ****   /* FSMC_Bank3_NAND */  
 143:lib/STM32F10x_StdPeriph_Driver/src/stm32f10x_fsmc.c ****   else
 144:lib/STM32F10x_StdPeriph_Driver/src/stm32f10x_fsmc.c ****   {
 145:lib/STM32F10x_StdPeriph_Driver/src/stm32f10x_fsmc.c ****     /* Set the FSMC_Bank3 registers to their reset values */
 146:lib/STM32F10x_StdPeriph_Driver/src/stm32f10x_fsmc.c ****     FSMC_Bank3->PCR3 = 0x00000018;
  78              		.loc 1 146 0
  79 0032 054B     		ldrne	r3, .L8+4
  80 0034 1960     		str	r1, [r3]
 147:lib/STM32F10x_StdPeriph_Driver/src/stm32f10x_fsmc.c ****     FSMC_Bank3->SR3 = 0x00000040;
  81              		.loc 1 147 0
  82 0036 5A60     		str	r2, [r3, #4]
 148:lib/STM32F10x_StdPeriph_Driver/src/stm32f10x_fsmc.c ****     FSMC_Bank3->PMEM3 = 0xFCFCFCFC;
  83              		.loc 1 148 0
  84 0038 4FF0FC32 		mov	r2, #-50529028
  85 003c 9A60     		str	r2, [r3, #8]
 149:lib/STM32F10x_StdPeriph_Driver/src/stm32f10x_fsmc.c ****     FSMC_Bank3->PATT3 = 0xFCFCFCFC; 
  86              		.loc 1 149 0
  87 003e DA60     		str	r2, [r3, #12]
  88 0040 7047     		bx	lr
  89              	.L9:
  90 0042 00BF     		.align	2
  91              	.L8:
  92 0044 600000A0 		.word	-1610612640
  93 0048 800000A0 		.word	-1610612608
  94              		.cfi_endproc
  95              	.LFE30:
  97              		.align	1
  98              		.global	FSMC_PCCARDDeInit
  99              		.syntax unified
 100              		.thumb
 101              		.thumb_func
 102              		.fpu softvfp
 104              	FSMC_PCCARDDeInit:
 105              	.LFB31:
 150:lib/STM32F10x_StdPeriph_Driver/src/stm32f10x_fsmc.c ****   }  
 151:lib/STM32F10x_StdPeriph_Driver/src/stm32f10x_fsmc.c **** }
 152:lib/STM32F10x_StdPeriph_Driver/src/stm32f10x_fsmc.c **** 
 153:lib/STM32F10x_StdPeriph_Driver/src/stm32f10x_fsmc.c **** /**
 154:lib/STM32F10x_StdPeriph_Driver/src/stm32f10x_fsmc.c ****   * @brief  Deinitializes the FSMC PCCARD Bank registers to their default reset values.
 155:lib/STM32F10x_StdPeriph_Driver/src/stm32f10x_fsmc.c ****   * @param  None                       
 156:lib/STM32F10x_StdPeriph_Driver/src/stm32f10x_fsmc.c ****   * @retval None
 157:lib/STM32F10x_StdPeriph_Driver/src/stm32f10x_fsmc.c ****   */
 158:lib/STM32F10x_StdPeriph_Driver/src/stm32f10x_fsmc.c **** void FSMC_PCCARDDeInit(void)
 159:lib/STM32F10x_StdPeriph_Driver/src/stm32f10x_fsmc.c **** {
 106              		.loc 1 159 0
 107              		.cfi_startproc
 108              		@ args = 0, pretend = 0, frame = 0
 109              		@ frame_needed = 0, uses_anonymous_args = 0
 110              		@ link register save eliminated.
 160:lib/STM32F10x_StdPeriph_Driver/src/stm32f10x_fsmc.c ****   /* Set the FSMC_Bank4 registers to their reset values */
 161:lib/STM32F10x_StdPeriph_Driver/src/stm32f10x_fsmc.c ****   FSMC_Bank4->PCR4 = 0x00000018; 
 111              		.loc 1 161 0
 112 004c 1822     		movs	r2, #24
 113 004e 054B     		ldr	r3, .L11
 114 0050 1A60     		str	r2, [r3]
 162:lib/STM32F10x_StdPeriph_Driver/src/stm32f10x_fsmc.c ****   FSMC_Bank4->SR4 = 0x00000000;	
 115              		.loc 1 162 0
 116 0052 0022     		movs	r2, #0
 117 0054 5A60     		str	r2, [r3, #4]
 163:lib/STM32F10x_StdPeriph_Driver/src/stm32f10x_fsmc.c ****   FSMC_Bank4->PMEM4 = 0xFCFCFCFC;
 118              		.loc 1 163 0
 119 0056 4FF0FC32 		mov	r2, #-50529028
 120 005a 9A60     		str	r2, [r3, #8]
 164:lib/STM32F10x_StdPeriph_Driver/src/stm32f10x_fsmc.c ****   FSMC_Bank4->PATT4 = 0xFCFCFCFC;
 121              		.loc 1 164 0
 122 005c DA60     		str	r2, [r3, #12]
 165:lib/STM32F10x_StdPeriph_Driver/src/stm32f10x_fsmc.c ****   FSMC_Bank4->PIO4 = 0xFCFCFCFC;
 123              		.loc 1 165 0
 124 005e 1A61     		str	r2, [r3, #16]
 125 0060 7047     		bx	lr
 126              	.L12:
 127 0062 00BF     		.align	2
 128              	.L11:
 129 0064 A00000A0 		.word	-1610612576
 130              		.cfi_endproc
 131              	.LFE31:
 133              		.align	1
 134              		.global	FSMC_NORSRAMInit
 135              		.syntax unified
 136              		.thumb
 137              		.thumb_func
 138              		.fpu softvfp
 140              	FSMC_NORSRAMInit:
 141              	.LFB32:
 166:lib/STM32F10x_StdPeriph_Driver/src/stm32f10x_fsmc.c **** }
 167:lib/STM32F10x_StdPeriph_Driver/src/stm32f10x_fsmc.c **** 
 168:lib/STM32F10x_StdPeriph_Driver/src/stm32f10x_fsmc.c **** /**
 169:lib/STM32F10x_StdPeriph_Driver/src/stm32f10x_fsmc.c ****   * @brief  Initializes the FSMC NOR/SRAM Banks according to the specified
 170:lib/STM32F10x_StdPeriph_Driver/src/stm32f10x_fsmc.c ****   *         parameters in the FSMC_NORSRAMInitStruct.
 171:lib/STM32F10x_StdPeriph_Driver/src/stm32f10x_fsmc.c ****   * @param  FSMC_NORSRAMInitStruct : pointer to a FSMC_NORSRAMInitTypeDef
 172:lib/STM32F10x_StdPeriph_Driver/src/stm32f10x_fsmc.c ****   *         structure that contains the configuration information for 
 173:lib/STM32F10x_StdPeriph_Driver/src/stm32f10x_fsmc.c ****   *        the FSMC NOR/SRAM specified Banks.                       
 174:lib/STM32F10x_StdPeriph_Driver/src/stm32f10x_fsmc.c ****   * @retval None
 175:lib/STM32F10x_StdPeriph_Driver/src/stm32f10x_fsmc.c ****   */
 176:lib/STM32F10x_StdPeriph_Driver/src/stm32f10x_fsmc.c **** void FSMC_NORSRAMInit(FSMC_NORSRAMInitTypeDef* FSMC_NORSRAMInitStruct)
 177:lib/STM32F10x_StdPeriph_Driver/src/stm32f10x_fsmc.c **** { 
 142              		.loc 1 177 0
 143              		.cfi_startproc
 144              		@ args = 0, pretend = 0, frame = 0
 145              		@ frame_needed = 0, uses_anonymous_args = 0
 146              	.LVL4:
 178:lib/STM32F10x_StdPeriph_Driver/src/stm32f10x_fsmc.c ****   /* Check the parameters */
 179:lib/STM32F10x_StdPeriph_Driver/src/stm32f10x_fsmc.c ****   assert_param(IS_FSMC_NORSRAM_BANK(FSMC_NORSRAMInitStruct->FSMC_Bank));
 180:lib/STM32F10x_StdPeriph_Driver/src/stm32f10x_fsmc.c ****   assert_param(IS_FSMC_MUX(FSMC_NORSRAMInitStruct->FSMC_DataAddressMux));
 181:lib/STM32F10x_StdPeriph_Driver/src/stm32f10x_fsmc.c ****   assert_param(IS_FSMC_MEMORY(FSMC_NORSRAMInitStruct->FSMC_MemoryType));
 182:lib/STM32F10x_StdPeriph_Driver/src/stm32f10x_fsmc.c ****   assert_param(IS_FSMC_MEMORY_WIDTH(FSMC_NORSRAMInitStruct->FSMC_MemoryDataWidth));
 183:lib/STM32F10x_StdPeriph_Driver/src/stm32f10x_fsmc.c ****   assert_param(IS_FSMC_BURSTMODE(FSMC_NORSRAMInitStruct->FSMC_BurstAccessMode));
 184:lib/STM32F10x_StdPeriph_Driver/src/stm32f10x_fsmc.c ****   assert_param(IS_FSMC_ASYNWAIT(FSMC_NORSRAMInitStruct->FSMC_AsynchronousWait));
 185:lib/STM32F10x_StdPeriph_Driver/src/stm32f10x_fsmc.c ****   assert_param(IS_FSMC_WAIT_POLARITY(FSMC_NORSRAMInitStruct->FSMC_WaitSignalPolarity));
 186:lib/STM32F10x_StdPeriph_Driver/src/stm32f10x_fsmc.c ****   assert_param(IS_FSMC_WRAP_MODE(FSMC_NORSRAMInitStruct->FSMC_WrapMode));
 187:lib/STM32F10x_StdPeriph_Driver/src/stm32f10x_fsmc.c ****   assert_param(IS_FSMC_WAIT_SIGNAL_ACTIVE(FSMC_NORSRAMInitStruct->FSMC_WaitSignalActive));
 188:lib/STM32F10x_StdPeriph_Driver/src/stm32f10x_fsmc.c ****   assert_param(IS_FSMC_WRITE_OPERATION(FSMC_NORSRAMInitStruct->FSMC_WriteOperation));
 189:lib/STM32F10x_StdPeriph_Driver/src/stm32f10x_fsmc.c ****   assert_param(IS_FSMC_WAITE_SIGNAL(FSMC_NORSRAMInitStruct->FSMC_WaitSignal));
 190:lib/STM32F10x_StdPeriph_Driver/src/stm32f10x_fsmc.c ****   assert_param(IS_FSMC_EXTENDED_MODE(FSMC_NORSRAMInitStruct->FSMC_ExtendedMode));
 191:lib/STM32F10x_StdPeriph_Driver/src/stm32f10x_fsmc.c ****   assert_param(IS_FSMC_WRITE_BURST(FSMC_NORSRAMInitStruct->FSMC_WriteBurst));  
 192:lib/STM32F10x_StdPeriph_Driver/src/stm32f10x_fsmc.c ****   assert_param(IS_FSMC_ADDRESS_SETUP_TIME(FSMC_NORSRAMInitStruct->FSMC_ReadWriteTimingStruct->FSMC_
 193:lib/STM32F10x_StdPeriph_Driver/src/stm32f10x_fsmc.c ****   assert_param(IS_FSMC_ADDRESS_HOLD_TIME(FSMC_NORSRAMInitStruct->FSMC_ReadWriteTimingStruct->FSMC_A
 194:lib/STM32F10x_StdPeriph_Driver/src/stm32f10x_fsmc.c ****   assert_param(IS_FSMC_DATASETUP_TIME(FSMC_NORSRAMInitStruct->FSMC_ReadWriteTimingStruct->FSMC_Data
 195:lib/STM32F10x_StdPeriph_Driver/src/stm32f10x_fsmc.c ****   assert_param(IS_FSMC_TURNAROUND_TIME(FSMC_NORSRAMInitStruct->FSMC_ReadWriteTimingStruct->FSMC_Bus
 196:lib/STM32F10x_StdPeriph_Driver/src/stm32f10x_fsmc.c ****   assert_param(IS_FSMC_CLK_DIV(FSMC_NORSRAMInitStruct->FSMC_ReadWriteTimingStruct->FSMC_CLKDivision
 197:lib/STM32F10x_StdPeriph_Driver/src/stm32f10x_fsmc.c ****   assert_param(IS_FSMC_DATA_LATENCY(FSMC_NORSRAMInitStruct->FSMC_ReadWriteTimingStruct->FSMC_DataLa
 198:lib/STM32F10x_StdPeriph_Driver/src/stm32f10x_fsmc.c ****   assert_param(IS_FSMC_ACCESS_MODE(FSMC_NORSRAMInitStruct->FSMC_ReadWriteTimingStruct->FSMC_AccessM
 199:lib/STM32F10x_StdPeriph_Driver/src/stm32f10x_fsmc.c ****   
 200:lib/STM32F10x_StdPeriph_Driver/src/stm32f10x_fsmc.c ****   /* Bank1 NOR/SRAM control register configuration */ 
 201:lib/STM32F10x_StdPeriph_Driver/src/stm32f10x_fsmc.c ****   FSMC_Bank1->BTCR[FSMC_NORSRAMInitStruct->FSMC_Bank] = 
 202:lib/STM32F10x_StdPeriph_Driver/src/stm32f10x_fsmc.c ****             (uint32_t)FSMC_NORSRAMInitStruct->FSMC_DataAddressMux |
 203:lib/STM32F10x_StdPeriph_Driver/src/stm32f10x_fsmc.c ****             FSMC_NORSRAMInitStruct->FSMC_MemoryType |
 147              		.loc 1 203 0
 148 0068 8168     		ldr	r1, [r0, #8]
 202:lib/STM32F10x_StdPeriph_Driver/src/stm32f10x_fsmc.c ****             FSMC_NORSRAMInitStruct->FSMC_MemoryType |
 149              		.loc 1 202 0
 150 006a 4368     		ldr	r3, [r0, #4]
 177:lib/STM32F10x_StdPeriph_Driver/src/stm32f10x_fsmc.c ****   /* Check the parameters */
 151              		.loc 1 177 0
 152 006c 30B5     		push	{r4, r5, lr}
 153              	.LCFI0:
 154              		.cfi_def_cfa_offset 12
 155              		.cfi_offset 4, -12
 156              		.cfi_offset 5, -8
 157              		.cfi_offset 14, -4
 158              		.loc 1 203 0
 159 006e C468     		ldr	r4, [r0, #12]
 202:lib/STM32F10x_StdPeriph_Driver/src/stm32f10x_fsmc.c ****             FSMC_NORSRAMInitStruct->FSMC_MemoryType |
 160              		.loc 1 202 0
 161 0070 0B43     		orrs	r3, r3, r1
 162              		.loc 1 203 0
 163 0072 2343     		orrs	r3, r3, r4
 204:lib/STM32F10x_StdPeriph_Driver/src/stm32f10x_fsmc.c ****             FSMC_NORSRAMInitStruct->FSMC_MemoryDataWidth |
 164              		.loc 1 204 0
 165 0074 0469     		ldr	r4, [r0, #16]
 205:lib/STM32F10x_StdPeriph_Driver/src/stm32f10x_fsmc.c ****             FSMC_NORSRAMInitStruct->FSMC_BurstAccessMode |
 206:lib/STM32F10x_StdPeriph_Driver/src/stm32f10x_fsmc.c ****             FSMC_NORSRAMInitStruct->FSMC_AsynchronousWait |
 207:lib/STM32F10x_StdPeriph_Driver/src/stm32f10x_fsmc.c ****             FSMC_NORSRAMInitStruct->FSMC_WaitSignalPolarity |
 208:lib/STM32F10x_StdPeriph_Driver/src/stm32f10x_fsmc.c ****             FSMC_NORSRAMInitStruct->FSMC_WrapMode |
 209:lib/STM32F10x_StdPeriph_Driver/src/stm32f10x_fsmc.c ****             FSMC_NORSRAMInitStruct->FSMC_WaitSignalActive |
 210:lib/STM32F10x_StdPeriph_Driver/src/stm32f10x_fsmc.c ****             FSMC_NORSRAMInitStruct->FSMC_WriteOperation |
 211:lib/STM32F10x_StdPeriph_Driver/src/stm32f10x_fsmc.c ****             FSMC_NORSRAMInitStruct->FSMC_WaitSignal |
 212:lib/STM32F10x_StdPeriph_Driver/src/stm32f10x_fsmc.c ****             FSMC_NORSRAMInitStruct->FSMC_ExtendedMode |
 166              		.loc 1 212 0
 167 0076 C26A     		ldr	r2, [r0, #44]
 204:lib/STM32F10x_StdPeriph_Driver/src/stm32f10x_fsmc.c ****             FSMC_NORSRAMInitStruct->FSMC_MemoryDataWidth |
 168              		.loc 1 204 0
 169 0078 2343     		orrs	r3, r3, r4
 205:lib/STM32F10x_StdPeriph_Driver/src/stm32f10x_fsmc.c ****             FSMC_NORSRAMInitStruct->FSMC_BurstAccessMode |
 170              		.loc 1 205 0
 171 007a 4469     		ldr	r4, [r0, #20]
 213:lib/STM32F10x_StdPeriph_Driver/src/stm32f10x_fsmc.c ****             FSMC_NORSRAMInitStruct->FSMC_WriteBurst;
 214:lib/STM32F10x_StdPeriph_Driver/src/stm32f10x_fsmc.c **** 
 215:lib/STM32F10x_StdPeriph_Driver/src/stm32f10x_fsmc.c ****   if(FSMC_NORSRAMInitStruct->FSMC_MemoryType == FSMC_MemoryType_NOR)
 172              		.loc 1 215 0
 173 007c 0829     		cmp	r1, #8
 205:lib/STM32F10x_StdPeriph_Driver/src/stm32f10x_fsmc.c ****             FSMC_NORSRAMInitStruct->FSMC_BurstAccessMode |
 174              		.loc 1 205 0
 175 007e 43EA0403 		orr	r3, r3, r4
 206:lib/STM32F10x_StdPeriph_Driver/src/stm32f10x_fsmc.c ****             FSMC_NORSRAMInitStruct->FSMC_WaitSignalPolarity |
 176              		.loc 1 206 0
 177 0082 8469     		ldr	r4, [r0, #24]
 216:lib/STM32F10x_StdPeriph_Driver/src/stm32f10x_fsmc.c ****   {
 217:lib/STM32F10x_StdPeriph_Driver/src/stm32f10x_fsmc.c ****     FSMC_Bank1->BTCR[FSMC_NORSRAMInitStruct->FSMC_Bank] |= (uint32_t)BCR_FACCEN_Set;
 218:lib/STM32F10x_StdPeriph_Driver/src/stm32f10x_fsmc.c ****   }
 219:lib/STM32F10x_StdPeriph_Driver/src/stm32f10x_fsmc.c ****   
 220:lib/STM32F10x_StdPeriph_Driver/src/stm32f10x_fsmc.c ****   /* Bank1 NOR/SRAM timing register configuration */
 221:lib/STM32F10x_StdPeriph_Driver/src/stm32f10x_fsmc.c ****   FSMC_Bank1->BTCR[FSMC_NORSRAMInitStruct->FSMC_Bank+1] = 
 222:lib/STM32F10x_StdPeriph_Driver/src/stm32f10x_fsmc.c ****             (uint32_t)FSMC_NORSRAMInitStruct->FSMC_ReadWriteTimingStruct->FSMC_AddressSetupTime |
 178              		.loc 1 222 0
 179 0084 416B     		ldr	r1, [r0, #52]
 206:lib/STM32F10x_StdPeriph_Driver/src/stm32f10x_fsmc.c ****             FSMC_NORSRAMInitStruct->FSMC_WaitSignalPolarity |
 180              		.loc 1 206 0
 181 0086 43EA0403 		orr	r3, r3, r4
 207:lib/STM32F10x_StdPeriph_Driver/src/stm32f10x_fsmc.c ****             FSMC_NORSRAMInitStruct->FSMC_WrapMode |
 182              		.loc 1 207 0
 183 008a C469     		ldr	r4, [r0, #28]
 223:lib/STM32F10x_StdPeriph_Driver/src/stm32f10x_fsmc.c ****             (FSMC_NORSRAMInitStruct->FSMC_ReadWriteTimingStruct->FSMC_AddressHoldTime << 4) |
 224:lib/STM32F10x_StdPeriph_Driver/src/stm32f10x_fsmc.c ****             (FSMC_NORSRAMInitStruct->FSMC_ReadWriteTimingStruct->FSMC_DataSetupTime << 8) |
 225:lib/STM32F10x_StdPeriph_Driver/src/stm32f10x_fsmc.c ****             (FSMC_NORSRAMInitStruct->FSMC_ReadWriteTimingStruct->FSMC_BusTurnAroundDuration << 16) 
 226:lib/STM32F10x_StdPeriph_Driver/src/stm32f10x_fsmc.c ****             (FSMC_NORSRAMInitStruct->FSMC_ReadWriteTimingStruct->FSMC_CLKDivision << 20) |
 227:lib/STM32F10x_StdPeriph_Driver/src/stm32f10x_fsmc.c ****             (FSMC_NORSRAMInitStruct->FSMC_ReadWriteTimingStruct->FSMC_DataLatency << 24) |
 184              		.loc 1 227 0
 185 008c 8D69     		ldr	r5, [r1, #24]
 207:lib/STM32F10x_StdPeriph_Driver/src/stm32f10x_fsmc.c ****             FSMC_NORSRAMInitStruct->FSMC_WrapMode |
 186              		.loc 1 207 0
 187 008e 43EA0403 		orr	r3, r3, r4
 208:lib/STM32F10x_StdPeriph_Driver/src/stm32f10x_fsmc.c ****             FSMC_NORSRAMInitStruct->FSMC_WaitSignalActive |
 188              		.loc 1 208 0
 189 0092 046A     		ldr	r4, [r0, #32]
 190 0094 43EA0403 		orr	r3, r3, r4
 209:lib/STM32F10x_StdPeriph_Driver/src/stm32f10x_fsmc.c ****             FSMC_NORSRAMInitStruct->FSMC_WriteOperation |
 191              		.loc 1 209 0
 192 0098 446A     		ldr	r4, [r0, #36]
 193 009a 43EA0403 		orr	r3, r3, r4
 210:lib/STM32F10x_StdPeriph_Driver/src/stm32f10x_fsmc.c ****             FSMC_NORSRAMInitStruct->FSMC_WaitSignal |
 194              		.loc 1 210 0
 195 009e 846A     		ldr	r4, [r0, #40]
 196 00a0 43EA0403 		orr	r3, r3, r4
 212:lib/STM32F10x_StdPeriph_Driver/src/stm32f10x_fsmc.c ****             FSMC_NORSRAMInitStruct->FSMC_WriteBurst;
 197              		.loc 1 212 0
 198 00a4 046B     		ldr	r4, [r0, #48]
 211:lib/STM32F10x_StdPeriph_Driver/src/stm32f10x_fsmc.c ****             FSMC_NORSRAMInitStruct->FSMC_ExtendedMode |
 199              		.loc 1 211 0
 200 00a6 43EA0203 		orr	r3, r3, r2
 212:lib/STM32F10x_StdPeriph_Driver/src/stm32f10x_fsmc.c ****             FSMC_NORSRAMInitStruct->FSMC_WriteBurst;
 201              		.loc 1 212 0
 202 00aa 43EA0403 		orr	r3, r3, r4
 203 00ae 0468     		ldr	r4, [r0]
 204 00b0 4FEA8404 		lsl	r4, r4, #2
 205 00b4 04F12044 		add	r4, r4, #-1610612736
 201:lib/STM32F10x_StdPeriph_Driver/src/stm32f10x_fsmc.c ****             (uint32_t)FSMC_NORSRAMInitStruct->FSMC_DataAddressMux |
 206              		.loc 1 201 0
 207 00b8 2360     		str	r3, [r4]
 217:lib/STM32F10x_StdPeriph_Driver/src/stm32f10x_fsmc.c ****   }
 208              		.loc 1 217 0
 209 00ba 02BF     		ittt	eq
 210 00bc 2368     		ldreq	r3, [r4]
 211 00be 43F04003 		orreq	r3, r3, #64
 212 00c2 2360     		streq	r3, [r4]
 213              		.loc 1 227 0
 214 00c4 0B68     		ldr	r3, [r1]
 228:lib/STM32F10x_StdPeriph_Driver/src/stm32f10x_fsmc.c ****              FSMC_NORSRAMInitStruct->FSMC_ReadWriteTimingStruct->FSMC_AccessMode;
 229:lib/STM32F10x_StdPeriph_Driver/src/stm32f10x_fsmc.c ****             
 230:lib/STM32F10x_StdPeriph_Driver/src/stm32f10x_fsmc.c ****     
 231:lib/STM32F10x_StdPeriph_Driver/src/stm32f10x_fsmc.c ****   /* Bank1 NOR/SRAM timing register for write configuration, if extended mode is used */
 232:lib/STM32F10x_StdPeriph_Driver/src/stm32f10x_fsmc.c ****   if(FSMC_NORSRAMInitStruct->FSMC_ExtendedMode == FSMC_ExtendedMode_Enable)
 215              		.loc 1 232 0
 216 00c6 B2F5804F 		cmp	r2, #16384
 227:lib/STM32F10x_StdPeriph_Driver/src/stm32f10x_fsmc.c ****              FSMC_NORSRAMInitStruct->FSMC_ReadWriteTimingStruct->FSMC_AccessMode;
 217              		.loc 1 227 0
 218 00ca 43EA0503 		orr	r3, r3, r5
 223:lib/STM32F10x_StdPeriph_Driver/src/stm32f10x_fsmc.c ****             (FSMC_NORSRAMInitStruct->FSMC_ReadWriteTimingStruct->FSMC_DataSetupTime << 8) |
 219              		.loc 1 223 0
 220 00ce 4D68     		ldr	r5, [r1, #4]
 227:lib/STM32F10x_StdPeriph_Driver/src/stm32f10x_fsmc.c ****              FSMC_NORSRAMInitStruct->FSMC_ReadWriteTimingStruct->FSMC_AccessMode;
 221              		.loc 1 227 0
 222 00d0 43EA0513 		orr	r3, r3, r5, lsl #4
 224:lib/STM32F10x_StdPeriph_Driver/src/stm32f10x_fsmc.c ****             (FSMC_NORSRAMInitStruct->FSMC_ReadWriteTimingStruct->FSMC_BusTurnAroundDuration << 16) 
 223              		.loc 1 224 0
 224 00d4 8D68     		ldr	r5, [r1, #8]
 227:lib/STM32F10x_StdPeriph_Driver/src/stm32f10x_fsmc.c ****              FSMC_NORSRAMInitStruct->FSMC_ReadWriteTimingStruct->FSMC_AccessMode;
 225              		.loc 1 227 0
 226 00d6 43EA0523 		orr	r3, r3, r5, lsl #8
 225:lib/STM32F10x_StdPeriph_Driver/src/stm32f10x_fsmc.c ****             (FSMC_NORSRAMInitStruct->FSMC_ReadWriteTimingStruct->FSMC_CLKDivision << 20) |
 227              		.loc 1 225 0
 228 00da CD68     		ldr	r5, [r1, #12]
 227:lib/STM32F10x_StdPeriph_Driver/src/stm32f10x_fsmc.c ****              FSMC_NORSRAMInitStruct->FSMC_ReadWriteTimingStruct->FSMC_AccessMode;
 229              		.loc 1 227 0
 230 00dc 43EA0543 		orr	r3, r3, r5, lsl #16
 226:lib/STM32F10x_StdPeriph_Driver/src/stm32f10x_fsmc.c ****             (FSMC_NORSRAMInitStruct->FSMC_ReadWriteTimingStruct->FSMC_DataLatency << 24) |
 231              		.loc 1 226 0
 232 00e0 0D69     		ldr	r5, [r1, #16]
 227:lib/STM32F10x_StdPeriph_Driver/src/stm32f10x_fsmc.c ****              FSMC_NORSRAMInitStruct->FSMC_ReadWriteTimingStruct->FSMC_AccessMode;
 233              		.loc 1 227 0
 234 00e2 4969     		ldr	r1, [r1, #20]
 235 00e4 43EA0553 		orr	r3, r3, r5, lsl #20
 236 00e8 43EA0163 		orr	r3, r3, r1, lsl #24
 221:lib/STM32F10x_StdPeriph_Driver/src/stm32f10x_fsmc.c ****             (uint32_t)FSMC_NORSRAMInitStruct->FSMC_ReadWriteTimingStruct->FSMC_AddressSetupTime |
 237              		.loc 1 221 0
 238 00ec 6360     		str	r3, [r4, #4]
 239              		.loc 1 232 0
 240 00ee 12D1     		bne	.L15
 233:lib/STM32F10x_StdPeriph_Driver/src/stm32f10x_fsmc.c ****   {
 234:lib/STM32F10x_StdPeriph_Driver/src/stm32f10x_fsmc.c ****     assert_param(IS_FSMC_ADDRESS_SETUP_TIME(FSMC_NORSRAMInitStruct->FSMC_WriteTimingStruct->FSMC_Ad
 235:lib/STM32F10x_StdPeriph_Driver/src/stm32f10x_fsmc.c ****     assert_param(IS_FSMC_ADDRESS_HOLD_TIME(FSMC_NORSRAMInitStruct->FSMC_WriteTimingStruct->FSMC_Add
 236:lib/STM32F10x_StdPeriph_Driver/src/stm32f10x_fsmc.c ****     assert_param(IS_FSMC_DATASETUP_TIME(FSMC_NORSRAMInitStruct->FSMC_WriteTimingStruct->FSMC_DataSe
 237:lib/STM32F10x_StdPeriph_Driver/src/stm32f10x_fsmc.c ****     assert_param(IS_FSMC_CLK_DIV(FSMC_NORSRAMInitStruct->FSMC_WriteTimingStruct->FSMC_CLKDivision))
 238:lib/STM32F10x_StdPeriph_Driver/src/stm32f10x_fsmc.c ****     assert_param(IS_FSMC_DATA_LATENCY(FSMC_NORSRAMInitStruct->FSMC_WriteTimingStruct->FSMC_DataLate
 239:lib/STM32F10x_StdPeriph_Driver/src/stm32f10x_fsmc.c ****     assert_param(IS_FSMC_ACCESS_MODE(FSMC_NORSRAMInitStruct->FSMC_WriteTimingStruct->FSMC_AccessMod
 240:lib/STM32F10x_StdPeriph_Driver/src/stm32f10x_fsmc.c ****     FSMC_Bank1E->BWTR[FSMC_NORSRAMInitStruct->FSMC_Bank] = 
 241:lib/STM32F10x_StdPeriph_Driver/src/stm32f10x_fsmc.c ****               (uint32_t)FSMC_NORSRAMInitStruct->FSMC_WriteTimingStruct->FSMC_AddressSetupTime |
 241              		.loc 1 241 0
 242 00f0 826B     		ldr	r2, [r0, #56]
 242:lib/STM32F10x_StdPeriph_Driver/src/stm32f10x_fsmc.c ****               (FSMC_NORSRAMInitStruct->FSMC_WriteTimingStruct->FSMC_AddressHoldTime << 4 )|
 243:lib/STM32F10x_StdPeriph_Driver/src/stm32f10x_fsmc.c ****               (FSMC_NORSRAMInitStruct->FSMC_WriteTimingStruct->FSMC_DataSetupTime << 8) |
 244:lib/STM32F10x_StdPeriph_Driver/src/stm32f10x_fsmc.c ****               (FSMC_NORSRAMInitStruct->FSMC_WriteTimingStruct->FSMC_CLKDivision << 20) |
 245:lib/STM32F10x_StdPeriph_Driver/src/stm32f10x_fsmc.c ****               (FSMC_NORSRAMInitStruct->FSMC_WriteTimingStruct->FSMC_DataLatency << 24) |
 243              		.loc 1 245 0
 244 00f2 9169     		ldr	r1, [r2, #24]
 245 00f4 1368     		ldr	r3, [r2]
 246 00f6 0B43     		orrs	r3, r3, r1
 242:lib/STM32F10x_StdPeriph_Driver/src/stm32f10x_fsmc.c ****               (FSMC_NORSRAMInitStruct->FSMC_WriteTimingStruct->FSMC_AddressHoldTime << 4 )|
 247              		.loc 1 242 0
 248 00f8 5168     		ldr	r1, [r2, #4]
 249              		.loc 1 245 0
 250 00fa 43EA0113 		orr	r3, r3, r1, lsl #4
 243:lib/STM32F10x_StdPeriph_Driver/src/stm32f10x_fsmc.c ****               (FSMC_NORSRAMInitStruct->FSMC_WriteTimingStruct->FSMC_CLKDivision << 20) |
 251              		.loc 1 243 0
 252 00fe 9168     		ldr	r1, [r2, #8]
 253              		.loc 1 245 0
 254 0100 43EA0123 		orr	r3, r3, r1, lsl #8
 244:lib/STM32F10x_StdPeriph_Driver/src/stm32f10x_fsmc.c ****               (FSMC_NORSRAMInitStruct->FSMC_WriteTimingStruct->FSMC_DataLatency << 24) |
 255              		.loc 1 244 0
 256 0104 1169     		ldr	r1, [r2, #16]
 257              		.loc 1 245 0
 258 0106 5269     		ldr	r2, [r2, #20]
 259 0108 43EA0153 		orr	r3, r3, r1, lsl #20
 260 010c 43EA0263 		orr	r3, r3, r2, lsl #24
 261              	.L17:
 246:lib/STM32F10x_StdPeriph_Driver/src/stm32f10x_fsmc.c ****                FSMC_NORSRAMInitStruct->FSMC_WriteTimingStruct->FSMC_AccessMode;
 247:lib/STM32F10x_StdPeriph_Driver/src/stm32f10x_fsmc.c ****   }
 248:lib/STM32F10x_StdPeriph_Driver/src/stm32f10x_fsmc.c ****   else
 249:lib/STM32F10x_StdPeriph_Driver/src/stm32f10x_fsmc.c ****   {
 250:lib/STM32F10x_StdPeriph_Driver/src/stm32f10x_fsmc.c ****     FSMC_Bank1E->BWTR[FSMC_NORSRAMInitStruct->FSMC_Bank] = 0x0FFFFFFF;
 262              		.loc 1 250 0
 263 0110 C4F80431 		str	r3, [r4, #260]
 264 0114 30BD     		pop	{r4, r5, pc}
 265              	.L15:
 266 0116 6FF07043 		mvn	r3, #-268435456
 267 011a F9E7     		b	.L17
 268              		.cfi_endproc
 269              	.LFE32:
 271              		.align	1
 272              		.global	FSMC_NANDInit
 273              		.syntax unified
 274              		.thumb
 275              		.thumb_func
 276              		.fpu softvfp
 278              	FSMC_NANDInit:
 279              	.LFB33:
 251:lib/STM32F10x_StdPeriph_Driver/src/stm32f10x_fsmc.c ****   }
 252:lib/STM32F10x_StdPeriph_Driver/src/stm32f10x_fsmc.c **** }
 253:lib/STM32F10x_StdPeriph_Driver/src/stm32f10x_fsmc.c **** 
 254:lib/STM32F10x_StdPeriph_Driver/src/stm32f10x_fsmc.c **** /**
 255:lib/STM32F10x_StdPeriph_Driver/src/stm32f10x_fsmc.c ****   * @brief  Initializes the FSMC NAND Banks according to the specified 
 256:lib/STM32F10x_StdPeriph_Driver/src/stm32f10x_fsmc.c ****   *         parameters in the FSMC_NANDInitStruct.
 257:lib/STM32F10x_StdPeriph_Driver/src/stm32f10x_fsmc.c ****   * @param  FSMC_NANDInitStruct : pointer to a FSMC_NANDInitTypeDef 
 258:lib/STM32F10x_StdPeriph_Driver/src/stm32f10x_fsmc.c ****   *         structure that contains the configuration information for the FSMC 
 259:lib/STM32F10x_StdPeriph_Driver/src/stm32f10x_fsmc.c ****   *         NAND specified Banks.                       
 260:lib/STM32F10x_StdPeriph_Driver/src/stm32f10x_fsmc.c ****   * @retval None
 261:lib/STM32F10x_StdPeriph_Driver/src/stm32f10x_fsmc.c ****   */
 262:lib/STM32F10x_StdPeriph_Driver/src/stm32f10x_fsmc.c **** void FSMC_NANDInit(FSMC_NANDInitTypeDef* FSMC_NANDInitStruct)
 263:lib/STM32F10x_StdPeriph_Driver/src/stm32f10x_fsmc.c **** {
 280              		.loc 1 263 0
 281              		.cfi_startproc
 282              		@ args = 0, pretend = 0, frame = 0
 283              		@ frame_needed = 0, uses_anonymous_args = 0
 284              	.LVL5:
 264:lib/STM32F10x_StdPeriph_Driver/src/stm32f10x_fsmc.c ****   uint32_t tmppcr = 0x00000000, tmppmem = 0x00000000, tmppatt = 0x00000000; 
 265:lib/STM32F10x_StdPeriph_Driver/src/stm32f10x_fsmc.c ****     
 266:lib/STM32F10x_StdPeriph_Driver/src/stm32f10x_fsmc.c ****   /* Check the parameters */
 267:lib/STM32F10x_StdPeriph_Driver/src/stm32f10x_fsmc.c ****   assert_param( IS_FSMC_NAND_BANK(FSMC_NANDInitStruct->FSMC_Bank));
 268:lib/STM32F10x_StdPeriph_Driver/src/stm32f10x_fsmc.c ****   assert_param( IS_FSMC_WAIT_FEATURE(FSMC_NANDInitStruct->FSMC_Waitfeature));
 269:lib/STM32F10x_StdPeriph_Driver/src/stm32f10x_fsmc.c ****   assert_param( IS_FSMC_MEMORY_WIDTH(FSMC_NANDInitStruct->FSMC_MemoryDataWidth));
 270:lib/STM32F10x_StdPeriph_Driver/src/stm32f10x_fsmc.c ****   assert_param( IS_FSMC_ECC_STATE(FSMC_NANDInitStruct->FSMC_ECC));
 271:lib/STM32F10x_StdPeriph_Driver/src/stm32f10x_fsmc.c ****   assert_param( IS_FSMC_ECCPAGE_SIZE(FSMC_NANDInitStruct->FSMC_ECCPageSize));
 272:lib/STM32F10x_StdPeriph_Driver/src/stm32f10x_fsmc.c ****   assert_param( IS_FSMC_TCLR_TIME(FSMC_NANDInitStruct->FSMC_TCLRSetupTime));
 273:lib/STM32F10x_StdPeriph_Driver/src/stm32f10x_fsmc.c ****   assert_param( IS_FSMC_TAR_TIME(FSMC_NANDInitStruct->FSMC_TARSetupTime));
 274:lib/STM32F10x_StdPeriph_Driver/src/stm32f10x_fsmc.c ****   assert_param(IS_FSMC_SETUP_TIME(FSMC_NANDInitStruct->FSMC_CommonSpaceTimingStruct->FSMC_SetupTime
 275:lib/STM32F10x_StdPeriph_Driver/src/stm32f10x_fsmc.c ****   assert_param(IS_FSMC_WAIT_TIME(FSMC_NANDInitStruct->FSMC_CommonSpaceTimingStruct->FSMC_WaitSetupT
 276:lib/STM32F10x_StdPeriph_Driver/src/stm32f10x_fsmc.c ****   assert_param(IS_FSMC_HOLD_TIME(FSMC_NANDInitStruct->FSMC_CommonSpaceTimingStruct->FSMC_HoldSetupT
 277:lib/STM32F10x_StdPeriph_Driver/src/stm32f10x_fsmc.c ****   assert_param(IS_FSMC_HIZ_TIME(FSMC_NANDInitStruct->FSMC_CommonSpaceTimingStruct->FSMC_HiZSetupTim
 278:lib/STM32F10x_StdPeriph_Driver/src/stm32f10x_fsmc.c ****   assert_param(IS_FSMC_SETUP_TIME(FSMC_NANDInitStruct->FSMC_AttributeSpaceTimingStruct->FSMC_SetupT
 279:lib/STM32F10x_StdPeriph_Driver/src/stm32f10x_fsmc.c ****   assert_param(IS_FSMC_WAIT_TIME(FSMC_NANDInitStruct->FSMC_AttributeSpaceTimingStruct->FSMC_WaitSet
 280:lib/STM32F10x_StdPeriph_Driver/src/stm32f10x_fsmc.c ****   assert_param(IS_FSMC_HOLD_TIME(FSMC_NANDInitStruct->FSMC_AttributeSpaceTimingStruct->FSMC_HoldSet
 281:lib/STM32F10x_StdPeriph_Driver/src/stm32f10x_fsmc.c ****   assert_param(IS_FSMC_HIZ_TIME(FSMC_NANDInitStruct->FSMC_AttributeSpaceTimingStruct->FSMC_HiZSetup
 282:lib/STM32F10x_StdPeriph_Driver/src/stm32f10x_fsmc.c ****   
 283:lib/STM32F10x_StdPeriph_Driver/src/stm32f10x_fsmc.c ****   /* Set the tmppcr value according to FSMC_NANDInitStruct parameters */
 284:lib/STM32F10x_StdPeriph_Driver/src/stm32f10x_fsmc.c ****   tmppcr = (uint32_t)FSMC_NANDInitStruct->FSMC_Waitfeature |
 285:lib/STM32F10x_StdPeriph_Driver/src/stm32f10x_fsmc.c ****             PCR_MemoryType_NAND |
 285              		.loc 1 285 0
 286 011c 8268     		ldr	r2, [r0, #8]
 287 011e 4368     		ldr	r3, [r0, #4]
 263:lib/STM32F10x_StdPeriph_Driver/src/stm32f10x_fsmc.c ****   uint32_t tmppcr = 0x00000000, tmppmem = 0x00000000, tmppatt = 0x00000000; 
 288              		.loc 1 263 0
 289 0120 30B5     		push	{r4, r5, lr}
 290              	.LCFI1:
 291              		.cfi_def_cfa_offset 12
 292              		.cfi_offset 4, -12
 293              		.cfi_offset 5, -8
 294              		.cfi_offset 14, -4
 295              		.loc 1 285 0
 296 0122 1343     		orrs	r3, r3, r2
 284:lib/STM32F10x_StdPeriph_Driver/src/stm32f10x_fsmc.c ****             PCR_MemoryType_NAND |
 297              		.loc 1 284 0
 298 0124 C268     		ldr	r2, [r0, #12]
 299 0126 43F00803 		orr	r3, r3, #8
 300 012a 1343     		orrs	r3, r3, r2
 301 012c 0269     		ldr	r2, [r0, #16]
 286:lib/STM32F10x_StdPeriph_Driver/src/stm32f10x_fsmc.c ****             FSMC_NANDInitStruct->FSMC_MemoryDataWidth |
 287:lib/STM32F10x_StdPeriph_Driver/src/stm32f10x_fsmc.c ****             FSMC_NANDInitStruct->FSMC_ECC |
 288:lib/STM32F10x_StdPeriph_Driver/src/stm32f10x_fsmc.c ****             FSMC_NANDInitStruct->FSMC_ECCPageSize |
 289:lib/STM32F10x_StdPeriph_Driver/src/stm32f10x_fsmc.c ****             (FSMC_NANDInitStruct->FSMC_TCLRSetupTime << 9 )|
 290:lib/STM32F10x_StdPeriph_Driver/src/stm32f10x_fsmc.c ****             (FSMC_NANDInitStruct->FSMC_TARSetupTime << 13);
 291:lib/STM32F10x_StdPeriph_Driver/src/stm32f10x_fsmc.c ****             
 292:lib/STM32F10x_StdPeriph_Driver/src/stm32f10x_fsmc.c ****   /* Set tmppmem value according to FSMC_CommonSpaceTimingStructure parameters */
 293:lib/STM32F10x_StdPeriph_Driver/src/stm32f10x_fsmc.c ****   tmppmem = (uint32_t)FSMC_NANDInitStruct->FSMC_CommonSpaceTimingStruct->FSMC_SetupTime |
 302              		.loc 1 293 0
 303 012e C469     		ldr	r4, [r0, #28]
 284:lib/STM32F10x_StdPeriph_Driver/src/stm32f10x_fsmc.c ****             PCR_MemoryType_NAND |
 304              		.loc 1 284 0
 305 0130 1343     		orrs	r3, r3, r2
 289:lib/STM32F10x_StdPeriph_Driver/src/stm32f10x_fsmc.c ****             (FSMC_NANDInitStruct->FSMC_TARSetupTime << 13);
 306              		.loc 1 289 0
 307 0132 4269     		ldr	r2, [r0, #20]
 294:lib/STM32F10x_StdPeriph_Driver/src/stm32f10x_fsmc.c ****             (FSMC_NANDInitStruct->FSMC_CommonSpaceTimingStruct->FSMC_WaitSetupTime << 8) |
 308              		.loc 1 294 0
 309 0134 6568     		ldr	r5, [r4, #4]
 284:lib/STM32F10x_StdPeriph_Driver/src/stm32f10x_fsmc.c ****             PCR_MemoryType_NAND |
 310              		.loc 1 284 0
 311 0136 43EA4223 		orr	r3, r3, r2, lsl #9
 290:lib/STM32F10x_StdPeriph_Driver/src/stm32f10x_fsmc.c ****             
 312              		.loc 1 290 0
 313 013a 8269     		ldr	r2, [r0, #24]
 284:lib/STM32F10x_StdPeriph_Driver/src/stm32f10x_fsmc.c ****             PCR_MemoryType_NAND |
 314              		.loc 1 284 0
 315 013c 43EA4233 		orr	r3, r3, r2, lsl #13
 316              	.LVL6:
 295:lib/STM32F10x_StdPeriph_Driver/src/stm32f10x_fsmc.c ****             (FSMC_NANDInitStruct->FSMC_CommonSpaceTimingStruct->FSMC_HoldSetupTime << 16)|
 317              		.loc 1 295 0
 318 0140 A268     		ldr	r2, [r4, #8]
 319 0142 1104     		lsls	r1, r2, #16
 294:lib/STM32F10x_StdPeriph_Driver/src/stm32f10x_fsmc.c ****             (FSMC_NANDInitStruct->FSMC_CommonSpaceTimingStruct->FSMC_HoldSetupTime << 16)|
 320              		.loc 1 294 0
 321 0144 2268     		ldr	r2, [r4]
 322 0146 41EA0521 		orr	r1, r1, r5, lsl #8
 323 014a 1143     		orrs	r1, r1, r2
 296:lib/STM32F10x_StdPeriph_Driver/src/stm32f10x_fsmc.c ****             (FSMC_NANDInitStruct->FSMC_CommonSpaceTimingStruct->FSMC_HiZSetupTime << 24); 
 324              		.loc 1 296 0
 325 014c E268     		ldr	r2, [r4, #12]
 297:lib/STM32F10x_StdPeriph_Driver/src/stm32f10x_fsmc.c ****             
 298:lib/STM32F10x_StdPeriph_Driver/src/stm32f10x_fsmc.c ****   /* Set tmppatt value according to FSMC_AttributeSpaceTimingStructure parameters */
 299:lib/STM32F10x_StdPeriph_Driver/src/stm32f10x_fsmc.c ****   tmppatt = (uint32_t)FSMC_NANDInitStruct->FSMC_AttributeSpaceTimingStruct->FSMC_SetupTime |
 326              		.loc 1 299 0
 327 014e 046A     		ldr	r4, [r0, #32]
 293:lib/STM32F10x_StdPeriph_Driver/src/stm32f10x_fsmc.c ****             (FSMC_NANDInitStruct->FSMC_CommonSpaceTimingStruct->FSMC_WaitSetupTime << 8) |
 328              		.loc 1 293 0
 329 0150 41EA0261 		orr	r1, r1, r2, lsl #24
 330              	.LVL7:
 300:lib/STM32F10x_StdPeriph_Driver/src/stm32f10x_fsmc.c ****             (FSMC_NANDInitStruct->FSMC_AttributeSpaceTimingStruct->FSMC_WaitSetupTime << 8) |
 301:lib/STM32F10x_StdPeriph_Driver/src/stm32f10x_fsmc.c ****             (FSMC_NANDInitStruct->FSMC_AttributeSpaceTimingStruct->FSMC_HoldSetupTime << 16)|
 331              		.loc 1 301 0
 332 0154 A268     		ldr	r2, [r4, #8]
 300:lib/STM32F10x_StdPeriph_Driver/src/stm32f10x_fsmc.c ****             (FSMC_NANDInitStruct->FSMC_AttributeSpaceTimingStruct->FSMC_WaitSetupTime << 8) |
 333              		.loc 1 300 0
 334 0156 6568     		ldr	r5, [r4, #4]
 302:lib/STM32F10x_StdPeriph_Driver/src/stm32f10x_fsmc.c ****             (FSMC_NANDInitStruct->FSMC_AttributeSpaceTimingStruct->FSMC_HiZSetupTime << 24);
 303:lib/STM32F10x_StdPeriph_Driver/src/stm32f10x_fsmc.c ****   
 304:lib/STM32F10x_StdPeriph_Driver/src/stm32f10x_fsmc.c ****   if(FSMC_NANDInitStruct->FSMC_Bank == FSMC_Bank2_NAND)
 335              		.loc 1 304 0
 336 0158 0068     		ldr	r0, [r0]
 337              	.LVL8:
 301:lib/STM32F10x_StdPeriph_Driver/src/stm32f10x_fsmc.c ****             (FSMC_NANDInitStruct->FSMC_AttributeSpaceTimingStruct->FSMC_HiZSetupTime << 24);
 338              		.loc 1 301 0
 339 015a 1204     		lsls	r2, r2, #16
 300:lib/STM32F10x_StdPeriph_Driver/src/stm32f10x_fsmc.c ****             (FSMC_NANDInitStruct->FSMC_AttributeSpaceTimingStruct->FSMC_WaitSetupTime << 8) |
 340              		.loc 1 300 0
 341 015c 42EA0522 		orr	r2, r2, r5, lsl #8
 342 0160 2568     		ldr	r5, [r4]
 343              		.loc 1 304 0
 344 0162 1028     		cmp	r0, #16
 302:lib/STM32F10x_StdPeriph_Driver/src/stm32f10x_fsmc.c ****             (FSMC_NANDInitStruct->FSMC_AttributeSpaceTimingStruct->FSMC_HiZSetupTime << 24);
 345              		.loc 1 302 0
 346 0164 E468     		ldr	r4, [r4, #12]
 305:lib/STM32F10x_StdPeriph_Driver/src/stm32f10x_fsmc.c ****   {
 306:lib/STM32F10x_StdPeriph_Driver/src/stm32f10x_fsmc.c ****     /* FSMC_Bank2_NAND registers configuration */
 307:lib/STM32F10x_StdPeriph_Driver/src/stm32f10x_fsmc.c ****     FSMC_Bank2->PCR2 = tmppcr;
 347              		.loc 1 307 0
 348 0166 0CBF     		ite	eq
 349 0168 0448     		ldreq	r0, .L22
 308:lib/STM32F10x_StdPeriph_Driver/src/stm32f10x_fsmc.c ****     FSMC_Bank2->PMEM2 = tmppmem;
 309:lib/STM32F10x_StdPeriph_Driver/src/stm32f10x_fsmc.c ****     FSMC_Bank2->PATT2 = tmppatt;
 310:lib/STM32F10x_StdPeriph_Driver/src/stm32f10x_fsmc.c ****   }
 311:lib/STM32F10x_StdPeriph_Driver/src/stm32f10x_fsmc.c ****   else
 312:lib/STM32F10x_StdPeriph_Driver/src/stm32f10x_fsmc.c ****   {
 313:lib/STM32F10x_StdPeriph_Driver/src/stm32f10x_fsmc.c ****     /* FSMC_Bank3_NAND registers configuration */
 314:lib/STM32F10x_StdPeriph_Driver/src/stm32f10x_fsmc.c ****     FSMC_Bank3->PCR3 = tmppcr;
 350              		.loc 1 314 0
 351 016a 0548     		ldrne	r0, .L22+4
 300:lib/STM32F10x_StdPeriph_Driver/src/stm32f10x_fsmc.c ****             (FSMC_NANDInitStruct->FSMC_AttributeSpaceTimingStruct->FSMC_HoldSetupTime << 16)|
 352              		.loc 1 300 0
 353 016c 2A43     		orrs	r2, r2, r5
 299:lib/STM32F10x_StdPeriph_Driver/src/stm32f10x_fsmc.c ****             (FSMC_NANDInitStruct->FSMC_AttributeSpaceTimingStruct->FSMC_WaitSetupTime << 8) |
 354              		.loc 1 299 0
 355 016e 42EA0462 		orr	r2, r2, r4, lsl #24
 356              	.LVL9:
 357              		.loc 1 314 0
 358 0172 0360     		str	r3, [r0]
 315:lib/STM32F10x_StdPeriph_Driver/src/stm32f10x_fsmc.c ****     FSMC_Bank3->PMEM3 = tmppmem;
 359              		.loc 1 315 0
 360 0174 8160     		str	r1, [r0, #8]
 316:lib/STM32F10x_StdPeriph_Driver/src/stm32f10x_fsmc.c ****     FSMC_Bank3->PATT3 = tmppatt;
 361              		.loc 1 316 0
 362 0176 C260     		str	r2, [r0, #12]
 363 0178 30BD     		pop	{r4, r5, pc}
 364              	.L23:
 365 017a 00BF     		.align	2
 366              	.L22:
 367 017c 600000A0 		.word	-1610612640
 368 0180 800000A0 		.word	-1610612608
 369              		.cfi_endproc
 370              	.LFE33:
 372              		.align	1
 373              		.global	FSMC_PCCARDInit
 374              		.syntax unified
 375              		.thumb
 376              		.thumb_func
 377              		.fpu softvfp
 379              	FSMC_PCCARDInit:
 380              	.LFB34:
 317:lib/STM32F10x_StdPeriph_Driver/src/stm32f10x_fsmc.c ****   }
 318:lib/STM32F10x_StdPeriph_Driver/src/stm32f10x_fsmc.c **** }
 319:lib/STM32F10x_StdPeriph_Driver/src/stm32f10x_fsmc.c **** 
 320:lib/STM32F10x_StdPeriph_Driver/src/stm32f10x_fsmc.c **** /**
 321:lib/STM32F10x_StdPeriph_Driver/src/stm32f10x_fsmc.c ****   * @brief  Initializes the FSMC PCCARD Bank according to the specified 
 322:lib/STM32F10x_StdPeriph_Driver/src/stm32f10x_fsmc.c ****   *         parameters in the FSMC_PCCARDInitStruct.
 323:lib/STM32F10x_StdPeriph_Driver/src/stm32f10x_fsmc.c ****   * @param  FSMC_PCCARDInitStruct : pointer to a FSMC_PCCARDInitTypeDef
 324:lib/STM32F10x_StdPeriph_Driver/src/stm32f10x_fsmc.c ****   *         structure that contains the configuration information for the FSMC 
 325:lib/STM32F10x_StdPeriph_Driver/src/stm32f10x_fsmc.c ****   *         PCCARD Bank.                       
 326:lib/STM32F10x_StdPeriph_Driver/src/stm32f10x_fsmc.c ****   * @retval None
 327:lib/STM32F10x_StdPeriph_Driver/src/stm32f10x_fsmc.c ****   */
 328:lib/STM32F10x_StdPeriph_Driver/src/stm32f10x_fsmc.c **** void FSMC_PCCARDInit(FSMC_PCCARDInitTypeDef* FSMC_PCCARDInitStruct)
 329:lib/STM32F10x_StdPeriph_Driver/src/stm32f10x_fsmc.c **** {
 381              		.loc 1 329 0
 382              		.cfi_startproc
 383              		@ args = 0, pretend = 0, frame = 0
 384              		@ frame_needed = 0, uses_anonymous_args = 0
 385              	.LVL10:
 330:lib/STM32F10x_StdPeriph_Driver/src/stm32f10x_fsmc.c ****   /* Check the parameters */
 331:lib/STM32F10x_StdPeriph_Driver/src/stm32f10x_fsmc.c ****   assert_param(IS_FSMC_WAIT_FEATURE(FSMC_PCCARDInitStruct->FSMC_Waitfeature));
 332:lib/STM32F10x_StdPeriph_Driver/src/stm32f10x_fsmc.c ****   assert_param(IS_FSMC_TCLR_TIME(FSMC_PCCARDInitStruct->FSMC_TCLRSetupTime));
 333:lib/STM32F10x_StdPeriph_Driver/src/stm32f10x_fsmc.c ****   assert_param(IS_FSMC_TAR_TIME(FSMC_PCCARDInitStruct->FSMC_TARSetupTime));
 334:lib/STM32F10x_StdPeriph_Driver/src/stm32f10x_fsmc.c ****  
 335:lib/STM32F10x_StdPeriph_Driver/src/stm32f10x_fsmc.c ****   assert_param(IS_FSMC_SETUP_TIME(FSMC_PCCARDInitStruct->FSMC_CommonSpaceTimingStruct->FSMC_SetupTi
 336:lib/STM32F10x_StdPeriph_Driver/src/stm32f10x_fsmc.c ****   assert_param(IS_FSMC_WAIT_TIME(FSMC_PCCARDInitStruct->FSMC_CommonSpaceTimingStruct->FSMC_WaitSetu
 337:lib/STM32F10x_StdPeriph_Driver/src/stm32f10x_fsmc.c ****   assert_param(IS_FSMC_HOLD_TIME(FSMC_PCCARDInitStruct->FSMC_CommonSpaceTimingStruct->FSMC_HoldSetu
 338:lib/STM32F10x_StdPeriph_Driver/src/stm32f10x_fsmc.c ****   assert_param(IS_FSMC_HIZ_TIME(FSMC_PCCARDInitStruct->FSMC_CommonSpaceTimingStruct->FSMC_HiZSetupT
 339:lib/STM32F10x_StdPeriph_Driver/src/stm32f10x_fsmc.c ****   
 340:lib/STM32F10x_StdPeriph_Driver/src/stm32f10x_fsmc.c ****   assert_param(IS_FSMC_SETUP_TIME(FSMC_PCCARDInitStruct->FSMC_AttributeSpaceTimingStruct->FSMC_Setu
 341:lib/STM32F10x_StdPeriph_Driver/src/stm32f10x_fsmc.c ****   assert_param(IS_FSMC_WAIT_TIME(FSMC_PCCARDInitStruct->FSMC_AttributeSpaceTimingStruct->FSMC_WaitS
 342:lib/STM32F10x_StdPeriph_Driver/src/stm32f10x_fsmc.c ****   assert_param(IS_FSMC_HOLD_TIME(FSMC_PCCARDInitStruct->FSMC_AttributeSpaceTimingStruct->FSMC_HoldS
 343:lib/STM32F10x_StdPeriph_Driver/src/stm32f10x_fsmc.c ****   assert_param(IS_FSMC_HIZ_TIME(FSMC_PCCARDInitStruct->FSMC_AttributeSpaceTimingStruct->FSMC_HiZSet
 344:lib/STM32F10x_StdPeriph_Driver/src/stm32f10x_fsmc.c ****   assert_param(IS_FSMC_SETUP_TIME(FSMC_PCCARDInitStruct->FSMC_IOSpaceTimingStruct->FSMC_SetupTime))
 345:lib/STM32F10x_StdPeriph_Driver/src/stm32f10x_fsmc.c ****   assert_param(IS_FSMC_WAIT_TIME(FSMC_PCCARDInitStruct->FSMC_IOSpaceTimingStruct->FSMC_WaitSetupTim
 346:lib/STM32F10x_StdPeriph_Driver/src/stm32f10x_fsmc.c ****   assert_param(IS_FSMC_HOLD_TIME(FSMC_PCCARDInitStruct->FSMC_IOSpaceTimingStruct->FSMC_HoldSetupTim
 347:lib/STM32F10x_StdPeriph_Driver/src/stm32f10x_fsmc.c ****   assert_param(IS_FSMC_HIZ_TIME(FSMC_PCCARDInitStruct->FSMC_IOSpaceTimingStruct->FSMC_HiZSetupTime)
 348:lib/STM32F10x_StdPeriph_Driver/src/stm32f10x_fsmc.c ****   
 349:lib/STM32F10x_StdPeriph_Driver/src/stm32f10x_fsmc.c ****   /* Set the PCR4 register value according to FSMC_PCCARDInitStruct parameters */
 350:lib/STM32F10x_StdPeriph_Driver/src/stm32f10x_fsmc.c ****   FSMC_Bank4->PCR4 = (uint32_t)FSMC_PCCARDInitStruct->FSMC_Waitfeature |
 351:lib/STM32F10x_StdPeriph_Driver/src/stm32f10x_fsmc.c ****                      FSMC_MemoryDataWidth_16b |  
 352:lib/STM32F10x_StdPeriph_Driver/src/stm32f10x_fsmc.c ****                      (FSMC_PCCARDInitStruct->FSMC_TCLRSetupTime << 9) |
 386              		.loc 1 352 0
 387 0184 0368     		ldr	r3, [r0]
 388 0186 4268     		ldr	r2, [r0, #4]
 389 0188 43F01003 		orr	r3, r3, #16
 390 018c 43EA4223 		orr	r3, r3, r2, lsl #9
 353:lib/STM32F10x_StdPeriph_Driver/src/stm32f10x_fsmc.c ****                      (FSMC_PCCARDInitStruct->FSMC_TARSetupTime << 13);
 391              		.loc 1 353 0
 392 0190 8268     		ldr	r2, [r0, #8]
 354:lib/STM32F10x_StdPeriph_Driver/src/stm32f10x_fsmc.c ****             
 355:lib/STM32F10x_StdPeriph_Driver/src/stm32f10x_fsmc.c ****   /* Set PMEM4 register value according to FSMC_CommonSpaceTimingStructure parameters */
 356:lib/STM32F10x_StdPeriph_Driver/src/stm32f10x_fsmc.c ****   FSMC_Bank4->PMEM4 = (uint32_t)FSMC_PCCARDInitStruct->FSMC_CommonSpaceTimingStruct->FSMC_SetupTime
 393              		.loc 1 356 0
 394 0192 C168     		ldr	r1, [r0, #12]
 352:lib/STM32F10x_StdPeriph_Driver/src/stm32f10x_fsmc.c ****                      (FSMC_PCCARDInitStruct->FSMC_TARSetupTime << 13);
 395              		.loc 1 352 0
 396 0194 43EA4233 		orr	r3, r3, r2, lsl #13
 350:lib/STM32F10x_StdPeriph_Driver/src/stm32f10x_fsmc.c ****                      FSMC_MemoryDataWidth_16b |  
 397              		.loc 1 350 0
 398 0198 134A     		ldr	r2, .L25
 329:lib/STM32F10x_StdPeriph_Driver/src/stm32f10x_fsmc.c ****   /* Check the parameters */
 399              		.loc 1 329 0
 400 019a 10B5     		push	{r4, lr}
 401              	.LCFI2:
 402              		.cfi_def_cfa_offset 8
 403              		.cfi_offset 4, -8
 404              		.cfi_offset 14, -4
 350:lib/STM32F10x_StdPeriph_Driver/src/stm32f10x_fsmc.c ****                      FSMC_MemoryDataWidth_16b |  
 405              		.loc 1 350 0
 406 019c 1360     		str	r3, [r2]
 357:lib/STM32F10x_StdPeriph_Driver/src/stm32f10x_fsmc.c ****                       (FSMC_PCCARDInitStruct->FSMC_CommonSpaceTimingStruct->FSMC_WaitSetupTime << 8
 358:lib/STM32F10x_StdPeriph_Driver/src/stm32f10x_fsmc.c ****                       (FSMC_PCCARDInitStruct->FSMC_CommonSpaceTimingStruct->FSMC_HoldSetupTime << 1
 407              		.loc 1 358 0
 408 019e 8B68     		ldr	r3, [r1, #8]
 357:lib/STM32F10x_StdPeriph_Driver/src/stm32f10x_fsmc.c ****                       (FSMC_PCCARDInitStruct->FSMC_CommonSpaceTimingStruct->FSMC_WaitSetupTime << 8
 409              		.loc 1 357 0
 410 01a0 4C68     		ldr	r4, [r1, #4]
 411              		.loc 1 358 0
 412 01a2 1B04     		lsls	r3, r3, #16
 357:lib/STM32F10x_StdPeriph_Driver/src/stm32f10x_fsmc.c ****                       (FSMC_PCCARDInitStruct->FSMC_CommonSpaceTimingStruct->FSMC_WaitSetupTime << 8
 413              		.loc 1 357 0
 414 01a4 43EA0423 		orr	r3, r3, r4, lsl #8
 415 01a8 0C68     		ldr	r4, [r1]
 359:lib/STM32F10x_StdPeriph_Driver/src/stm32f10x_fsmc.c ****                       (FSMC_PCCARDInitStruct->FSMC_CommonSpaceTimingStruct->FSMC_HiZSetupTime << 24
 416              		.loc 1 359 0
 417 01aa C968     		ldr	r1, [r1, #12]
 357:lib/STM32F10x_StdPeriph_Driver/src/stm32f10x_fsmc.c ****                       (FSMC_PCCARDInitStruct->FSMC_CommonSpaceTimingStruct->FSMC_WaitSetupTime << 8
 418              		.loc 1 357 0
 419 01ac 2343     		orrs	r3, r3, r4
 358:lib/STM32F10x_StdPeriph_Driver/src/stm32f10x_fsmc.c ****                       (FSMC_PCCARDInitStruct->FSMC_CommonSpaceTimingStruct->FSMC_HiZSetupTime << 24
 420              		.loc 1 358 0
 421 01ae 43EA0163 		orr	r3, r3, r1, lsl #24
 360:lib/STM32F10x_StdPeriph_Driver/src/stm32f10x_fsmc.c ****             
 361:lib/STM32F10x_StdPeriph_Driver/src/stm32f10x_fsmc.c ****   /* Set PATT4 register value according to FSMC_AttributeSpaceTimingStructure parameters */
 362:lib/STM32F10x_StdPeriph_Driver/src/stm32f10x_fsmc.c ****   FSMC_Bank4->PATT4 = (uint32_t)FSMC_PCCARDInitStruct->FSMC_AttributeSpaceTimingStruct->FSMC_SetupT
 422              		.loc 1 362 0
 423 01b2 0169     		ldr	r1, [r0, #16]
 356:lib/STM32F10x_StdPeriph_Driver/src/stm32f10x_fsmc.c ****                       (FSMC_PCCARDInitStruct->FSMC_CommonSpaceTimingStruct->FSMC_WaitSetupTime << 8
 424              		.loc 1 356 0
 425 01b4 9360     		str	r3, [r2, #8]
 363:lib/STM32F10x_StdPeriph_Driver/src/stm32f10x_fsmc.c ****                       (FSMC_PCCARDInitStruct->FSMC_AttributeSpaceTimingStruct->FSMC_WaitSetupTime <
 364:lib/STM32F10x_StdPeriph_Driver/src/stm32f10x_fsmc.c ****                       (FSMC_PCCARDInitStruct->FSMC_AttributeSpaceTimingStruct->FSMC_HoldSetupTime <
 426              		.loc 1 364 0
 427 01b6 8B68     		ldr	r3, [r1, #8]
 363:lib/STM32F10x_StdPeriph_Driver/src/stm32f10x_fsmc.c ****                       (FSMC_PCCARDInitStruct->FSMC_AttributeSpaceTimingStruct->FSMC_WaitSetupTime <
 428              		.loc 1 363 0
 429 01b8 4C68     		ldr	r4, [r1, #4]
 430              		.loc 1 364 0
 431 01ba 1B04     		lsls	r3, r3, #16
 363:lib/STM32F10x_StdPeriph_Driver/src/stm32f10x_fsmc.c ****                       (FSMC_PCCARDInitStruct->FSMC_AttributeSpaceTimingStruct->FSMC_WaitSetupTime <
 432              		.loc 1 363 0
 433 01bc 43EA0423 		orr	r3, r3, r4, lsl #8
 434 01c0 0C68     		ldr	r4, [r1]
 365:lib/STM32F10x_StdPeriph_Driver/src/stm32f10x_fsmc.c ****                       (FSMC_PCCARDInitStruct->FSMC_AttributeSpaceTimingStruct->FSMC_HiZSetupTime <<
 435              		.loc 1 365 0
 436 01c2 C968     		ldr	r1, [r1, #12]
 363:lib/STM32F10x_StdPeriph_Driver/src/stm32f10x_fsmc.c ****                       (FSMC_PCCARDInitStruct->FSMC_AttributeSpaceTimingStruct->FSMC_WaitSetupTime <
 437              		.loc 1 363 0
 438 01c4 2343     		orrs	r3, r3, r4
 364:lib/STM32F10x_StdPeriph_Driver/src/stm32f10x_fsmc.c ****                       (FSMC_PCCARDInitStruct->FSMC_AttributeSpaceTimingStruct->FSMC_HiZSetupTime <<
 439              		.loc 1 364 0
 440 01c6 43EA0163 		orr	r3, r3, r1, lsl #24
 366:lib/STM32F10x_StdPeriph_Driver/src/stm32f10x_fsmc.c ****             
 367:lib/STM32F10x_StdPeriph_Driver/src/stm32f10x_fsmc.c ****   /* Set PIO4 register value according to FSMC_IOSpaceTimingStructure parameters */
 368:lib/STM32F10x_StdPeriph_Driver/src/stm32f10x_fsmc.c ****   FSMC_Bank4->PIO4 = (uint32_t)FSMC_PCCARDInitStruct->FSMC_IOSpaceTimingStruct->FSMC_SetupTime |
 441              		.loc 1 368 0
 442 01ca 4169     		ldr	r1, [r0, #20]
 362:lib/STM32F10x_StdPeriph_Driver/src/stm32f10x_fsmc.c ****                       (FSMC_PCCARDInitStruct->FSMC_AttributeSpaceTimingStruct->FSMC_WaitSetupTime <
 443              		.loc 1 362 0
 444 01cc D360     		str	r3, [r2, #12]
 369:lib/STM32F10x_StdPeriph_Driver/src/stm32f10x_fsmc.c ****                      (FSMC_PCCARDInitStruct->FSMC_IOSpaceTimingStruct->FSMC_WaitSetupTime << 8) |
 370:lib/STM32F10x_StdPeriph_Driver/src/stm32f10x_fsmc.c ****                      (FSMC_PCCARDInitStruct->FSMC_IOSpaceTimingStruct->FSMC_HoldSetupTime << 16)|
 445              		.loc 1 370 0
 446 01ce 8B68     		ldr	r3, [r1, #8]
 369:lib/STM32F10x_StdPeriph_Driver/src/stm32f10x_fsmc.c ****                      (FSMC_PCCARDInitStruct->FSMC_IOSpaceTimingStruct->FSMC_WaitSetupTime << 8) |
 447              		.loc 1 369 0
 448 01d0 4868     		ldr	r0, [r1, #4]
 449              	.LVL11:
 450              		.loc 1 370 0
 451 01d2 1B04     		lsls	r3, r3, #16
 369:lib/STM32F10x_StdPeriph_Driver/src/stm32f10x_fsmc.c ****                      (FSMC_PCCARDInitStruct->FSMC_IOSpaceTimingStruct->FSMC_WaitSetupTime << 8) |
 452              		.loc 1 369 0
 453 01d4 43EA0023 		orr	r3, r3, r0, lsl #8
 454 01d8 0868     		ldr	r0, [r1]
 371:lib/STM32F10x_StdPeriph_Driver/src/stm32f10x_fsmc.c ****                      (FSMC_PCCARDInitStruct->FSMC_IOSpaceTimingStruct->FSMC_HiZSetupTime << 24);   
 455              		.loc 1 371 0
 456 01da C968     		ldr	r1, [r1, #12]
 369:lib/STM32F10x_StdPeriph_Driver/src/stm32f10x_fsmc.c ****                      (FSMC_PCCARDInitStruct->FSMC_IOSpaceTimingStruct->FSMC_WaitSetupTime << 8) |
 457              		.loc 1 369 0
 458 01dc 0343     		orrs	r3, r3, r0
 370:lib/STM32F10x_StdPeriph_Driver/src/stm32f10x_fsmc.c ****                      (FSMC_PCCARDInitStruct->FSMC_IOSpaceTimingStruct->FSMC_HiZSetupTime << 24);   
 459              		.loc 1 370 0
 460 01de 43EA0163 		orr	r3, r3, r1, lsl #24
 368:lib/STM32F10x_StdPeriph_Driver/src/stm32f10x_fsmc.c ****                      (FSMC_PCCARDInitStruct->FSMC_IOSpaceTimingStruct->FSMC_WaitSetupTime << 8) |
 461              		.loc 1 368 0
 462 01e2 1361     		str	r3, [r2, #16]
 463 01e4 10BD     		pop	{r4, pc}
 464              	.L26:
 465 01e6 00BF     		.align	2
 466              	.L25:
 467 01e8 A00000A0 		.word	-1610612576
 468              		.cfi_endproc
 469              	.LFE34:
 471              		.align	1
 472              		.global	FSMC_NORSRAMStructInit
 473              		.syntax unified
 474              		.thumb
 475              		.thumb_func
 476              		.fpu softvfp
 478              	FSMC_NORSRAMStructInit:
 479              	.LFB35:
 372:lib/STM32F10x_StdPeriph_Driver/src/stm32f10x_fsmc.c **** }
 373:lib/STM32F10x_StdPeriph_Driver/src/stm32f10x_fsmc.c **** 
 374:lib/STM32F10x_StdPeriph_Driver/src/stm32f10x_fsmc.c **** /**
 375:lib/STM32F10x_StdPeriph_Driver/src/stm32f10x_fsmc.c ****   * @brief  Fills each FSMC_NORSRAMInitStruct member with its default value.
 376:lib/STM32F10x_StdPeriph_Driver/src/stm32f10x_fsmc.c ****   * @param  FSMC_NORSRAMInitStruct: pointer to a FSMC_NORSRAMInitTypeDef 
 377:lib/STM32F10x_StdPeriph_Driver/src/stm32f10x_fsmc.c ****   *         structure which will be initialized.
 378:lib/STM32F10x_StdPeriph_Driver/src/stm32f10x_fsmc.c ****   * @retval None
 379:lib/STM32F10x_StdPeriph_Driver/src/stm32f10x_fsmc.c ****   */
 380:lib/STM32F10x_StdPeriph_Driver/src/stm32f10x_fsmc.c **** void FSMC_NORSRAMStructInit(FSMC_NORSRAMInitTypeDef* FSMC_NORSRAMInitStruct)
 381:lib/STM32F10x_StdPeriph_Driver/src/stm32f10x_fsmc.c **** {  
 480              		.loc 1 381 0
 481              		.cfi_startproc
 482              		@ args = 0, pretend = 0, frame = 0
 483              		@ frame_needed = 0, uses_anonymous_args = 0
 484              	.LVL12:
 382:lib/STM32F10x_StdPeriph_Driver/src/stm32f10x_fsmc.c ****   /* Reset NOR/SRAM Init structure parameters values */
 383:lib/STM32F10x_StdPeriph_Driver/src/stm32f10x_fsmc.c ****   FSMC_NORSRAMInitStruct->FSMC_Bank = FSMC_Bank1_NORSRAM1;
 384:lib/STM32F10x_StdPeriph_Driver/src/stm32f10x_fsmc.c ****   FSMC_NORSRAMInitStruct->FSMC_DataAddressMux = FSMC_DataAddressMux_Enable;
 485              		.loc 1 384 0
 486 01ec 0222     		movs	r2, #2
 487 01ee 4260     		str	r2, [r0, #4]
 385:lib/STM32F10x_StdPeriph_Driver/src/stm32f10x_fsmc.c ****   FSMC_NORSRAMInitStruct->FSMC_MemoryType = FSMC_MemoryType_SRAM;
 386:lib/STM32F10x_StdPeriph_Driver/src/stm32f10x_fsmc.c ****   FSMC_NORSRAMInitStruct->FSMC_MemoryDataWidth = FSMC_MemoryDataWidth_8b;
 387:lib/STM32F10x_StdPeriph_Driver/src/stm32f10x_fsmc.c ****   FSMC_NORSRAMInitStruct->FSMC_BurstAccessMode = FSMC_BurstAccessMode_Disable;
 388:lib/STM32F10x_StdPeriph_Driver/src/stm32f10x_fsmc.c ****   FSMC_NORSRAMInitStruct->FSMC_AsynchronousWait = FSMC_AsynchronousWait_Disable;
 389:lib/STM32F10x_StdPeriph_Driver/src/stm32f10x_fsmc.c ****   FSMC_NORSRAMInitStruct->FSMC_WaitSignalPolarity = FSMC_WaitSignalPolarity_Low;
 390:lib/STM32F10x_StdPeriph_Driver/src/stm32f10x_fsmc.c ****   FSMC_NORSRAMInitStruct->FSMC_WrapMode = FSMC_WrapMode_Disable;
 391:lib/STM32F10x_StdPeriph_Driver/src/stm32f10x_fsmc.c ****   FSMC_NORSRAMInitStruct->FSMC_WaitSignalActive = FSMC_WaitSignalActive_BeforeWaitState;
 392:lib/STM32F10x_StdPeriph_Driver/src/stm32f10x_fsmc.c ****   FSMC_NORSRAMInitStruct->FSMC_WriteOperation = FSMC_WriteOperation_Enable;
 488              		.loc 1 392 0
 489 01f0 4FF48052 		mov	r2, #4096
 490 01f4 4262     		str	r2, [r0, #36]
 393:lib/STM32F10x_StdPeriph_Driver/src/stm32f10x_fsmc.c ****   FSMC_NORSRAMInitStruct->FSMC_WaitSignal = FSMC_WaitSignal_Enable;
 491              		.loc 1 393 0
 492 01f6 4FF40052 		mov	r2, #8192
 381:lib/STM32F10x_StdPeriph_Driver/src/stm32f10x_fsmc.c ****   /* Reset NOR/SRAM Init structure parameters values */
 493              		.loc 1 381 0
 494 01fa 10B5     		push	{r4, lr}
 495              	.LCFI3:
 496              		.cfi_def_cfa_offset 8
 497              		.cfi_offset 4, -8
 498              		.cfi_offset 14, -4
 499              		.loc 1 393 0
 500 01fc 8262     		str	r2, [r0, #40]
 383:lib/STM32F10x_StdPeriph_Driver/src/stm32f10x_fsmc.c ****   FSMC_NORSRAMInitStruct->FSMC_DataAddressMux = FSMC_DataAddressMux_Enable;
 501              		.loc 1 383 0
 502 01fe 0023     		movs	r3, #0
 394:lib/STM32F10x_StdPeriph_Driver/src/stm32f10x_fsmc.c ****   FSMC_NORSRAMInitStruct->FSMC_ExtendedMode = FSMC_ExtendedMode_Disable;
 395:lib/STM32F10x_StdPeriph_Driver/src/stm32f10x_fsmc.c ****   FSMC_NORSRAMInitStruct->FSMC_WriteBurst = FSMC_WriteBurst_Disable;
 396:lib/STM32F10x_StdPeriph_Driver/src/stm32f10x_fsmc.c ****   FSMC_NORSRAMInitStruct->FSMC_ReadWriteTimingStruct->FSMC_AddressSetupTime = 0xF;
 503              		.loc 1 396 0
 504 0200 0F22     		movs	r2, #15
 397:lib/STM32F10x_StdPeriph_Driver/src/stm32f10x_fsmc.c ****   FSMC_NORSRAMInitStruct->FSMC_ReadWriteTimingStruct->FSMC_AddressHoldTime = 0xF;
 398:lib/STM32F10x_StdPeriph_Driver/src/stm32f10x_fsmc.c ****   FSMC_NORSRAMInitStruct->FSMC_ReadWriteTimingStruct->FSMC_DataSetupTime = 0xFF;
 505              		.loc 1 398 0
 506 0202 FF24     		movs	r4, #255
 396:lib/STM32F10x_StdPeriph_Driver/src/stm32f10x_fsmc.c ****   FSMC_NORSRAMInitStruct->FSMC_ReadWriteTimingStruct->FSMC_AddressHoldTime = 0xF;
 507              		.loc 1 396 0
 508 0204 416B     		ldr	r1, [r0, #52]
 383:lib/STM32F10x_StdPeriph_Driver/src/stm32f10x_fsmc.c ****   FSMC_NORSRAMInitStruct->FSMC_DataAddressMux = FSMC_DataAddressMux_Enable;
 509              		.loc 1 383 0
 510 0206 0360     		str	r3, [r0]
 385:lib/STM32F10x_StdPeriph_Driver/src/stm32f10x_fsmc.c ****   FSMC_NORSRAMInitStruct->FSMC_MemoryDataWidth = FSMC_MemoryDataWidth_8b;
 511              		.loc 1 385 0
 512 0208 8360     		str	r3, [r0, #8]
 386:lib/STM32F10x_StdPeriph_Driver/src/stm32f10x_fsmc.c ****   FSMC_NORSRAMInitStruct->FSMC_BurstAccessMode = FSMC_BurstAccessMode_Disable;
 513              		.loc 1 386 0
 514 020a C360     		str	r3, [r0, #12]
 387:lib/STM32F10x_StdPeriph_Driver/src/stm32f10x_fsmc.c ****   FSMC_NORSRAMInitStruct->FSMC_AsynchronousWait = FSMC_AsynchronousWait_Disable;
 515              		.loc 1 387 0
 516 020c 0361     		str	r3, [r0, #16]
 388:lib/STM32F10x_StdPeriph_Driver/src/stm32f10x_fsmc.c ****   FSMC_NORSRAMInitStruct->FSMC_WaitSignalPolarity = FSMC_WaitSignalPolarity_Low;
 517              		.loc 1 388 0
 518 020e 4361     		str	r3, [r0, #20]
 389:lib/STM32F10x_StdPeriph_Driver/src/stm32f10x_fsmc.c ****   FSMC_NORSRAMInitStruct->FSMC_WrapMode = FSMC_WrapMode_Disable;
 519              		.loc 1 389 0
 520 0210 8361     		str	r3, [r0, #24]
 390:lib/STM32F10x_StdPeriph_Driver/src/stm32f10x_fsmc.c ****   FSMC_NORSRAMInitStruct->FSMC_WaitSignalActive = FSMC_WaitSignalActive_BeforeWaitState;
 521              		.loc 1 390 0
 522 0212 C361     		str	r3, [r0, #28]
 391:lib/STM32F10x_StdPeriph_Driver/src/stm32f10x_fsmc.c ****   FSMC_NORSRAMInitStruct->FSMC_WriteOperation = FSMC_WriteOperation_Enable;
 523              		.loc 1 391 0
 524 0214 0362     		str	r3, [r0, #32]
 394:lib/STM32F10x_StdPeriph_Driver/src/stm32f10x_fsmc.c ****   FSMC_NORSRAMInitStruct->FSMC_WriteBurst = FSMC_WriteBurst_Disable;
 525              		.loc 1 394 0
 526 0216 C362     		str	r3, [r0, #44]
 395:lib/STM32F10x_StdPeriph_Driver/src/stm32f10x_fsmc.c ****   FSMC_NORSRAMInitStruct->FSMC_ReadWriteTimingStruct->FSMC_AddressSetupTime = 0xF;
 527              		.loc 1 395 0
 528 0218 0363     		str	r3, [r0, #48]
 396:lib/STM32F10x_StdPeriph_Driver/src/stm32f10x_fsmc.c ****   FSMC_NORSRAMInitStruct->FSMC_ReadWriteTimingStruct->FSMC_AddressHoldTime = 0xF;
 529              		.loc 1 396 0
 530 021a 0A60     		str	r2, [r1]
 397:lib/STM32F10x_StdPeriph_Driver/src/stm32f10x_fsmc.c ****   FSMC_NORSRAMInitStruct->FSMC_ReadWriteTimingStruct->FSMC_DataSetupTime = 0xFF;
 531              		.loc 1 397 0
 532 021c 4A60     		str	r2, [r1, #4]
 533              		.loc 1 398 0
 534 021e 8C60     		str	r4, [r1, #8]
 399:lib/STM32F10x_StdPeriph_Driver/src/stm32f10x_fsmc.c ****   FSMC_NORSRAMInitStruct->FSMC_ReadWriteTimingStruct->FSMC_BusTurnAroundDuration = 0xF;
 535              		.loc 1 399 0
 536 0220 CA60     		str	r2, [r1, #12]
 400:lib/STM32F10x_StdPeriph_Driver/src/stm32f10x_fsmc.c ****   FSMC_NORSRAMInitStruct->FSMC_ReadWriteTimingStruct->FSMC_CLKDivision = 0xF;
 537              		.loc 1 400 0
 538 0222 0A61     		str	r2, [r1, #16]
 401:lib/STM32F10x_StdPeriph_Driver/src/stm32f10x_fsmc.c ****   FSMC_NORSRAMInitStruct->FSMC_ReadWriteTimingStruct->FSMC_DataLatency = 0xF;
 539              		.loc 1 401 0
 540 0224 4A61     		str	r2, [r1, #20]
 402:lib/STM32F10x_StdPeriph_Driver/src/stm32f10x_fsmc.c ****   FSMC_NORSRAMInitStruct->FSMC_ReadWriteTimingStruct->FSMC_AccessMode = FSMC_AccessMode_A; 
 541              		.loc 1 402 0
 542 0226 8B61     		str	r3, [r1, #24]
 403:lib/STM32F10x_StdPeriph_Driver/src/stm32f10x_fsmc.c ****   FSMC_NORSRAMInitStruct->FSMC_WriteTimingStruct->FSMC_AddressSetupTime = 0xF;
 543              		.loc 1 403 0
 544 0228 816B     		ldr	r1, [r0, #56]
 545 022a 0A60     		str	r2, [r1]
 404:lib/STM32F10x_StdPeriph_Driver/src/stm32f10x_fsmc.c ****   FSMC_NORSRAMInitStruct->FSMC_WriteTimingStruct->FSMC_AddressHoldTime = 0xF;
 546              		.loc 1 404 0
 547 022c 4A60     		str	r2, [r1, #4]
 405:lib/STM32F10x_StdPeriph_Driver/src/stm32f10x_fsmc.c ****   FSMC_NORSRAMInitStruct->FSMC_WriteTimingStruct->FSMC_DataSetupTime = 0xFF;
 548              		.loc 1 405 0
 549 022e 8C60     		str	r4, [r1, #8]
 406:lib/STM32F10x_StdPeriph_Driver/src/stm32f10x_fsmc.c ****   FSMC_NORSRAMInitStruct->FSMC_WriteTimingStruct->FSMC_BusTurnAroundDuration = 0xF;
 550              		.loc 1 406 0
 551 0230 CA60     		str	r2, [r1, #12]
 407:lib/STM32F10x_StdPeriph_Driver/src/stm32f10x_fsmc.c ****   FSMC_NORSRAMInitStruct->FSMC_WriteTimingStruct->FSMC_CLKDivision = 0xF;
 552              		.loc 1 407 0
 553 0232 0A61     		str	r2, [r1, #16]
 408:lib/STM32F10x_StdPeriph_Driver/src/stm32f10x_fsmc.c ****   FSMC_NORSRAMInitStruct->FSMC_WriteTimingStruct->FSMC_DataLatency = 0xF;
 554              		.loc 1 408 0
 555 0234 4A61     		str	r2, [r1, #20]
 409:lib/STM32F10x_StdPeriph_Driver/src/stm32f10x_fsmc.c ****   FSMC_NORSRAMInitStruct->FSMC_WriteTimingStruct->FSMC_AccessMode = FSMC_AccessMode_A;
 556              		.loc 1 409 0
 557 0236 8B61     		str	r3, [r1, #24]
 558 0238 10BD     		pop	{r4, pc}
 559              		.cfi_endproc
 560              	.LFE35:
 562              		.align	1
 563              		.global	FSMC_NANDStructInit
 564              		.syntax unified
 565              		.thumb
 566              		.thumb_func
 567              		.fpu softvfp
 569              	FSMC_NANDStructInit:
 570              	.LFB36:
 410:lib/STM32F10x_StdPeriph_Driver/src/stm32f10x_fsmc.c **** }
 411:lib/STM32F10x_StdPeriph_Driver/src/stm32f10x_fsmc.c **** 
 412:lib/STM32F10x_StdPeriph_Driver/src/stm32f10x_fsmc.c **** /**
 413:lib/STM32F10x_StdPeriph_Driver/src/stm32f10x_fsmc.c ****   * @brief  Fills each FSMC_NANDInitStruct member with its default value.
 414:lib/STM32F10x_StdPeriph_Driver/src/stm32f10x_fsmc.c ****   * @param  FSMC_NANDInitStruct: pointer to a FSMC_NANDInitTypeDef 
 415:lib/STM32F10x_StdPeriph_Driver/src/stm32f10x_fsmc.c ****   *         structure which will be initialized.
 416:lib/STM32F10x_StdPeriph_Driver/src/stm32f10x_fsmc.c ****   * @retval None
 417:lib/STM32F10x_StdPeriph_Driver/src/stm32f10x_fsmc.c ****   */
 418:lib/STM32F10x_StdPeriph_Driver/src/stm32f10x_fsmc.c **** void FSMC_NANDStructInit(FSMC_NANDInitTypeDef* FSMC_NANDInitStruct)
 419:lib/STM32F10x_StdPeriph_Driver/src/stm32f10x_fsmc.c **** { 
 571              		.loc 1 419 0
 572              		.cfi_startproc
 573              		@ args = 0, pretend = 0, frame = 0
 574              		@ frame_needed = 0, uses_anonymous_args = 0
 575              		@ link register save eliminated.
 576              	.LVL13:
 420:lib/STM32F10x_StdPeriph_Driver/src/stm32f10x_fsmc.c ****   /* Reset NAND Init structure parameters values */
 421:lib/STM32F10x_StdPeriph_Driver/src/stm32f10x_fsmc.c ****   FSMC_NANDInitStruct->FSMC_Bank = FSMC_Bank2_NAND;
 577              		.loc 1 421 0
 578 023a 1023     		movs	r3, #16
 579 023c 0360     		str	r3, [r0]
 422:lib/STM32F10x_StdPeriph_Driver/src/stm32f10x_fsmc.c ****   FSMC_NANDInitStruct->FSMC_Waitfeature = FSMC_Waitfeature_Disable;
 580              		.loc 1 422 0
 581 023e 0023     		movs	r3, #0
 582 0240 4360     		str	r3, [r0, #4]
 423:lib/STM32F10x_StdPeriph_Driver/src/stm32f10x_fsmc.c ****   FSMC_NANDInitStruct->FSMC_MemoryDataWidth = FSMC_MemoryDataWidth_8b;
 583              		.loc 1 423 0
 584 0242 8360     		str	r3, [r0, #8]
 424:lib/STM32F10x_StdPeriph_Driver/src/stm32f10x_fsmc.c ****   FSMC_NANDInitStruct->FSMC_ECC = FSMC_ECC_Disable;
 585              		.loc 1 424 0
 586 0244 C360     		str	r3, [r0, #12]
 425:lib/STM32F10x_StdPeriph_Driver/src/stm32f10x_fsmc.c ****   FSMC_NANDInitStruct->FSMC_ECCPageSize = FSMC_ECCPageSize_256Bytes;
 587              		.loc 1 425 0
 588 0246 0361     		str	r3, [r0, #16]
 426:lib/STM32F10x_StdPeriph_Driver/src/stm32f10x_fsmc.c ****   FSMC_NANDInitStruct->FSMC_TCLRSetupTime = 0x0;
 589              		.loc 1 426 0
 590 0248 4361     		str	r3, [r0, #20]
 427:lib/STM32F10x_StdPeriph_Driver/src/stm32f10x_fsmc.c ****   FSMC_NANDInitStruct->FSMC_TARSetupTime = 0x0;
 591              		.loc 1 427 0
 592 024a 8361     		str	r3, [r0, #24]
 428:lib/STM32F10x_StdPeriph_Driver/src/stm32f10x_fsmc.c ****   FSMC_NANDInitStruct->FSMC_CommonSpaceTimingStruct->FSMC_SetupTime = 0xFC;
 593              		.loc 1 428 0
 594 024c FC23     		movs	r3, #252
 595 024e C269     		ldr	r2, [r0, #28]
 596 0250 1360     		str	r3, [r2]
 429:lib/STM32F10x_StdPeriph_Driver/src/stm32f10x_fsmc.c ****   FSMC_NANDInitStruct->FSMC_CommonSpaceTimingStruct->FSMC_WaitSetupTime = 0xFC;
 597              		.loc 1 429 0
 598 0252 5360     		str	r3, [r2, #4]
 430:lib/STM32F10x_StdPeriph_Driver/src/stm32f10x_fsmc.c ****   FSMC_NANDInitStruct->FSMC_CommonSpaceTimingStruct->FSMC_HoldSetupTime = 0xFC;
 599              		.loc 1 430 0
 600 0254 9360     		str	r3, [r2, #8]
 431:lib/STM32F10x_StdPeriph_Driver/src/stm32f10x_fsmc.c ****   FSMC_NANDInitStruct->FSMC_CommonSpaceTimingStruct->FSMC_HiZSetupTime = 0xFC;
 601              		.loc 1 431 0
 602 0256 D360     		str	r3, [r2, #12]
 432:lib/STM32F10x_StdPeriph_Driver/src/stm32f10x_fsmc.c ****   FSMC_NANDInitStruct->FSMC_AttributeSpaceTimingStruct->FSMC_SetupTime = 0xFC;
 603              		.loc 1 432 0
 604 0258 026A     		ldr	r2, [r0, #32]
 605 025a 1360     		str	r3, [r2]
 433:lib/STM32F10x_StdPeriph_Driver/src/stm32f10x_fsmc.c ****   FSMC_NANDInitStruct->FSMC_AttributeSpaceTimingStruct->FSMC_WaitSetupTime = 0xFC;
 606              		.loc 1 433 0
 607 025c 5360     		str	r3, [r2, #4]
 434:lib/STM32F10x_StdPeriph_Driver/src/stm32f10x_fsmc.c ****   FSMC_NANDInitStruct->FSMC_AttributeSpaceTimingStruct->FSMC_HoldSetupTime = 0xFC;
 608              		.loc 1 434 0
 609 025e 9360     		str	r3, [r2, #8]
 435:lib/STM32F10x_StdPeriph_Driver/src/stm32f10x_fsmc.c ****   FSMC_NANDInitStruct->FSMC_AttributeSpaceTimingStruct->FSMC_HiZSetupTime = 0xFC;	  
 610              		.loc 1 435 0
 611 0260 D360     		str	r3, [r2, #12]
 612 0262 7047     		bx	lr
 613              		.cfi_endproc
 614              	.LFE36:
 616              		.align	1
 617              		.global	FSMC_PCCARDStructInit
 618              		.syntax unified
 619              		.thumb
 620              		.thumb_func
 621              		.fpu softvfp
 623              	FSMC_PCCARDStructInit:
 624              	.LFB37:
 436:lib/STM32F10x_StdPeriph_Driver/src/stm32f10x_fsmc.c **** }
 437:lib/STM32F10x_StdPeriph_Driver/src/stm32f10x_fsmc.c **** 
 438:lib/STM32F10x_StdPeriph_Driver/src/stm32f10x_fsmc.c **** /**
 439:lib/STM32F10x_StdPeriph_Driver/src/stm32f10x_fsmc.c ****   * @brief  Fills each FSMC_PCCARDInitStruct member with its default value.
 440:lib/STM32F10x_StdPeriph_Driver/src/stm32f10x_fsmc.c ****   * @param  FSMC_PCCARDInitStruct: pointer to a FSMC_PCCARDInitTypeDef 
 441:lib/STM32F10x_StdPeriph_Driver/src/stm32f10x_fsmc.c ****   *         structure which will be initialized.
 442:lib/STM32F10x_StdPeriph_Driver/src/stm32f10x_fsmc.c ****   * @retval None
 443:lib/STM32F10x_StdPeriph_Driver/src/stm32f10x_fsmc.c ****   */
 444:lib/STM32F10x_StdPeriph_Driver/src/stm32f10x_fsmc.c **** void FSMC_PCCARDStructInit(FSMC_PCCARDInitTypeDef* FSMC_PCCARDInitStruct)
 445:lib/STM32F10x_StdPeriph_Driver/src/stm32f10x_fsmc.c **** {
 625              		.loc 1 445 0
 626              		.cfi_startproc
 627              		@ args = 0, pretend = 0, frame = 0
 628              		@ frame_needed = 0, uses_anonymous_args = 0
 629              		@ link register save eliminated.
 630              	.LVL14:
 446:lib/STM32F10x_StdPeriph_Driver/src/stm32f10x_fsmc.c ****   /* Reset PCCARD Init structure parameters values */
 447:lib/STM32F10x_StdPeriph_Driver/src/stm32f10x_fsmc.c ****   FSMC_PCCARDInitStruct->FSMC_Waitfeature = FSMC_Waitfeature_Disable;
 631              		.loc 1 447 0
 632 0264 0023     		movs	r3, #0
 633 0266 0360     		str	r3, [r0]
 448:lib/STM32F10x_StdPeriph_Driver/src/stm32f10x_fsmc.c ****   FSMC_PCCARDInitStruct->FSMC_TCLRSetupTime = 0x0;
 634              		.loc 1 448 0
 635 0268 4360     		str	r3, [r0, #4]
 449:lib/STM32F10x_StdPeriph_Driver/src/stm32f10x_fsmc.c ****   FSMC_PCCARDInitStruct->FSMC_TARSetupTime = 0x0;
 636              		.loc 1 449 0
 637 026a 8360     		str	r3, [r0, #8]
 450:lib/STM32F10x_StdPeriph_Driver/src/stm32f10x_fsmc.c ****   FSMC_PCCARDInitStruct->FSMC_CommonSpaceTimingStruct->FSMC_SetupTime = 0xFC;
 638              		.loc 1 450 0
 639 026c FC23     		movs	r3, #252
 640 026e C268     		ldr	r2, [r0, #12]
 641 0270 1360     		str	r3, [r2]
 451:lib/STM32F10x_StdPeriph_Driver/src/stm32f10x_fsmc.c ****   FSMC_PCCARDInitStruct->FSMC_CommonSpaceTimingStruct->FSMC_WaitSetupTime = 0xFC;
 642              		.loc 1 451 0
 643 0272 5360     		str	r3, [r2, #4]
 452:lib/STM32F10x_StdPeriph_Driver/src/stm32f10x_fsmc.c ****   FSMC_PCCARDInitStruct->FSMC_CommonSpaceTimingStruct->FSMC_HoldSetupTime = 0xFC;
 644              		.loc 1 452 0
 645 0274 9360     		str	r3, [r2, #8]
 453:lib/STM32F10x_StdPeriph_Driver/src/stm32f10x_fsmc.c ****   FSMC_PCCARDInitStruct->FSMC_CommonSpaceTimingStruct->FSMC_HiZSetupTime = 0xFC;
 646              		.loc 1 453 0
 647 0276 D360     		str	r3, [r2, #12]
 454:lib/STM32F10x_StdPeriph_Driver/src/stm32f10x_fsmc.c ****   FSMC_PCCARDInitStruct->FSMC_AttributeSpaceTimingStruct->FSMC_SetupTime = 0xFC;
 648              		.loc 1 454 0
 649 0278 0269     		ldr	r2, [r0, #16]
 650 027a 1360     		str	r3, [r2]
 455:lib/STM32F10x_StdPeriph_Driver/src/stm32f10x_fsmc.c ****   FSMC_PCCARDInitStruct->FSMC_AttributeSpaceTimingStruct->FSMC_WaitSetupTime = 0xFC;
 651              		.loc 1 455 0
 652 027c 5360     		str	r3, [r2, #4]
 456:lib/STM32F10x_StdPeriph_Driver/src/stm32f10x_fsmc.c ****   FSMC_PCCARDInitStruct->FSMC_AttributeSpaceTimingStruct->FSMC_HoldSetupTime = 0xFC;
 653              		.loc 1 456 0
 654 027e 9360     		str	r3, [r2, #8]
 457:lib/STM32F10x_StdPeriph_Driver/src/stm32f10x_fsmc.c ****   FSMC_PCCARDInitStruct->FSMC_AttributeSpaceTimingStruct->FSMC_HiZSetupTime = 0xFC;	
 655              		.loc 1 457 0
 656 0280 D360     		str	r3, [r2, #12]
 458:lib/STM32F10x_StdPeriph_Driver/src/stm32f10x_fsmc.c ****   FSMC_PCCARDInitStruct->FSMC_IOSpaceTimingStruct->FSMC_SetupTime = 0xFC;
 657              		.loc 1 458 0
 658 0282 4269     		ldr	r2, [r0, #20]
 659 0284 1360     		str	r3, [r2]
 459:lib/STM32F10x_StdPeriph_Driver/src/stm32f10x_fsmc.c ****   FSMC_PCCARDInitStruct->FSMC_IOSpaceTimingStruct->FSMC_WaitSetupTime = 0xFC;
 660              		.loc 1 459 0
 661 0286 5360     		str	r3, [r2, #4]
 460:lib/STM32F10x_StdPeriph_Driver/src/stm32f10x_fsmc.c ****   FSMC_PCCARDInitStruct->FSMC_IOSpaceTimingStruct->FSMC_HoldSetupTime = 0xFC;
 662              		.loc 1 460 0
 663 0288 9360     		str	r3, [r2, #8]
 461:lib/STM32F10x_StdPeriph_Driver/src/stm32f10x_fsmc.c ****   FSMC_PCCARDInitStruct->FSMC_IOSpaceTimingStruct->FSMC_HiZSetupTime = 0xFC;
 664              		.loc 1 461 0
 665 028a D360     		str	r3, [r2, #12]
 666 028c 7047     		bx	lr
 667              		.cfi_endproc
 668              	.LFE37:
 670              		.align	1
 671              		.global	FSMC_NORSRAMCmd
 672              		.syntax unified
 673              		.thumb
 674              		.thumb_func
 675              		.fpu softvfp
 677              	FSMC_NORSRAMCmd:
 678              	.LFB38:
 462:lib/STM32F10x_StdPeriph_Driver/src/stm32f10x_fsmc.c **** }
 463:lib/STM32F10x_StdPeriph_Driver/src/stm32f10x_fsmc.c **** 
 464:lib/STM32F10x_StdPeriph_Driver/src/stm32f10x_fsmc.c **** /**
 465:lib/STM32F10x_StdPeriph_Driver/src/stm32f10x_fsmc.c ****   * @brief  Enables or disables the specified NOR/SRAM Memory Bank.
 466:lib/STM32F10x_StdPeriph_Driver/src/stm32f10x_fsmc.c ****   * @param  FSMC_Bank: specifies the FSMC Bank to be used
 467:lib/STM32F10x_StdPeriph_Driver/src/stm32f10x_fsmc.c ****   *   This parameter can be one of the following values:
 468:lib/STM32F10x_StdPeriph_Driver/src/stm32f10x_fsmc.c ****   *     @arg FSMC_Bank1_NORSRAM1: FSMC Bank1 NOR/SRAM1  
 469:lib/STM32F10x_StdPeriph_Driver/src/stm32f10x_fsmc.c ****   *     @arg FSMC_Bank1_NORSRAM2: FSMC Bank1 NOR/SRAM2 
 470:lib/STM32F10x_StdPeriph_Driver/src/stm32f10x_fsmc.c ****   *     @arg FSMC_Bank1_NORSRAM3: FSMC Bank1 NOR/SRAM3 
 471:lib/STM32F10x_StdPeriph_Driver/src/stm32f10x_fsmc.c ****   *     @arg FSMC_Bank1_NORSRAM4: FSMC Bank1 NOR/SRAM4 
 472:lib/STM32F10x_StdPeriph_Driver/src/stm32f10x_fsmc.c ****   * @param  NewState: new state of the FSMC_Bank. This parameter can be: ENABLE or DISABLE.
 473:lib/STM32F10x_StdPeriph_Driver/src/stm32f10x_fsmc.c ****   * @retval None
 474:lib/STM32F10x_StdPeriph_Driver/src/stm32f10x_fsmc.c ****   */
 475:lib/STM32F10x_StdPeriph_Driver/src/stm32f10x_fsmc.c **** void FSMC_NORSRAMCmd(uint32_t FSMC_Bank, FunctionalState NewState)
 476:lib/STM32F10x_StdPeriph_Driver/src/stm32f10x_fsmc.c **** {
 679              		.loc 1 476 0
 680              		.cfi_startproc
 681              		@ args = 0, pretend = 0, frame = 0
 682              		@ frame_needed = 0, uses_anonymous_args = 0
 683              		@ link register save eliminated.
 684              	.LVL15:
 685 028e 8000     		lsls	r0, r0, #2
 686              	.LVL16:
 687 0290 00F12040 		add	r0, r0, #-1610612736
 477:lib/STM32F10x_StdPeriph_Driver/src/stm32f10x_fsmc.c ****   assert_param(IS_FSMC_NORSRAM_BANK(FSMC_Bank));
 478:lib/STM32F10x_StdPeriph_Driver/src/stm32f10x_fsmc.c ****   assert_param(IS_FUNCTIONAL_STATE(NewState));
 479:lib/STM32F10x_StdPeriph_Driver/src/stm32f10x_fsmc.c ****   
 480:lib/STM32F10x_StdPeriph_Driver/src/stm32f10x_fsmc.c ****   if (NewState != DISABLE)
 688              		.loc 1 480 0
 689 0294 21B1     		cbz	r1, .L31
 481:lib/STM32F10x_StdPeriph_Driver/src/stm32f10x_fsmc.c ****   {
 482:lib/STM32F10x_StdPeriph_Driver/src/stm32f10x_fsmc.c ****     /* Enable the selected NOR/SRAM Bank by setting the PBKEN bit in the BCRx register */
 483:lib/STM32F10x_StdPeriph_Driver/src/stm32f10x_fsmc.c ****     FSMC_Bank1->BTCR[FSMC_Bank] |= BCR_MBKEN_Set;
 690              		.loc 1 483 0
 691 0296 0368     		ldr	r3, [r0]
 692 0298 43F00103 		orr	r3, r3, #1
 693              	.L33:
 484:lib/STM32F10x_StdPeriph_Driver/src/stm32f10x_fsmc.c ****   }
 485:lib/STM32F10x_StdPeriph_Driver/src/stm32f10x_fsmc.c ****   else
 486:lib/STM32F10x_StdPeriph_Driver/src/stm32f10x_fsmc.c ****   {
 487:lib/STM32F10x_StdPeriph_Driver/src/stm32f10x_fsmc.c ****     /* Disable the selected NOR/SRAM Bank by clearing the PBKEN bit in the BCRx register */
 488:lib/STM32F10x_StdPeriph_Driver/src/stm32f10x_fsmc.c ****     FSMC_Bank1->BTCR[FSMC_Bank] &= BCR_MBKEN_Reset;
 694              		.loc 1 488 0
 695 029c 0360     		str	r3, [r0]
 696 029e 7047     		bx	lr
 697              	.L31:
 698 02a0 0268     		ldr	r2, [r0]
 699 02a2 014B     		ldr	r3, .L34
 700 02a4 1340     		ands	r3, r3, r2
 701 02a6 F9E7     		b	.L33
 702              	.L35:
 703              		.align	2
 704              	.L34:
 705 02a8 FEFF0F00 		.word	1048574
 706              		.cfi_endproc
 707              	.LFE38:
 709              		.align	1
 710              		.global	FSMC_NANDCmd
 711              		.syntax unified
 712              		.thumb
 713              		.thumb_func
 714              		.fpu softvfp
 716              	FSMC_NANDCmd:
 717              	.LFB39:
 489:lib/STM32F10x_StdPeriph_Driver/src/stm32f10x_fsmc.c ****   }
 490:lib/STM32F10x_StdPeriph_Driver/src/stm32f10x_fsmc.c **** }
 491:lib/STM32F10x_StdPeriph_Driver/src/stm32f10x_fsmc.c **** 
 492:lib/STM32F10x_StdPeriph_Driver/src/stm32f10x_fsmc.c **** /**
 493:lib/STM32F10x_StdPeriph_Driver/src/stm32f10x_fsmc.c ****   * @brief  Enables or disables the specified NAND Memory Bank.
 494:lib/STM32F10x_StdPeriph_Driver/src/stm32f10x_fsmc.c ****   * @param  FSMC_Bank: specifies the FSMC Bank to be used
 495:lib/STM32F10x_StdPeriph_Driver/src/stm32f10x_fsmc.c ****   *   This parameter can be one of the following values:
 496:lib/STM32F10x_StdPeriph_Driver/src/stm32f10x_fsmc.c ****   *     @arg FSMC_Bank2_NAND: FSMC Bank2 NAND 
 497:lib/STM32F10x_StdPeriph_Driver/src/stm32f10x_fsmc.c ****   *     @arg FSMC_Bank3_NAND: FSMC Bank3 NAND
 498:lib/STM32F10x_StdPeriph_Driver/src/stm32f10x_fsmc.c ****   * @param  NewState: new state of the FSMC_Bank. This parameter can be: ENABLE or DISABLE.
 499:lib/STM32F10x_StdPeriph_Driver/src/stm32f10x_fsmc.c ****   * @retval None
 500:lib/STM32F10x_StdPeriph_Driver/src/stm32f10x_fsmc.c ****   */
 501:lib/STM32F10x_StdPeriph_Driver/src/stm32f10x_fsmc.c **** void FSMC_NANDCmd(uint32_t FSMC_Bank, FunctionalState NewState)
 502:lib/STM32F10x_StdPeriph_Driver/src/stm32f10x_fsmc.c **** {
 718              		.loc 1 502 0
 719              		.cfi_startproc
 720              		@ args = 0, pretend = 0, frame = 0
 721              		@ frame_needed = 0, uses_anonymous_args = 0
 722              		@ link register save eliminated.
 723              	.LVL17:
 503:lib/STM32F10x_StdPeriph_Driver/src/stm32f10x_fsmc.c ****   assert_param(IS_FSMC_NAND_BANK(FSMC_Bank));
 504:lib/STM32F10x_StdPeriph_Driver/src/stm32f10x_fsmc.c ****   assert_param(IS_FUNCTIONAL_STATE(NewState));
 505:lib/STM32F10x_StdPeriph_Driver/src/stm32f10x_fsmc.c ****   
 506:lib/STM32F10x_StdPeriph_Driver/src/stm32f10x_fsmc.c ****   if (NewState != DISABLE)
 724              		.loc 1 506 0
 725 02ac 41B1     		cbz	r1, .L37
 507:lib/STM32F10x_StdPeriph_Driver/src/stm32f10x_fsmc.c ****   {
 508:lib/STM32F10x_StdPeriph_Driver/src/stm32f10x_fsmc.c ****     /* Enable the selected NAND Bank by setting the PBKEN bit in the PCRx register */
 509:lib/STM32F10x_StdPeriph_Driver/src/stm32f10x_fsmc.c ****     if(FSMC_Bank == FSMC_Bank2_NAND)
 726              		.loc 1 509 0
 727 02ae 1028     		cmp	r0, #16
 510:lib/STM32F10x_StdPeriph_Driver/src/stm32f10x_fsmc.c ****     {
 511:lib/STM32F10x_StdPeriph_Driver/src/stm32f10x_fsmc.c ****       FSMC_Bank2->PCR2 |= PCR_PBKEN_Set;
 728              		.loc 1 511 0
 729 02b0 0CBF     		ite	eq
 730 02b2 074A     		ldreq	r2, .L44
 512:lib/STM32F10x_StdPeriph_Driver/src/stm32f10x_fsmc.c ****     }
 513:lib/STM32F10x_StdPeriph_Driver/src/stm32f10x_fsmc.c ****     else
 514:lib/STM32F10x_StdPeriph_Driver/src/stm32f10x_fsmc.c ****     {
 515:lib/STM32F10x_StdPeriph_Driver/src/stm32f10x_fsmc.c ****       FSMC_Bank3->PCR3 |= PCR_PBKEN_Set;
 731              		.loc 1 515 0
 732 02b4 074A     		ldrne	r2, .L44+4
 733 02b6 1368     		ldr	r3, [r2]
 734 02b8 43F00403 		orr	r3, r3, #4
 735              	.LVL18:
 736              	.L41:
 516:lib/STM32F10x_StdPeriph_Driver/src/stm32f10x_fsmc.c ****     }
 517:lib/STM32F10x_StdPeriph_Driver/src/stm32f10x_fsmc.c ****   }
 518:lib/STM32F10x_StdPeriph_Driver/src/stm32f10x_fsmc.c ****   else
 519:lib/STM32F10x_StdPeriph_Driver/src/stm32f10x_fsmc.c ****   {
 520:lib/STM32F10x_StdPeriph_Driver/src/stm32f10x_fsmc.c ****     /* Disable the selected NAND Bank by clearing the PBKEN bit in the PCRx register */
 521:lib/STM32F10x_StdPeriph_Driver/src/stm32f10x_fsmc.c ****     if(FSMC_Bank == FSMC_Bank2_NAND)
 522:lib/STM32F10x_StdPeriph_Driver/src/stm32f10x_fsmc.c ****     {
 523:lib/STM32F10x_StdPeriph_Driver/src/stm32f10x_fsmc.c ****       FSMC_Bank2->PCR2 &= PCR_PBKEN_Reset;
 524:lib/STM32F10x_StdPeriph_Driver/src/stm32f10x_fsmc.c ****     }
 525:lib/STM32F10x_StdPeriph_Driver/src/stm32f10x_fsmc.c ****     else
 526:lib/STM32F10x_StdPeriph_Driver/src/stm32f10x_fsmc.c ****     {
 527:lib/STM32F10x_StdPeriph_Driver/src/stm32f10x_fsmc.c ****       FSMC_Bank3->PCR3 &= PCR_PBKEN_Reset;
 737              		.loc 1 527 0
 738 02bc 1360     		str	r3, [r2]
 739 02be 7047     		bx	lr
 740              	.LVL19:
 741              	.L37:
 521:lib/STM32F10x_StdPeriph_Driver/src/stm32f10x_fsmc.c ****     {
 742              		.loc 1 521 0
 743 02c0 1028     		cmp	r0, #16
 523:lib/STM32F10x_StdPeriph_Driver/src/stm32f10x_fsmc.c ****     }
 744              		.loc 1 523 0
 745 02c2 0CBF     		ite	eq
 746 02c4 024A     		ldreq	r2, .L44
 747              		.loc 1 527 0
 748 02c6 034A     		ldrne	r2, .L44+4
 749 02c8 0349     		ldr	r1, .L44+8
 750              	.LVL20:
 751 02ca 1368     		ldr	r3, [r2]
 752 02cc 0B40     		ands	r3, r3, r1
 753 02ce F5E7     		b	.L41
 754              	.L45:
 755              		.align	2
 756              	.L44:
 757 02d0 600000A0 		.word	-1610612640
 758 02d4 800000A0 		.word	-1610612608
 759 02d8 FBFF0F00 		.word	1048571
 760              		.cfi_endproc
 761              	.LFE39:
 763              		.align	1
 764              		.global	FSMC_PCCARDCmd
 765              		.syntax unified
 766              		.thumb
 767              		.thumb_func
 768              		.fpu softvfp
 770              	FSMC_PCCARDCmd:
 771              	.LFB40:
 528:lib/STM32F10x_StdPeriph_Driver/src/stm32f10x_fsmc.c ****     }
 529:lib/STM32F10x_StdPeriph_Driver/src/stm32f10x_fsmc.c ****   }
 530:lib/STM32F10x_StdPeriph_Driver/src/stm32f10x_fsmc.c **** }
 531:lib/STM32F10x_StdPeriph_Driver/src/stm32f10x_fsmc.c **** 
 532:lib/STM32F10x_StdPeriph_Driver/src/stm32f10x_fsmc.c **** /**
 533:lib/STM32F10x_StdPeriph_Driver/src/stm32f10x_fsmc.c ****   * @brief  Enables or disables the PCCARD Memory Bank.
 534:lib/STM32F10x_StdPeriph_Driver/src/stm32f10x_fsmc.c ****   * @param  NewState: new state of the PCCARD Memory Bank.  
 535:lib/STM32F10x_StdPeriph_Driver/src/stm32f10x_fsmc.c ****   *   This parameter can be: ENABLE or DISABLE.
 536:lib/STM32F10x_StdPeriph_Driver/src/stm32f10x_fsmc.c ****   * @retval None
 537:lib/STM32F10x_StdPeriph_Driver/src/stm32f10x_fsmc.c ****   */
 538:lib/STM32F10x_StdPeriph_Driver/src/stm32f10x_fsmc.c **** void FSMC_PCCARDCmd(FunctionalState NewState)
 539:lib/STM32F10x_StdPeriph_Driver/src/stm32f10x_fsmc.c **** {
 772              		.loc 1 539 0
 773              		.cfi_startproc
 774              		@ args = 0, pretend = 0, frame = 0
 775              		@ frame_needed = 0, uses_anonymous_args = 0
 776              		@ link register save eliminated.
 777              	.LVL21:
 778 02dc 054B     		ldr	r3, .L50
 540:lib/STM32F10x_StdPeriph_Driver/src/stm32f10x_fsmc.c ****   assert_param(IS_FUNCTIONAL_STATE(NewState));
 541:lib/STM32F10x_StdPeriph_Driver/src/stm32f10x_fsmc.c ****   
 542:lib/STM32F10x_StdPeriph_Driver/src/stm32f10x_fsmc.c ****   if (NewState != DISABLE)
 779              		.loc 1 542 0
 780 02de 20B1     		cbz	r0, .L47
 543:lib/STM32F10x_StdPeriph_Driver/src/stm32f10x_fsmc.c ****   {
 544:lib/STM32F10x_StdPeriph_Driver/src/stm32f10x_fsmc.c ****     /* Enable the PCCARD Bank by setting the PBKEN bit in the PCR4 register */
 545:lib/STM32F10x_StdPeriph_Driver/src/stm32f10x_fsmc.c ****     FSMC_Bank4->PCR4 |= PCR_PBKEN_Set;
 781              		.loc 1 545 0
 782 02e0 1A68     		ldr	r2, [r3]
 783 02e2 42F00402 		orr	r2, r2, #4
 784              	.L49:
 546:lib/STM32F10x_StdPeriph_Driver/src/stm32f10x_fsmc.c ****   }
 547:lib/STM32F10x_StdPeriph_Driver/src/stm32f10x_fsmc.c ****   else
 548:lib/STM32F10x_StdPeriph_Driver/src/stm32f10x_fsmc.c ****   {
 549:lib/STM32F10x_StdPeriph_Driver/src/stm32f10x_fsmc.c ****     /* Disable the PCCARD Bank by clearing the PBKEN bit in the PCR4 register */
 550:lib/STM32F10x_StdPeriph_Driver/src/stm32f10x_fsmc.c ****     FSMC_Bank4->PCR4 &= PCR_PBKEN_Reset;
 785              		.loc 1 550 0
 786 02e6 1A60     		str	r2, [r3]
 787 02e8 7047     		bx	lr
 788              	.L47:
 789 02ea 1968     		ldr	r1, [r3]
 790 02ec 024A     		ldr	r2, .L50+4
 791 02ee 0A40     		ands	r2, r2, r1
 792 02f0 F9E7     		b	.L49
 793              	.L51:
 794 02f2 00BF     		.align	2
 795              	.L50:
 796 02f4 A00000A0 		.word	-1610612576
 797 02f8 FBFF0F00 		.word	1048571
 798              		.cfi_endproc
 799              	.LFE40:
 801              		.align	1
 802              		.global	FSMC_NANDECCCmd
 803              		.syntax unified
 804              		.thumb
 805              		.thumb_func
 806              		.fpu softvfp
 808              	FSMC_NANDECCCmd:
 809              	.LFB41:
 551:lib/STM32F10x_StdPeriph_Driver/src/stm32f10x_fsmc.c ****   }
 552:lib/STM32F10x_StdPeriph_Driver/src/stm32f10x_fsmc.c **** }
 553:lib/STM32F10x_StdPeriph_Driver/src/stm32f10x_fsmc.c **** 
 554:lib/STM32F10x_StdPeriph_Driver/src/stm32f10x_fsmc.c **** /**
 555:lib/STM32F10x_StdPeriph_Driver/src/stm32f10x_fsmc.c ****   * @brief  Enables or disables the FSMC NAND ECC feature.
 556:lib/STM32F10x_StdPeriph_Driver/src/stm32f10x_fsmc.c ****   * @param  FSMC_Bank: specifies the FSMC Bank to be used
 557:lib/STM32F10x_StdPeriph_Driver/src/stm32f10x_fsmc.c ****   *   This parameter can be one of the following values:
 558:lib/STM32F10x_StdPeriph_Driver/src/stm32f10x_fsmc.c ****   *     @arg FSMC_Bank2_NAND: FSMC Bank2 NAND 
 559:lib/STM32F10x_StdPeriph_Driver/src/stm32f10x_fsmc.c ****   *     @arg FSMC_Bank3_NAND: FSMC Bank3 NAND
 560:lib/STM32F10x_StdPeriph_Driver/src/stm32f10x_fsmc.c ****   * @param  NewState: new state of the FSMC NAND ECC feature.  
 561:lib/STM32F10x_StdPeriph_Driver/src/stm32f10x_fsmc.c ****   *   This parameter can be: ENABLE or DISABLE.
 562:lib/STM32F10x_StdPeriph_Driver/src/stm32f10x_fsmc.c ****   * @retval None
 563:lib/STM32F10x_StdPeriph_Driver/src/stm32f10x_fsmc.c ****   */
 564:lib/STM32F10x_StdPeriph_Driver/src/stm32f10x_fsmc.c **** void FSMC_NANDECCCmd(uint32_t FSMC_Bank, FunctionalState NewState)
 565:lib/STM32F10x_StdPeriph_Driver/src/stm32f10x_fsmc.c **** {
 810              		.loc 1 565 0
 811              		.cfi_startproc
 812              		@ args = 0, pretend = 0, frame = 0
 813              		@ frame_needed = 0, uses_anonymous_args = 0
 814              		@ link register save eliminated.
 815              	.LVL22:
 566:lib/STM32F10x_StdPeriph_Driver/src/stm32f10x_fsmc.c ****   assert_param(IS_FSMC_NAND_BANK(FSMC_Bank));
 567:lib/STM32F10x_StdPeriph_Driver/src/stm32f10x_fsmc.c ****   assert_param(IS_FUNCTIONAL_STATE(NewState));
 568:lib/STM32F10x_StdPeriph_Driver/src/stm32f10x_fsmc.c ****   
 569:lib/STM32F10x_StdPeriph_Driver/src/stm32f10x_fsmc.c ****   if (NewState != DISABLE)
 816              		.loc 1 569 0
 817 02fc 41B1     		cbz	r1, .L53
 570:lib/STM32F10x_StdPeriph_Driver/src/stm32f10x_fsmc.c ****   {
 571:lib/STM32F10x_StdPeriph_Driver/src/stm32f10x_fsmc.c ****     /* Enable the selected NAND Bank ECC function by setting the ECCEN bit in the PCRx register */
 572:lib/STM32F10x_StdPeriph_Driver/src/stm32f10x_fsmc.c ****     if(FSMC_Bank == FSMC_Bank2_NAND)
 818              		.loc 1 572 0
 819 02fe 1028     		cmp	r0, #16
 573:lib/STM32F10x_StdPeriph_Driver/src/stm32f10x_fsmc.c ****     {
 574:lib/STM32F10x_StdPeriph_Driver/src/stm32f10x_fsmc.c ****       FSMC_Bank2->PCR2 |= PCR_ECCEN_Set;
 820              		.loc 1 574 0
 821 0300 0CBF     		ite	eq
 822 0302 074A     		ldreq	r2, .L60
 575:lib/STM32F10x_StdPeriph_Driver/src/stm32f10x_fsmc.c ****     }
 576:lib/STM32F10x_StdPeriph_Driver/src/stm32f10x_fsmc.c ****     else
 577:lib/STM32F10x_StdPeriph_Driver/src/stm32f10x_fsmc.c ****     {
 578:lib/STM32F10x_StdPeriph_Driver/src/stm32f10x_fsmc.c ****       FSMC_Bank3->PCR3 |= PCR_ECCEN_Set;
 823              		.loc 1 578 0
 824 0304 074A     		ldrne	r2, .L60+4
 825 0306 1368     		ldr	r3, [r2]
 826 0308 43F04003 		orr	r3, r3, #64
 827              	.LVL23:
 828              	.L57:
 579:lib/STM32F10x_StdPeriph_Driver/src/stm32f10x_fsmc.c ****     }
 580:lib/STM32F10x_StdPeriph_Driver/src/stm32f10x_fsmc.c ****   }
 581:lib/STM32F10x_StdPeriph_Driver/src/stm32f10x_fsmc.c ****   else
 582:lib/STM32F10x_StdPeriph_Driver/src/stm32f10x_fsmc.c ****   {
 583:lib/STM32F10x_StdPeriph_Driver/src/stm32f10x_fsmc.c ****     /* Disable the selected NAND Bank ECC function by clearing the ECCEN bit in the PCRx register *
 584:lib/STM32F10x_StdPeriph_Driver/src/stm32f10x_fsmc.c ****     if(FSMC_Bank == FSMC_Bank2_NAND)
 585:lib/STM32F10x_StdPeriph_Driver/src/stm32f10x_fsmc.c ****     {
 586:lib/STM32F10x_StdPeriph_Driver/src/stm32f10x_fsmc.c ****       FSMC_Bank2->PCR2 &= PCR_ECCEN_Reset;
 587:lib/STM32F10x_StdPeriph_Driver/src/stm32f10x_fsmc.c ****     }
 588:lib/STM32F10x_StdPeriph_Driver/src/stm32f10x_fsmc.c ****     else
 589:lib/STM32F10x_StdPeriph_Driver/src/stm32f10x_fsmc.c ****     {
 590:lib/STM32F10x_StdPeriph_Driver/src/stm32f10x_fsmc.c ****       FSMC_Bank3->PCR3 &= PCR_ECCEN_Reset;
 829              		.loc 1 590 0
 830 030c 1360     		str	r3, [r2]
 831 030e 7047     		bx	lr
 832              	.LVL24:
 833              	.L53:
 584:lib/STM32F10x_StdPeriph_Driver/src/stm32f10x_fsmc.c ****     {
 834              		.loc 1 584 0
 835 0310 1028     		cmp	r0, #16
 586:lib/STM32F10x_StdPeriph_Driver/src/stm32f10x_fsmc.c ****     }
 836              		.loc 1 586 0
 837 0312 0CBF     		ite	eq
 838 0314 024A     		ldreq	r2, .L60
 839              		.loc 1 590 0
 840 0316 034A     		ldrne	r2, .L60+4
 841 0318 0349     		ldr	r1, .L60+8
 842              	.LVL25:
 843 031a 1368     		ldr	r3, [r2]
 844 031c 0B40     		ands	r3, r3, r1
 845 031e F5E7     		b	.L57
 846              	.L61:
 847              		.align	2
 848              	.L60:
 849 0320 600000A0 		.word	-1610612640
 850 0324 800000A0 		.word	-1610612608
 851 0328 BFFF0F00 		.word	1048511
 852              		.cfi_endproc
 853              	.LFE41:
 855              		.align	1
 856              		.global	FSMC_GetECC
 857              		.syntax unified
 858              		.thumb
 859              		.thumb_func
 860              		.fpu softvfp
 862              	FSMC_GetECC:
 863              	.LFB42:
 591:lib/STM32F10x_StdPeriph_Driver/src/stm32f10x_fsmc.c ****     }
 592:lib/STM32F10x_StdPeriph_Driver/src/stm32f10x_fsmc.c ****   }
 593:lib/STM32F10x_StdPeriph_Driver/src/stm32f10x_fsmc.c **** }
 594:lib/STM32F10x_StdPeriph_Driver/src/stm32f10x_fsmc.c **** 
 595:lib/STM32F10x_StdPeriph_Driver/src/stm32f10x_fsmc.c **** /**
 596:lib/STM32F10x_StdPeriph_Driver/src/stm32f10x_fsmc.c ****   * @brief  Returns the error correction code register value.
 597:lib/STM32F10x_StdPeriph_Driver/src/stm32f10x_fsmc.c ****   * @param  FSMC_Bank: specifies the FSMC Bank to be used
 598:lib/STM32F10x_StdPeriph_Driver/src/stm32f10x_fsmc.c ****   *   This parameter can be one of the following values:
 599:lib/STM32F10x_StdPeriph_Driver/src/stm32f10x_fsmc.c ****   *     @arg FSMC_Bank2_NAND: FSMC Bank2 NAND 
 600:lib/STM32F10x_StdPeriph_Driver/src/stm32f10x_fsmc.c ****   *     @arg FSMC_Bank3_NAND: FSMC Bank3 NAND
 601:lib/STM32F10x_StdPeriph_Driver/src/stm32f10x_fsmc.c ****   * @retval The Error Correction Code (ECC) value.
 602:lib/STM32F10x_StdPeriph_Driver/src/stm32f10x_fsmc.c ****   */
 603:lib/STM32F10x_StdPeriph_Driver/src/stm32f10x_fsmc.c **** uint32_t FSMC_GetECC(uint32_t FSMC_Bank)
 604:lib/STM32F10x_StdPeriph_Driver/src/stm32f10x_fsmc.c **** {
 864              		.loc 1 604 0
 865              		.cfi_startproc
 866              		@ args = 0, pretend = 0, frame = 0
 867              		@ frame_needed = 0, uses_anonymous_args = 0
 868              		@ link register save eliminated.
 869              	.LVL26:
 605:lib/STM32F10x_StdPeriph_Driver/src/stm32f10x_fsmc.c ****   uint32_t eccval = 0x00000000;
 606:lib/STM32F10x_StdPeriph_Driver/src/stm32f10x_fsmc.c ****   
 607:lib/STM32F10x_StdPeriph_Driver/src/stm32f10x_fsmc.c ****   if(FSMC_Bank == FSMC_Bank2_NAND)
 870              		.loc 1 607 0
 871 032c 1028     		cmp	r0, #16
 608:lib/STM32F10x_StdPeriph_Driver/src/stm32f10x_fsmc.c ****   {
 609:lib/STM32F10x_StdPeriph_Driver/src/stm32f10x_fsmc.c ****     /* Get the ECCR2 register value */
 610:lib/STM32F10x_StdPeriph_Driver/src/stm32f10x_fsmc.c ****     eccval = FSMC_Bank2->ECCR2;
 872              		.loc 1 610 0
 873 032e 0CBF     		ite	eq
 874 0330 014B     		ldreq	r3, .L66
 611:lib/STM32F10x_StdPeriph_Driver/src/stm32f10x_fsmc.c ****   }
 612:lib/STM32F10x_StdPeriph_Driver/src/stm32f10x_fsmc.c ****   else
 613:lib/STM32F10x_StdPeriph_Driver/src/stm32f10x_fsmc.c ****   {
 614:lib/STM32F10x_StdPeriph_Driver/src/stm32f10x_fsmc.c ****     /* Get the ECCR3 register value */
 615:lib/STM32F10x_StdPeriph_Driver/src/stm32f10x_fsmc.c ****     eccval = FSMC_Bank3->ECCR3;
 875              		.loc 1 615 0
 876 0332 024B     		ldrne	r3, .L66+4
 877 0334 5869     		ldr	r0, [r3, #20]
 878              	.LVL27:
 616:lib/STM32F10x_StdPeriph_Driver/src/stm32f10x_fsmc.c ****   }
 617:lib/STM32F10x_StdPeriph_Driver/src/stm32f10x_fsmc.c ****   /* Return the error correction code value */
 618:lib/STM32F10x_StdPeriph_Driver/src/stm32f10x_fsmc.c ****   return(eccval);
 619:lib/STM32F10x_StdPeriph_Driver/src/stm32f10x_fsmc.c **** }
 879              		.loc 1 619 0
 880 0336 7047     		bx	lr
 881              	.L67:
 882              		.align	2
 883              	.L66:
 884 0338 600000A0 		.word	-1610612640
 885 033c 800000A0 		.word	-1610612608
 886              		.cfi_endproc
 887              	.LFE42:
 889              		.align	1
 890              		.global	FSMC_ITConfig
 891              		.syntax unified
 892              		.thumb
 893              		.thumb_func
 894              		.fpu softvfp
 896              	FSMC_ITConfig:
 897              	.LFB43:
 620:lib/STM32F10x_StdPeriph_Driver/src/stm32f10x_fsmc.c **** 
 621:lib/STM32F10x_StdPeriph_Driver/src/stm32f10x_fsmc.c **** /**
 622:lib/STM32F10x_StdPeriph_Driver/src/stm32f10x_fsmc.c ****   * @brief  Enables or disables the specified FSMC interrupts.
 623:lib/STM32F10x_StdPeriph_Driver/src/stm32f10x_fsmc.c ****   * @param  FSMC_Bank: specifies the FSMC Bank to be used
 624:lib/STM32F10x_StdPeriph_Driver/src/stm32f10x_fsmc.c ****   *   This parameter can be one of the following values:
 625:lib/STM32F10x_StdPeriph_Driver/src/stm32f10x_fsmc.c ****   *     @arg FSMC_Bank2_NAND: FSMC Bank2 NAND 
 626:lib/STM32F10x_StdPeriph_Driver/src/stm32f10x_fsmc.c ****   *     @arg FSMC_Bank3_NAND: FSMC Bank3 NAND
 627:lib/STM32F10x_StdPeriph_Driver/src/stm32f10x_fsmc.c ****   *     @arg FSMC_Bank4_PCCARD: FSMC Bank4 PCCARD
 628:lib/STM32F10x_StdPeriph_Driver/src/stm32f10x_fsmc.c ****   * @param  FSMC_IT: specifies the FSMC interrupt sources to be enabled or disabled.
 629:lib/STM32F10x_StdPeriph_Driver/src/stm32f10x_fsmc.c ****   *   This parameter can be any combination of the following values:
 630:lib/STM32F10x_StdPeriph_Driver/src/stm32f10x_fsmc.c ****   *     @arg FSMC_IT_RisingEdge: Rising edge detection interrupt. 
 631:lib/STM32F10x_StdPeriph_Driver/src/stm32f10x_fsmc.c ****   *     @arg FSMC_IT_Level: Level edge detection interrupt.
 632:lib/STM32F10x_StdPeriph_Driver/src/stm32f10x_fsmc.c ****   *     @arg FSMC_IT_FallingEdge: Falling edge detection interrupt.
 633:lib/STM32F10x_StdPeriph_Driver/src/stm32f10x_fsmc.c ****   * @param  NewState: new state of the specified FSMC interrupts.
 634:lib/STM32F10x_StdPeriph_Driver/src/stm32f10x_fsmc.c ****   *   This parameter can be: ENABLE or DISABLE.
 635:lib/STM32F10x_StdPeriph_Driver/src/stm32f10x_fsmc.c ****   * @retval None
 636:lib/STM32F10x_StdPeriph_Driver/src/stm32f10x_fsmc.c ****   */
 637:lib/STM32F10x_StdPeriph_Driver/src/stm32f10x_fsmc.c **** void FSMC_ITConfig(uint32_t FSMC_Bank, uint32_t FSMC_IT, FunctionalState NewState)
 638:lib/STM32F10x_StdPeriph_Driver/src/stm32f10x_fsmc.c **** {
 898              		.loc 1 638 0
 899              		.cfi_startproc
 900              		@ args = 0, pretend = 0, frame = 0
 901              		@ frame_needed = 0, uses_anonymous_args = 0
 902              		@ link register save eliminated.
 903              	.LVL28:
 639:lib/STM32F10x_StdPeriph_Driver/src/stm32f10x_fsmc.c ****   assert_param(IS_FSMC_IT_BANK(FSMC_Bank));
 640:lib/STM32F10x_StdPeriph_Driver/src/stm32f10x_fsmc.c ****   assert_param(IS_FSMC_IT(FSMC_IT));	
 641:lib/STM32F10x_StdPeriph_Driver/src/stm32f10x_fsmc.c ****   assert_param(IS_FUNCTIONAL_STATE(NewState));
 642:lib/STM32F10x_StdPeriph_Driver/src/stm32f10x_fsmc.c ****   
 643:lib/STM32F10x_StdPeriph_Driver/src/stm32f10x_fsmc.c ****   if (NewState != DISABLE)
 904              		.loc 1 643 0
 905 0340 82B1     		cbz	r2, .L69
 644:lib/STM32F10x_StdPeriph_Driver/src/stm32f10x_fsmc.c ****   {
 645:lib/STM32F10x_StdPeriph_Driver/src/stm32f10x_fsmc.c ****     /* Enable the selected FSMC_Bank2 interrupts */
 646:lib/STM32F10x_StdPeriph_Driver/src/stm32f10x_fsmc.c ****     if(FSMC_Bank == FSMC_Bank2_NAND)
 906              		.loc 1 646 0
 907 0342 1028     		cmp	r0, #16
 908 0344 04D1     		bne	.L70
 647:lib/STM32F10x_StdPeriph_Driver/src/stm32f10x_fsmc.c ****     {
 648:lib/STM32F10x_StdPeriph_Driver/src/stm32f10x_fsmc.c ****       FSMC_Bank2->SR2 |= FSMC_IT;
 909              		.loc 1 648 0
 910 0346 0E4B     		ldr	r3, .L78
 911              	.L77:
 649:lib/STM32F10x_StdPeriph_Driver/src/stm32f10x_fsmc.c ****     }
 650:lib/STM32F10x_StdPeriph_Driver/src/stm32f10x_fsmc.c ****     /* Enable the selected FSMC_Bank3 interrupts */
 651:lib/STM32F10x_StdPeriph_Driver/src/stm32f10x_fsmc.c ****     else if (FSMC_Bank == FSMC_Bank3_NAND)
 652:lib/STM32F10x_StdPeriph_Driver/src/stm32f10x_fsmc.c ****     {
 653:lib/STM32F10x_StdPeriph_Driver/src/stm32f10x_fsmc.c ****       FSMC_Bank3->SR3 |= FSMC_IT;
 654:lib/STM32F10x_StdPeriph_Driver/src/stm32f10x_fsmc.c ****     }
 655:lib/STM32F10x_StdPeriph_Driver/src/stm32f10x_fsmc.c ****     /* Enable the selected FSMC_Bank4 interrupts */
 656:lib/STM32F10x_StdPeriph_Driver/src/stm32f10x_fsmc.c ****     else
 657:lib/STM32F10x_StdPeriph_Driver/src/stm32f10x_fsmc.c ****     {
 658:lib/STM32F10x_StdPeriph_Driver/src/stm32f10x_fsmc.c ****       FSMC_Bank4->SR4 |= FSMC_IT;    
 912              		.loc 1 658 0
 913 0348 5A68     		ldr	r2, [r3, #4]
 914              	.LVL29:
 915 034a 1143     		orrs	r1, r1, r2
 916              	.LVL30:
 917              	.L76:
 659:lib/STM32F10x_StdPeriph_Driver/src/stm32f10x_fsmc.c ****     }
 660:lib/STM32F10x_StdPeriph_Driver/src/stm32f10x_fsmc.c ****   }
 661:lib/STM32F10x_StdPeriph_Driver/src/stm32f10x_fsmc.c ****   else
 662:lib/STM32F10x_StdPeriph_Driver/src/stm32f10x_fsmc.c ****   {
 663:lib/STM32F10x_StdPeriph_Driver/src/stm32f10x_fsmc.c ****     /* Disable the selected FSMC_Bank2 interrupts */
 664:lib/STM32F10x_StdPeriph_Driver/src/stm32f10x_fsmc.c ****     if(FSMC_Bank == FSMC_Bank2_NAND)
 665:lib/STM32F10x_StdPeriph_Driver/src/stm32f10x_fsmc.c ****     {
 666:lib/STM32F10x_StdPeriph_Driver/src/stm32f10x_fsmc.c ****       
 667:lib/STM32F10x_StdPeriph_Driver/src/stm32f10x_fsmc.c ****       FSMC_Bank2->SR2 &= (uint32_t)~FSMC_IT;
 668:lib/STM32F10x_StdPeriph_Driver/src/stm32f10x_fsmc.c ****     }
 669:lib/STM32F10x_StdPeriph_Driver/src/stm32f10x_fsmc.c ****     /* Disable the selected FSMC_Bank3 interrupts */
 670:lib/STM32F10x_StdPeriph_Driver/src/stm32f10x_fsmc.c ****     else if (FSMC_Bank == FSMC_Bank3_NAND)
 671:lib/STM32F10x_StdPeriph_Driver/src/stm32f10x_fsmc.c ****     {
 672:lib/STM32F10x_StdPeriph_Driver/src/stm32f10x_fsmc.c ****       FSMC_Bank3->SR3 &= (uint32_t)~FSMC_IT;
 673:lib/STM32F10x_StdPeriph_Driver/src/stm32f10x_fsmc.c ****     }
 674:lib/STM32F10x_StdPeriph_Driver/src/stm32f10x_fsmc.c ****     /* Disable the selected FSMC_Bank4 interrupts */
 675:lib/STM32F10x_StdPeriph_Driver/src/stm32f10x_fsmc.c ****     else
 676:lib/STM32F10x_StdPeriph_Driver/src/stm32f10x_fsmc.c ****     {
 677:lib/STM32F10x_StdPeriph_Driver/src/stm32f10x_fsmc.c ****       FSMC_Bank4->SR4 &= (uint32_t)~FSMC_IT;    
 918              		.loc 1 677 0
 919 034c 5960     		str	r1, [r3, #4]
 920 034e 7047     		bx	lr
 921              	.LVL31:
 922              	.L70:
 651:lib/STM32F10x_StdPeriph_Driver/src/stm32f10x_fsmc.c ****     {
 923              		.loc 1 651 0
 924 0350 B0F5807F 		cmp	r0, #256
 925 0354 04D1     		bne	.L72
 653:lib/STM32F10x_StdPeriph_Driver/src/stm32f10x_fsmc.c ****     }
 926              		.loc 1 653 0
 927 0356 0B4A     		ldr	r2, .L78+4
 928              	.LVL32:
 929 0358 5368     		ldr	r3, [r2, #4]
 930 035a 1943     		orrs	r1, r1, r3
 931              	.LVL33:
 932 035c 5160     		str	r1, [r2, #4]
 933 035e 7047     		bx	lr
 934              	.LVL34:
 935              	.L72:
 658:lib/STM32F10x_StdPeriph_Driver/src/stm32f10x_fsmc.c ****     }
 936              		.loc 1 658 0
 937 0360 094B     		ldr	r3, .L78+8
 938 0362 F1E7     		b	.L77
 939              	.L69:
 664:lib/STM32F10x_StdPeriph_Driver/src/stm32f10x_fsmc.c ****     {
 940              		.loc 1 664 0
 941 0364 1028     		cmp	r0, #16
 942 0366 6FEA0101 		mvn	r1, r1
 943              	.LVL35:
 944 036a 03D1     		bne	.L73
 667:lib/STM32F10x_StdPeriph_Driver/src/stm32f10x_fsmc.c ****     }
 945              		.loc 1 667 0
 946 036c 044B     		ldr	r3, .L78
 947              	.L75:
 948              		.loc 1 677 0
 949 036e 5A68     		ldr	r2, [r3, #4]
 950              	.LVL36:
 951 0370 1140     		ands	r1, r1, r2
 952              	.LVL37:
 953 0372 EBE7     		b	.L76
 954              	.LVL38:
 955              	.L73:
 670:lib/STM32F10x_StdPeriph_Driver/src/stm32f10x_fsmc.c ****     {
 956              		.loc 1 670 0
 957 0374 B0F5807F 		cmp	r0, #256
 672:lib/STM32F10x_StdPeriph_Driver/src/stm32f10x_fsmc.c ****     }
 958              		.loc 1 672 0
 959 0378 0CBF     		ite	eq
 960 037a 024B     		ldreq	r3, .L78+4
 961              		.loc 1 677 0
 962 037c 024B     		ldrne	r3, .L78+8
 963 037e F6E7     		b	.L75
 964              	.L79:
 965              		.align	2
 966              	.L78:
 967 0380 600000A0 		.word	-1610612640
 968 0384 800000A0 		.word	-1610612608
 969 0388 A00000A0 		.word	-1610612576
 970              		.cfi_endproc
 971              	.LFE43:
 973              		.align	1
 974              		.global	FSMC_GetFlagStatus
 975              		.syntax unified
 976              		.thumb
 977              		.thumb_func
 978              		.fpu softvfp
 980              	FSMC_GetFlagStatus:
 981              	.LFB44:
 678:lib/STM32F10x_StdPeriph_Driver/src/stm32f10x_fsmc.c ****     }
 679:lib/STM32F10x_StdPeriph_Driver/src/stm32f10x_fsmc.c ****   }
 680:lib/STM32F10x_StdPeriph_Driver/src/stm32f10x_fsmc.c **** }
 681:lib/STM32F10x_StdPeriph_Driver/src/stm32f10x_fsmc.c **** 
 682:lib/STM32F10x_StdPeriph_Driver/src/stm32f10x_fsmc.c **** /**
 683:lib/STM32F10x_StdPeriph_Driver/src/stm32f10x_fsmc.c ****   * @brief  Checks whether the specified FSMC flag is set or not.
 684:lib/STM32F10x_StdPeriph_Driver/src/stm32f10x_fsmc.c ****   * @param  FSMC_Bank: specifies the FSMC Bank to be used
 685:lib/STM32F10x_StdPeriph_Driver/src/stm32f10x_fsmc.c ****   *   This parameter can be one of the following values:
 686:lib/STM32F10x_StdPeriph_Driver/src/stm32f10x_fsmc.c ****   *     @arg FSMC_Bank2_NAND: FSMC Bank2 NAND 
 687:lib/STM32F10x_StdPeriph_Driver/src/stm32f10x_fsmc.c ****   *     @arg FSMC_Bank3_NAND: FSMC Bank3 NAND
 688:lib/STM32F10x_StdPeriph_Driver/src/stm32f10x_fsmc.c ****   *     @arg FSMC_Bank4_PCCARD: FSMC Bank4 PCCARD
 689:lib/STM32F10x_StdPeriph_Driver/src/stm32f10x_fsmc.c ****   * @param  FSMC_FLAG: specifies the flag to check.
 690:lib/STM32F10x_StdPeriph_Driver/src/stm32f10x_fsmc.c ****   *   This parameter can be one of the following values:
 691:lib/STM32F10x_StdPeriph_Driver/src/stm32f10x_fsmc.c ****   *     @arg FSMC_FLAG_RisingEdge: Rising egde detection Flag.
 692:lib/STM32F10x_StdPeriph_Driver/src/stm32f10x_fsmc.c ****   *     @arg FSMC_FLAG_Level: Level detection Flag.
 693:lib/STM32F10x_StdPeriph_Driver/src/stm32f10x_fsmc.c ****   *     @arg FSMC_FLAG_FallingEdge: Falling egde detection Flag.
 694:lib/STM32F10x_StdPeriph_Driver/src/stm32f10x_fsmc.c ****   *     @arg FSMC_FLAG_FEMPT: Fifo empty Flag. 
 695:lib/STM32F10x_StdPeriph_Driver/src/stm32f10x_fsmc.c ****   * @retval The new state of FSMC_FLAG (SET or RESET).
 696:lib/STM32F10x_StdPeriph_Driver/src/stm32f10x_fsmc.c ****   */
 697:lib/STM32F10x_StdPeriph_Driver/src/stm32f10x_fsmc.c **** FlagStatus FSMC_GetFlagStatus(uint32_t FSMC_Bank, uint32_t FSMC_FLAG)
 698:lib/STM32F10x_StdPeriph_Driver/src/stm32f10x_fsmc.c **** {
 982              		.loc 1 698 0
 983              		.cfi_startproc
 984              		@ args = 0, pretend = 0, frame = 0
 985              		@ frame_needed = 0, uses_anonymous_args = 0
 986              		@ link register save eliminated.
 987              	.LVL39:
 699:lib/STM32F10x_StdPeriph_Driver/src/stm32f10x_fsmc.c ****   FlagStatus bitstatus = RESET;
 700:lib/STM32F10x_StdPeriph_Driver/src/stm32f10x_fsmc.c ****   uint32_t tmpsr = 0x00000000;
 701:lib/STM32F10x_StdPeriph_Driver/src/stm32f10x_fsmc.c ****   
 702:lib/STM32F10x_StdPeriph_Driver/src/stm32f10x_fsmc.c ****   /* Check the parameters */
 703:lib/STM32F10x_StdPeriph_Driver/src/stm32f10x_fsmc.c ****   assert_param(IS_FSMC_GETFLAG_BANK(FSMC_Bank));
 704:lib/STM32F10x_StdPeriph_Driver/src/stm32f10x_fsmc.c ****   assert_param(IS_FSMC_GET_FLAG(FSMC_FLAG));
 705:lib/STM32F10x_StdPeriph_Driver/src/stm32f10x_fsmc.c ****   
 706:lib/STM32F10x_StdPeriph_Driver/src/stm32f10x_fsmc.c ****   if(FSMC_Bank == FSMC_Bank2_NAND)
 988              		.loc 1 706 0
 989 038c 1028     		cmp	r0, #16
 990 038e 06D1     		bne	.L81
 707:lib/STM32F10x_StdPeriph_Driver/src/stm32f10x_fsmc.c ****   {
 708:lib/STM32F10x_StdPeriph_Driver/src/stm32f10x_fsmc.c ****     tmpsr = FSMC_Bank2->SR2;
 991              		.loc 1 708 0
 992 0390 064B     		ldr	r3, .L85
 993              	.L84:
 709:lib/STM32F10x_StdPeriph_Driver/src/stm32f10x_fsmc.c ****   }  
 710:lib/STM32F10x_StdPeriph_Driver/src/stm32f10x_fsmc.c ****   else if(FSMC_Bank == FSMC_Bank3_NAND)
 711:lib/STM32F10x_StdPeriph_Driver/src/stm32f10x_fsmc.c ****   {
 712:lib/STM32F10x_StdPeriph_Driver/src/stm32f10x_fsmc.c ****     tmpsr = FSMC_Bank3->SR3;
 713:lib/STM32F10x_StdPeriph_Driver/src/stm32f10x_fsmc.c ****   }
 714:lib/STM32F10x_StdPeriph_Driver/src/stm32f10x_fsmc.c ****   /* FSMC_Bank4_PCCARD*/
 715:lib/STM32F10x_StdPeriph_Driver/src/stm32f10x_fsmc.c ****   else
 716:lib/STM32F10x_StdPeriph_Driver/src/stm32f10x_fsmc.c ****   {
 717:lib/STM32F10x_StdPeriph_Driver/src/stm32f10x_fsmc.c ****     tmpsr = FSMC_Bank4->SR4;
 994              		.loc 1 717 0
 995 0392 5B68     		ldr	r3, [r3, #4]
 996              	.LVL40:
 718:lib/STM32F10x_StdPeriph_Driver/src/stm32f10x_fsmc.c ****   } 
 719:lib/STM32F10x_StdPeriph_Driver/src/stm32f10x_fsmc.c ****   
 720:lib/STM32F10x_StdPeriph_Driver/src/stm32f10x_fsmc.c ****   /* Get the flag status */
 721:lib/STM32F10x_StdPeriph_Driver/src/stm32f10x_fsmc.c ****   if ((tmpsr & FSMC_FLAG) != (uint16_t)RESET )
 997              		.loc 1 721 0
 998 0394 0B42     		tst	r3, r1
 722:lib/STM32F10x_StdPeriph_Driver/src/stm32f10x_fsmc.c ****   {
 723:lib/STM32F10x_StdPeriph_Driver/src/stm32f10x_fsmc.c ****     bitstatus = SET;
 724:lib/STM32F10x_StdPeriph_Driver/src/stm32f10x_fsmc.c ****   }
 725:lib/STM32F10x_StdPeriph_Driver/src/stm32f10x_fsmc.c ****   else
 726:lib/STM32F10x_StdPeriph_Driver/src/stm32f10x_fsmc.c ****   {
 727:lib/STM32F10x_StdPeriph_Driver/src/stm32f10x_fsmc.c ****     bitstatus = RESET;
 728:lib/STM32F10x_StdPeriph_Driver/src/stm32f10x_fsmc.c ****   }
 729:lib/STM32F10x_StdPeriph_Driver/src/stm32f10x_fsmc.c ****   /* Return the flag status */
 730:lib/STM32F10x_StdPeriph_Driver/src/stm32f10x_fsmc.c ****   return bitstatus;
 731:lib/STM32F10x_StdPeriph_Driver/src/stm32f10x_fsmc.c **** }
 999              		.loc 1 731 0
 1000 0396 14BF     		ite	ne
 1001 0398 0120     		movne	r0, #1
 1002              	.LVL41:
 1003 039a 0020     		moveq	r0, #0
 1004 039c 7047     		bx	lr
 1005              	.LVL42:
 1006              	.L81:
 710:lib/STM32F10x_StdPeriph_Driver/src/stm32f10x_fsmc.c ****   {
 1007              		.loc 1 710 0
 1008 039e B0F5807F 		cmp	r0, #256
 712:lib/STM32F10x_StdPeriph_Driver/src/stm32f10x_fsmc.c ****   }
 1009              		.loc 1 712 0
 1010 03a2 0CBF     		ite	eq
 1011 03a4 024B     		ldreq	r3, .L85+4
 717:lib/STM32F10x_StdPeriph_Driver/src/stm32f10x_fsmc.c ****   } 
 1012              		.loc 1 717 0
 1013 03a6 034B     		ldrne	r3, .L85+8
 1014 03a8 F3E7     		b	.L84
 1015              	.L86:
 1016 03aa 00BF     		.align	2
 1017              	.L85:
 1018 03ac 600000A0 		.word	-1610612640
 1019 03b0 800000A0 		.word	-1610612608
 1020 03b4 A00000A0 		.word	-1610612576
 1021              		.cfi_endproc
 1022              	.LFE44:
 1024              		.align	1
 1025              		.global	FSMC_ClearFlag
 1026              		.syntax unified
 1027              		.thumb
 1028              		.thumb_func
 1029              		.fpu softvfp
 1031              	FSMC_ClearFlag:
 1032              	.LFB45:
 732:lib/STM32F10x_StdPeriph_Driver/src/stm32f10x_fsmc.c **** 
 733:lib/STM32F10x_StdPeriph_Driver/src/stm32f10x_fsmc.c **** /**
 734:lib/STM32F10x_StdPeriph_Driver/src/stm32f10x_fsmc.c ****   * @brief  Clears the FSMC's pending flags.
 735:lib/STM32F10x_StdPeriph_Driver/src/stm32f10x_fsmc.c ****   * @param  FSMC_Bank: specifies the FSMC Bank to be used
 736:lib/STM32F10x_StdPeriph_Driver/src/stm32f10x_fsmc.c ****   *   This parameter can be one of the following values:
 737:lib/STM32F10x_StdPeriph_Driver/src/stm32f10x_fsmc.c ****   *     @arg FSMC_Bank2_NAND: FSMC Bank2 NAND 
 738:lib/STM32F10x_StdPeriph_Driver/src/stm32f10x_fsmc.c ****   *     @arg FSMC_Bank3_NAND: FSMC Bank3 NAND
 739:lib/STM32F10x_StdPeriph_Driver/src/stm32f10x_fsmc.c ****   *     @arg FSMC_Bank4_PCCARD: FSMC Bank4 PCCARD
 740:lib/STM32F10x_StdPeriph_Driver/src/stm32f10x_fsmc.c ****   * @param  FSMC_FLAG: specifies the flag to clear.
 741:lib/STM32F10x_StdPeriph_Driver/src/stm32f10x_fsmc.c ****   *   This parameter can be any combination of the following values:
 742:lib/STM32F10x_StdPeriph_Driver/src/stm32f10x_fsmc.c ****   *     @arg FSMC_FLAG_RisingEdge: Rising egde detection Flag.
 743:lib/STM32F10x_StdPeriph_Driver/src/stm32f10x_fsmc.c ****   *     @arg FSMC_FLAG_Level: Level detection Flag.
 744:lib/STM32F10x_StdPeriph_Driver/src/stm32f10x_fsmc.c ****   *     @arg FSMC_FLAG_FallingEdge: Falling egde detection Flag.
 745:lib/STM32F10x_StdPeriph_Driver/src/stm32f10x_fsmc.c ****   * @retval None
 746:lib/STM32F10x_StdPeriph_Driver/src/stm32f10x_fsmc.c ****   */
 747:lib/STM32F10x_StdPeriph_Driver/src/stm32f10x_fsmc.c **** void FSMC_ClearFlag(uint32_t FSMC_Bank, uint32_t FSMC_FLAG)
 748:lib/STM32F10x_StdPeriph_Driver/src/stm32f10x_fsmc.c **** {
 1033              		.loc 1 748 0
 1034              		.cfi_startproc
 1035              		@ args = 0, pretend = 0, frame = 0
 1036              		@ frame_needed = 0, uses_anonymous_args = 0
 1037              		@ link register save eliminated.
 1038              	.LVL43:
 749:lib/STM32F10x_StdPeriph_Driver/src/stm32f10x_fsmc.c ****  /* Check the parameters */
 750:lib/STM32F10x_StdPeriph_Driver/src/stm32f10x_fsmc.c ****   assert_param(IS_FSMC_GETFLAG_BANK(FSMC_Bank));
 751:lib/STM32F10x_StdPeriph_Driver/src/stm32f10x_fsmc.c ****   assert_param(IS_FSMC_CLEAR_FLAG(FSMC_FLAG)) ;
 752:lib/STM32F10x_StdPeriph_Driver/src/stm32f10x_fsmc.c ****     
 753:lib/STM32F10x_StdPeriph_Driver/src/stm32f10x_fsmc.c ****   if(FSMC_Bank == FSMC_Bank2_NAND)
 1039              		.loc 1 753 0
 1040 03b8 1028     		cmp	r0, #16
 1041 03ba 6FEA0101 		mvn	r1, r1
 1042              	.LVL44:
 1043 03be 04D1     		bne	.L88
 754:lib/STM32F10x_StdPeriph_Driver/src/stm32f10x_fsmc.c ****   {
 755:lib/STM32F10x_StdPeriph_Driver/src/stm32f10x_fsmc.c ****     FSMC_Bank2->SR2 &= ~FSMC_FLAG; 
 1044              		.loc 1 755 0
 1045 03c0 054B     		ldr	r3, .L92
 1046              	.L91:
 756:lib/STM32F10x_StdPeriph_Driver/src/stm32f10x_fsmc.c ****   }  
 757:lib/STM32F10x_StdPeriph_Driver/src/stm32f10x_fsmc.c ****   else if(FSMC_Bank == FSMC_Bank3_NAND)
 758:lib/STM32F10x_StdPeriph_Driver/src/stm32f10x_fsmc.c ****   {
 759:lib/STM32F10x_StdPeriph_Driver/src/stm32f10x_fsmc.c ****     FSMC_Bank3->SR3 &= ~FSMC_FLAG;
 760:lib/STM32F10x_StdPeriph_Driver/src/stm32f10x_fsmc.c ****   }
 761:lib/STM32F10x_StdPeriph_Driver/src/stm32f10x_fsmc.c ****   /* FSMC_Bank4_PCCARD*/
 762:lib/STM32F10x_StdPeriph_Driver/src/stm32f10x_fsmc.c ****   else
 763:lib/STM32F10x_StdPeriph_Driver/src/stm32f10x_fsmc.c ****   {
 764:lib/STM32F10x_StdPeriph_Driver/src/stm32f10x_fsmc.c ****     FSMC_Bank4->SR4 &= ~FSMC_FLAG;
 1047              		.loc 1 764 0
 1048 03c2 5A68     		ldr	r2, [r3, #4]
 1049 03c4 1140     		ands	r1, r1, r2
 1050              	.LVL45:
 1051 03c6 5960     		str	r1, [r3, #4]
 1052 03c8 7047     		bx	lr
 1053              	.L88:
 757:lib/STM32F10x_StdPeriph_Driver/src/stm32f10x_fsmc.c ****   {
 1054              		.loc 1 757 0
 1055 03ca B0F5807F 		cmp	r0, #256
 759:lib/STM32F10x_StdPeriph_Driver/src/stm32f10x_fsmc.c ****   }
 1056              		.loc 1 759 0
 1057 03ce 0CBF     		ite	eq
 1058 03d0 024B     		ldreq	r3, .L92+4
 1059              		.loc 1 764 0
 1060 03d2 034B     		ldrne	r3, .L92+8
 1061 03d4 F5E7     		b	.L91
 1062              	.L93:
 1063 03d6 00BF     		.align	2
 1064              	.L92:
 1065 03d8 600000A0 		.word	-1610612640
 1066 03dc 800000A0 		.word	-1610612608
 1067 03e0 A00000A0 		.word	-1610612576
 1068              		.cfi_endproc
 1069              	.LFE45:
 1071              		.align	1
 1072              		.global	FSMC_GetITStatus
 1073              		.syntax unified
 1074              		.thumb
 1075              		.thumb_func
 1076              		.fpu softvfp
 1078              	FSMC_GetITStatus:
 1079              	.LFB46:
 765:lib/STM32F10x_StdPeriph_Driver/src/stm32f10x_fsmc.c ****   }
 766:lib/STM32F10x_StdPeriph_Driver/src/stm32f10x_fsmc.c **** }
 767:lib/STM32F10x_StdPeriph_Driver/src/stm32f10x_fsmc.c **** 
 768:lib/STM32F10x_StdPeriph_Driver/src/stm32f10x_fsmc.c **** /**
 769:lib/STM32F10x_StdPeriph_Driver/src/stm32f10x_fsmc.c ****   * @brief  Checks whether the specified FSMC interrupt has occurred or not.
 770:lib/STM32F10x_StdPeriph_Driver/src/stm32f10x_fsmc.c ****   * @param  FSMC_Bank: specifies the FSMC Bank to be used
 771:lib/STM32F10x_StdPeriph_Driver/src/stm32f10x_fsmc.c ****   *   This parameter can be one of the following values:
 772:lib/STM32F10x_StdPeriph_Driver/src/stm32f10x_fsmc.c ****   *     @arg FSMC_Bank2_NAND: FSMC Bank2 NAND 
 773:lib/STM32F10x_StdPeriph_Driver/src/stm32f10x_fsmc.c ****   *     @arg FSMC_Bank3_NAND: FSMC Bank3 NAND
 774:lib/STM32F10x_StdPeriph_Driver/src/stm32f10x_fsmc.c ****   *     @arg FSMC_Bank4_PCCARD: FSMC Bank4 PCCARD
 775:lib/STM32F10x_StdPeriph_Driver/src/stm32f10x_fsmc.c ****   * @param  FSMC_IT: specifies the FSMC interrupt source to check.
 776:lib/STM32F10x_StdPeriph_Driver/src/stm32f10x_fsmc.c ****   *   This parameter can be one of the following values:
 777:lib/STM32F10x_StdPeriph_Driver/src/stm32f10x_fsmc.c ****   *     @arg FSMC_IT_RisingEdge: Rising edge detection interrupt. 
 778:lib/STM32F10x_StdPeriph_Driver/src/stm32f10x_fsmc.c ****   *     @arg FSMC_IT_Level: Level edge detection interrupt.
 779:lib/STM32F10x_StdPeriph_Driver/src/stm32f10x_fsmc.c ****   *     @arg FSMC_IT_FallingEdge: Falling edge detection interrupt. 
 780:lib/STM32F10x_StdPeriph_Driver/src/stm32f10x_fsmc.c ****   * @retval The new state of FSMC_IT (SET or RESET).
 781:lib/STM32F10x_StdPeriph_Driver/src/stm32f10x_fsmc.c ****   */
 782:lib/STM32F10x_StdPeriph_Driver/src/stm32f10x_fsmc.c **** ITStatus FSMC_GetITStatus(uint32_t FSMC_Bank, uint32_t FSMC_IT)
 783:lib/STM32F10x_StdPeriph_Driver/src/stm32f10x_fsmc.c **** {
 1080              		.loc 1 783 0
 1081              		.cfi_startproc
 1082              		@ args = 0, pretend = 0, frame = 0
 1083              		@ frame_needed = 0, uses_anonymous_args = 0
 1084              		@ link register save eliminated.
 1085              	.LVL46:
 784:lib/STM32F10x_StdPeriph_Driver/src/stm32f10x_fsmc.c ****   ITStatus bitstatus = RESET;
 785:lib/STM32F10x_StdPeriph_Driver/src/stm32f10x_fsmc.c ****   uint32_t tmpsr = 0x0, itstatus = 0x0, itenable = 0x0; 
 786:lib/STM32F10x_StdPeriph_Driver/src/stm32f10x_fsmc.c ****   
 787:lib/STM32F10x_StdPeriph_Driver/src/stm32f10x_fsmc.c ****   /* Check the parameters */
 788:lib/STM32F10x_StdPeriph_Driver/src/stm32f10x_fsmc.c ****   assert_param(IS_FSMC_IT_BANK(FSMC_Bank));
 789:lib/STM32F10x_StdPeriph_Driver/src/stm32f10x_fsmc.c ****   assert_param(IS_FSMC_GET_IT(FSMC_IT));
 790:lib/STM32F10x_StdPeriph_Driver/src/stm32f10x_fsmc.c ****   
 791:lib/STM32F10x_StdPeriph_Driver/src/stm32f10x_fsmc.c ****   if(FSMC_Bank == FSMC_Bank2_NAND)
 1086              		.loc 1 791 0
 1087 03e4 1028     		cmp	r0, #16
 1088 03e6 0AD1     		bne	.L95
 792:lib/STM32F10x_StdPeriph_Driver/src/stm32f10x_fsmc.c ****   {
 793:lib/STM32F10x_StdPeriph_Driver/src/stm32f10x_fsmc.c ****     tmpsr = FSMC_Bank2->SR2;
 1089              		.loc 1 793 0
 1090 03e8 084B     		ldr	r3, .L101
 1091              	.L100:
 794:lib/STM32F10x_StdPeriph_Driver/src/stm32f10x_fsmc.c ****   }  
 795:lib/STM32F10x_StdPeriph_Driver/src/stm32f10x_fsmc.c ****   else if(FSMC_Bank == FSMC_Bank3_NAND)
 796:lib/STM32F10x_StdPeriph_Driver/src/stm32f10x_fsmc.c ****   {
 797:lib/STM32F10x_StdPeriph_Driver/src/stm32f10x_fsmc.c ****     tmpsr = FSMC_Bank3->SR3;
 798:lib/STM32F10x_StdPeriph_Driver/src/stm32f10x_fsmc.c ****   }
 799:lib/STM32F10x_StdPeriph_Driver/src/stm32f10x_fsmc.c ****   /* FSMC_Bank4_PCCARD*/
 800:lib/STM32F10x_StdPeriph_Driver/src/stm32f10x_fsmc.c ****   else
 801:lib/STM32F10x_StdPeriph_Driver/src/stm32f10x_fsmc.c ****   {
 802:lib/STM32F10x_StdPeriph_Driver/src/stm32f10x_fsmc.c ****     tmpsr = FSMC_Bank4->SR4;
 1092              		.loc 1 802 0
 1093 03ea 5B68     		ldr	r3, [r3, #4]
 1094              	.LVL47:
 803:lib/STM32F10x_StdPeriph_Driver/src/stm32f10x_fsmc.c ****   } 
 804:lib/STM32F10x_StdPeriph_Driver/src/stm32f10x_fsmc.c ****   
 805:lib/STM32F10x_StdPeriph_Driver/src/stm32f10x_fsmc.c ****   itstatus = tmpsr & FSMC_IT;
 806:lib/STM32F10x_StdPeriph_Driver/src/stm32f10x_fsmc.c ****   
 807:lib/STM32F10x_StdPeriph_Driver/src/stm32f10x_fsmc.c ****   itenable = tmpsr & (FSMC_IT >> 3);
 808:lib/STM32F10x_StdPeriph_Driver/src/stm32f10x_fsmc.c ****   if ((itstatus != (uint32_t)RESET)  && (itenable != (uint32_t)RESET))
 1095              		.loc 1 808 0
 1096 03ec 13EA0100 		ands	r0, r3, r1
 1097              	.LVL48:
 1098 03f0 04D0     		beq	.L98
 1099              		.loc 1 808 0 is_stmt 0 discriminator 1
 1100 03f2 13EAD103 		ands	r3, r3, r1, lsr #3
 1101              	.LVL49:
 1102 03f6 14BF     		ite	ne
 1103 03f8 0120     		movne	r0, #1
 1104              	.LVL50:
 1105 03fa 0020     		moveq	r0, #0
 1106              	.L98:
 1107              	.LVL51:
 809:lib/STM32F10x_StdPeriph_Driver/src/stm32f10x_fsmc.c ****   {
 810:lib/STM32F10x_StdPeriph_Driver/src/stm32f10x_fsmc.c ****     bitstatus = SET;
 811:lib/STM32F10x_StdPeriph_Driver/src/stm32f10x_fsmc.c ****   }
 812:lib/STM32F10x_StdPeriph_Driver/src/stm32f10x_fsmc.c ****   else
 813:lib/STM32F10x_StdPeriph_Driver/src/stm32f10x_fsmc.c ****   {
 814:lib/STM32F10x_StdPeriph_Driver/src/stm32f10x_fsmc.c ****     bitstatus = RESET;
 815:lib/STM32F10x_StdPeriph_Driver/src/stm32f10x_fsmc.c ****   }
 816:lib/STM32F10x_StdPeriph_Driver/src/stm32f10x_fsmc.c ****   return bitstatus; 
 817:lib/STM32F10x_StdPeriph_Driver/src/stm32f10x_fsmc.c **** }
 1108              		.loc 1 817 0 is_stmt 1
 1109 03fc 7047     		bx	lr
 1110              	.LVL52:
 1111              	.L95:
 795:lib/STM32F10x_StdPeriph_Driver/src/stm32f10x_fsmc.c ****   {
 1112              		.loc 1 795 0
 1113 03fe B0F5807F 		cmp	r0, #256
 797:lib/STM32F10x_StdPeriph_Driver/src/stm32f10x_fsmc.c ****   }
 1114              		.loc 1 797 0
 1115 0402 0CBF     		ite	eq
 1116 0404 024B     		ldreq	r3, .L101+4
 802:lib/STM32F10x_StdPeriph_Driver/src/stm32f10x_fsmc.c ****   } 
 1117              		.loc 1 802 0
 1118 0406 034B     		ldrne	r3, .L101+8
 1119 0408 EFE7     		b	.L100
 1120              	.L102:
 1121 040a 00BF     		.align	2
 1122              	.L101:
 1123 040c 600000A0 		.word	-1610612640
 1124 0410 800000A0 		.word	-1610612608
 1125 0414 A00000A0 		.word	-1610612576
 1126              		.cfi_endproc
 1127              	.LFE46:
 1129              		.align	1
 1130              		.global	FSMC_ClearITPendingBit
 1131              		.syntax unified
 1132              		.thumb
 1133              		.thumb_func
 1134              		.fpu softvfp
 1136              	FSMC_ClearITPendingBit:
 1137              	.LFB47:
 818:lib/STM32F10x_StdPeriph_Driver/src/stm32f10x_fsmc.c **** 
 819:lib/STM32F10x_StdPeriph_Driver/src/stm32f10x_fsmc.c **** /**
 820:lib/STM32F10x_StdPeriph_Driver/src/stm32f10x_fsmc.c ****   * @brief  Clears the FSMC's interrupt pending bits.
 821:lib/STM32F10x_StdPeriph_Driver/src/stm32f10x_fsmc.c ****   * @param  FSMC_Bank: specifies the FSMC Bank to be used
 822:lib/STM32F10x_StdPeriph_Driver/src/stm32f10x_fsmc.c ****   *   This parameter can be one of the following values:
 823:lib/STM32F10x_StdPeriph_Driver/src/stm32f10x_fsmc.c ****   *     @arg FSMC_Bank2_NAND: FSMC Bank2 NAND 
 824:lib/STM32F10x_StdPeriph_Driver/src/stm32f10x_fsmc.c ****   *     @arg FSMC_Bank3_NAND: FSMC Bank3 NAND
 825:lib/STM32F10x_StdPeriph_Driver/src/stm32f10x_fsmc.c ****   *     @arg FSMC_Bank4_PCCARD: FSMC Bank4 PCCARD
 826:lib/STM32F10x_StdPeriph_Driver/src/stm32f10x_fsmc.c ****   * @param  FSMC_IT: specifies the interrupt pending bit to clear.
 827:lib/STM32F10x_StdPeriph_Driver/src/stm32f10x_fsmc.c ****   *   This parameter can be any combination of the following values:
 828:lib/STM32F10x_StdPeriph_Driver/src/stm32f10x_fsmc.c ****   *     @arg FSMC_IT_RisingEdge: Rising edge detection interrupt. 
 829:lib/STM32F10x_StdPeriph_Driver/src/stm32f10x_fsmc.c ****   *     @arg FSMC_IT_Level: Level edge detection interrupt.
 830:lib/STM32F10x_StdPeriph_Driver/src/stm32f10x_fsmc.c ****   *     @arg FSMC_IT_FallingEdge: Falling edge detection interrupt.
 831:lib/STM32F10x_StdPeriph_Driver/src/stm32f10x_fsmc.c ****   * @retval None
 832:lib/STM32F10x_StdPeriph_Driver/src/stm32f10x_fsmc.c ****   */
 833:lib/STM32F10x_StdPeriph_Driver/src/stm32f10x_fsmc.c **** void FSMC_ClearITPendingBit(uint32_t FSMC_Bank, uint32_t FSMC_IT)
 834:lib/STM32F10x_StdPeriph_Driver/src/stm32f10x_fsmc.c **** {
 1138              		.loc 1 834 0
 1139              		.cfi_startproc
 1140              		@ args = 0, pretend = 0, frame = 0
 1141              		@ frame_needed = 0, uses_anonymous_args = 0
 1142              		@ link register save eliminated.
 1143              	.LVL53:
 835:lib/STM32F10x_StdPeriph_Driver/src/stm32f10x_fsmc.c ****   /* Check the parameters */
 836:lib/STM32F10x_StdPeriph_Driver/src/stm32f10x_fsmc.c ****   assert_param(IS_FSMC_IT_BANK(FSMC_Bank));
 837:lib/STM32F10x_StdPeriph_Driver/src/stm32f10x_fsmc.c ****   assert_param(IS_FSMC_IT(FSMC_IT));
 838:lib/STM32F10x_StdPeriph_Driver/src/stm32f10x_fsmc.c ****     
 839:lib/STM32F10x_StdPeriph_Driver/src/stm32f10x_fsmc.c ****   if(FSMC_Bank == FSMC_Bank2_NAND)
 1144              		.loc 1 839 0
 1145 0418 1028     		cmp	r0, #16
 1146 041a 4FEAD101 		lsr	r1, r1, #3
 1147              	.LVL54:
 1148 041e 05D1     		bne	.L104
 840:lib/STM32F10x_StdPeriph_Driver/src/stm32f10x_fsmc.c ****   {
 841:lib/STM32F10x_StdPeriph_Driver/src/stm32f10x_fsmc.c ****     FSMC_Bank2->SR2 &= ~(FSMC_IT >> 3); 
 1149              		.loc 1 841 0
 1150 0420 054A     		ldr	r2, .L108
 1151              	.L107:
 842:lib/STM32F10x_StdPeriph_Driver/src/stm32f10x_fsmc.c ****   }  
 843:lib/STM32F10x_StdPeriph_Driver/src/stm32f10x_fsmc.c ****   else if(FSMC_Bank == FSMC_Bank3_NAND)
 844:lib/STM32F10x_StdPeriph_Driver/src/stm32f10x_fsmc.c ****   {
 845:lib/STM32F10x_StdPeriph_Driver/src/stm32f10x_fsmc.c ****     FSMC_Bank3->SR3 &= ~(FSMC_IT >> 3);
 846:lib/STM32F10x_StdPeriph_Driver/src/stm32f10x_fsmc.c ****   }
 847:lib/STM32F10x_StdPeriph_Driver/src/stm32f10x_fsmc.c ****   /* FSMC_Bank4_PCCARD*/
 848:lib/STM32F10x_StdPeriph_Driver/src/stm32f10x_fsmc.c ****   else
 849:lib/STM32F10x_StdPeriph_Driver/src/stm32f10x_fsmc.c ****   {
 850:lib/STM32F10x_StdPeriph_Driver/src/stm32f10x_fsmc.c ****     FSMC_Bank4->SR4 &= ~(FSMC_IT >> 3);
 1152              		.loc 1 850 0
 1153 0422 5368     		ldr	r3, [r2, #4]
 1154 0424 23EA0101 		bic	r1, r3, r1
 1155 0428 5160     		str	r1, [r2, #4]
 1156 042a 7047     		bx	lr
 1157              	.L104:
 843:lib/STM32F10x_StdPeriph_Driver/src/stm32f10x_fsmc.c ****   {
 1158              		.loc 1 843 0
 1159 042c B0F5807F 		cmp	r0, #256
 845:lib/STM32F10x_StdPeriph_Driver/src/stm32f10x_fsmc.c ****   }
 1160              		.loc 1 845 0
 1161 0430 0CBF     		ite	eq
 1162 0432 024A     		ldreq	r2, .L108+4
 1163              		.loc 1 850 0
 1164 0434 024A     		ldrne	r2, .L108+8
 1165 0436 F4E7     		b	.L107
 1166              	.L109:
 1167              		.align	2
 1168              	.L108:
 1169 0438 600000A0 		.word	-1610612640
 1170 043c 800000A0 		.word	-1610612608
 1171 0440 A00000A0 		.word	-1610612576
 1172              		.cfi_endproc
 1173              	.LFE47:
 1175              	.Letext0:
 1176              		.file 2 "/opt/gcc-arm/gcc-arm-none-eabi-6_2-2016q4/arm-none-eabi/include/machine/_default_types.h"
 1177              		.file 3 "/opt/gcc-arm/gcc-arm-none-eabi-6_2-2016q4/arm-none-eabi/include/sys/_stdint.h"
 1178              		.file 4 "./lib/CMSIS/CM3/CoreSupport/core_cm3.h"
 1179              		.file 5 "./lib/CMSIS/CM3/DeviceSupport/ST/STM32F10x/system_stm32f10x.h"
 1180              		.file 6 "./lib/CMSIS/CM3/DeviceSupport/ST/STM32F10x/stm32f10x.h"
 1181              		.file 7 "./lib/STM32F10x_StdPeriph_Driver/inc/stm32f10x_fsmc.h"