   1              		.cpu cortex-m3
   2              		.eabi_attribute 20, 1
   3              		.eabi_attribute 21, 1
   4              		.eabi_attribute 23, 3
   5              		.eabi_attribute 24, 1
   6              		.eabi_attribute 25, 1
   7              		.eabi_attribute 26, 1
   8              		.eabi_attribute 30, 4
   9              		.eabi_attribute 34, 1
  10              		.eabi_attribute 18, 4
  11              		.file	"stm32f10x_sdio.c"
  12              		.text
  13              	.Ltext0:
  14              		.cfi_sections	.debug_frame
  15              		.align	1
  16              		.global	SDIO_DeInit
  17              		.syntax unified
  18              		.thumb
  19              		.thumb_func
  20              		.fpu softvfp
  22              	SDIO_DeInit:
  23              	.LFB29:
  24              		.file 1 "lib/STM32F10x_StdPeriph_Driver/src/stm32f10x_sdio.c"
   1:lib/STM32F10x_StdPeriph_Driver/src/stm32f10x_sdio.c **** /**
   2:lib/STM32F10x_StdPeriph_Driver/src/stm32f10x_sdio.c ****   ******************************************************************************
   3:lib/STM32F10x_StdPeriph_Driver/src/stm32f10x_sdio.c ****   * @file    stm32f10x_sdio.c
   4:lib/STM32F10x_StdPeriph_Driver/src/stm32f10x_sdio.c ****   * @author  MCD Application Team
   5:lib/STM32F10x_StdPeriph_Driver/src/stm32f10x_sdio.c ****   * @version V3.5.0
   6:lib/STM32F10x_StdPeriph_Driver/src/stm32f10x_sdio.c ****   * @date    11-March-2011
   7:lib/STM32F10x_StdPeriph_Driver/src/stm32f10x_sdio.c ****   * @brief   This file provides all the SDIO firmware functions.
   8:lib/STM32F10x_StdPeriph_Driver/src/stm32f10x_sdio.c ****   ******************************************************************************
   9:lib/STM32F10x_StdPeriph_Driver/src/stm32f10x_sdio.c ****   * @attention
  10:lib/STM32F10x_StdPeriph_Driver/src/stm32f10x_sdio.c ****   *
  11:lib/STM32F10x_StdPeriph_Driver/src/stm32f10x_sdio.c ****   * THE PRESENT FIRMWARE WHICH IS FOR GUIDANCE ONLY AIMS AT PROVIDING CUSTOMERS
  12:lib/STM32F10x_StdPeriph_Driver/src/stm32f10x_sdio.c ****   * WITH CODING INFORMATION REGARDING THEIR PRODUCTS IN ORDER FOR THEM TO SAVE
  13:lib/STM32F10x_StdPeriph_Driver/src/stm32f10x_sdio.c ****   * TIME. AS A RESULT, STMICROELECTRONICS SHALL NOT BE HELD LIABLE FOR ANY
  14:lib/STM32F10x_StdPeriph_Driver/src/stm32f10x_sdio.c ****   * DIRECT, INDIRECT OR CONSEQUENTIAL DAMAGES WITH RESPECT TO ANY CLAIMS ARISING
  15:lib/STM32F10x_StdPeriph_Driver/src/stm32f10x_sdio.c ****   * FROM THE CONTENT OF SUCH FIRMWARE AND/OR THE USE MADE BY CUSTOMERS OF THE
  16:lib/STM32F10x_StdPeriph_Driver/src/stm32f10x_sdio.c ****   * CODING INFORMATION CONTAINED HEREIN IN CONNECTION WITH THEIR PRODUCTS.
  17:lib/STM32F10x_StdPeriph_Driver/src/stm32f10x_sdio.c ****   *
  18:lib/STM32F10x_StdPeriph_Driver/src/stm32f10x_sdio.c ****   * <h2><center>&copy; COPYRIGHT 2011 STMicroelectronics</center></h2>
  19:lib/STM32F10x_StdPeriph_Driver/src/stm32f10x_sdio.c ****   ******************************************************************************
  20:lib/STM32F10x_StdPeriph_Driver/src/stm32f10x_sdio.c ****   */
  21:lib/STM32F10x_StdPeriph_Driver/src/stm32f10x_sdio.c **** 
  22:lib/STM32F10x_StdPeriph_Driver/src/stm32f10x_sdio.c **** /* Includes ------------------------------------------------------------------*/
  23:lib/STM32F10x_StdPeriph_Driver/src/stm32f10x_sdio.c **** #include "stm32f10x_sdio.h"
  24:lib/STM32F10x_StdPeriph_Driver/src/stm32f10x_sdio.c **** #include "stm32f10x_rcc.h"
  25:lib/STM32F10x_StdPeriph_Driver/src/stm32f10x_sdio.c **** 
  26:lib/STM32F10x_StdPeriph_Driver/src/stm32f10x_sdio.c **** /** @addtogroup STM32F10x_StdPeriph_Driver
  27:lib/STM32F10x_StdPeriph_Driver/src/stm32f10x_sdio.c ****   * @{
  28:lib/STM32F10x_StdPeriph_Driver/src/stm32f10x_sdio.c ****   */
  29:lib/STM32F10x_StdPeriph_Driver/src/stm32f10x_sdio.c **** 
  30:lib/STM32F10x_StdPeriph_Driver/src/stm32f10x_sdio.c **** /** @defgroup SDIO 
  31:lib/STM32F10x_StdPeriph_Driver/src/stm32f10x_sdio.c ****   * @brief SDIO driver modules
  32:lib/STM32F10x_StdPeriph_Driver/src/stm32f10x_sdio.c ****   * @{
  33:lib/STM32F10x_StdPeriph_Driver/src/stm32f10x_sdio.c ****   */ 
  34:lib/STM32F10x_StdPeriph_Driver/src/stm32f10x_sdio.c **** 
  35:lib/STM32F10x_StdPeriph_Driver/src/stm32f10x_sdio.c **** /** @defgroup SDIO_Private_TypesDefinitions
  36:lib/STM32F10x_StdPeriph_Driver/src/stm32f10x_sdio.c ****   * @{
  37:lib/STM32F10x_StdPeriph_Driver/src/stm32f10x_sdio.c ****   */ 
  38:lib/STM32F10x_StdPeriph_Driver/src/stm32f10x_sdio.c **** 
  39:lib/STM32F10x_StdPeriph_Driver/src/stm32f10x_sdio.c **** /* ------------ SDIO registers bit address in the alias region ----------- */
  40:lib/STM32F10x_StdPeriph_Driver/src/stm32f10x_sdio.c **** #define SDIO_OFFSET                (SDIO_BASE - PERIPH_BASE)
  41:lib/STM32F10x_StdPeriph_Driver/src/stm32f10x_sdio.c **** 
  42:lib/STM32F10x_StdPeriph_Driver/src/stm32f10x_sdio.c **** /* --- CLKCR Register ---*/
  43:lib/STM32F10x_StdPeriph_Driver/src/stm32f10x_sdio.c **** 
  44:lib/STM32F10x_StdPeriph_Driver/src/stm32f10x_sdio.c **** /* Alias word address of CLKEN bit */
  45:lib/STM32F10x_StdPeriph_Driver/src/stm32f10x_sdio.c **** #define CLKCR_OFFSET              (SDIO_OFFSET + 0x04)
  46:lib/STM32F10x_StdPeriph_Driver/src/stm32f10x_sdio.c **** #define CLKEN_BitNumber           0x08
  47:lib/STM32F10x_StdPeriph_Driver/src/stm32f10x_sdio.c **** #define CLKCR_CLKEN_BB            (PERIPH_BB_BASE + (CLKCR_OFFSET * 32) + (CLKEN_BitNumber * 4))
  48:lib/STM32F10x_StdPeriph_Driver/src/stm32f10x_sdio.c **** 
  49:lib/STM32F10x_StdPeriph_Driver/src/stm32f10x_sdio.c **** /* --- CMD Register ---*/
  50:lib/STM32F10x_StdPeriph_Driver/src/stm32f10x_sdio.c **** 
  51:lib/STM32F10x_StdPeriph_Driver/src/stm32f10x_sdio.c **** /* Alias word address of SDIOSUSPEND bit */
  52:lib/STM32F10x_StdPeriph_Driver/src/stm32f10x_sdio.c **** #define CMD_OFFSET                (SDIO_OFFSET + 0x0C)
  53:lib/STM32F10x_StdPeriph_Driver/src/stm32f10x_sdio.c **** #define SDIOSUSPEND_BitNumber     0x0B
  54:lib/STM32F10x_StdPeriph_Driver/src/stm32f10x_sdio.c **** #define CMD_SDIOSUSPEND_BB        (PERIPH_BB_BASE + (CMD_OFFSET * 32) + (SDIOSUSPEND_BitNumber * 4)
  55:lib/STM32F10x_StdPeriph_Driver/src/stm32f10x_sdio.c **** 
  56:lib/STM32F10x_StdPeriph_Driver/src/stm32f10x_sdio.c **** /* Alias word address of ENCMDCOMPL bit */
  57:lib/STM32F10x_StdPeriph_Driver/src/stm32f10x_sdio.c **** #define ENCMDCOMPL_BitNumber      0x0C
  58:lib/STM32F10x_StdPeriph_Driver/src/stm32f10x_sdio.c **** #define CMD_ENCMDCOMPL_BB         (PERIPH_BB_BASE + (CMD_OFFSET * 32) + (ENCMDCOMPL_BitNumber * 4))
  59:lib/STM32F10x_StdPeriph_Driver/src/stm32f10x_sdio.c **** 
  60:lib/STM32F10x_StdPeriph_Driver/src/stm32f10x_sdio.c **** /* Alias word address of NIEN bit */
  61:lib/STM32F10x_StdPeriph_Driver/src/stm32f10x_sdio.c **** #define NIEN_BitNumber            0x0D
  62:lib/STM32F10x_StdPeriph_Driver/src/stm32f10x_sdio.c **** #define CMD_NIEN_BB               (PERIPH_BB_BASE + (CMD_OFFSET * 32) + (NIEN_BitNumber * 4))
  63:lib/STM32F10x_StdPeriph_Driver/src/stm32f10x_sdio.c **** 
  64:lib/STM32F10x_StdPeriph_Driver/src/stm32f10x_sdio.c **** /* Alias word address of ATACMD bit */
  65:lib/STM32F10x_StdPeriph_Driver/src/stm32f10x_sdio.c **** #define ATACMD_BitNumber          0x0E
  66:lib/STM32F10x_StdPeriph_Driver/src/stm32f10x_sdio.c **** #define CMD_ATACMD_BB             (PERIPH_BB_BASE + (CMD_OFFSET * 32) + (ATACMD_BitNumber * 4))
  67:lib/STM32F10x_StdPeriph_Driver/src/stm32f10x_sdio.c **** 
  68:lib/STM32F10x_StdPeriph_Driver/src/stm32f10x_sdio.c **** /* --- DCTRL Register ---*/
  69:lib/STM32F10x_StdPeriph_Driver/src/stm32f10x_sdio.c **** 
  70:lib/STM32F10x_StdPeriph_Driver/src/stm32f10x_sdio.c **** /* Alias word address of DMAEN bit */
  71:lib/STM32F10x_StdPeriph_Driver/src/stm32f10x_sdio.c **** #define DCTRL_OFFSET              (SDIO_OFFSET + 0x2C)
  72:lib/STM32F10x_StdPeriph_Driver/src/stm32f10x_sdio.c **** #define DMAEN_BitNumber           0x03
  73:lib/STM32F10x_StdPeriph_Driver/src/stm32f10x_sdio.c **** #define DCTRL_DMAEN_BB            (PERIPH_BB_BASE + (DCTRL_OFFSET * 32) + (DMAEN_BitNumber * 4))
  74:lib/STM32F10x_StdPeriph_Driver/src/stm32f10x_sdio.c **** 
  75:lib/STM32F10x_StdPeriph_Driver/src/stm32f10x_sdio.c **** /* Alias word address of RWSTART bit */
  76:lib/STM32F10x_StdPeriph_Driver/src/stm32f10x_sdio.c **** #define RWSTART_BitNumber         0x08
  77:lib/STM32F10x_StdPeriph_Driver/src/stm32f10x_sdio.c **** #define DCTRL_RWSTART_BB          (PERIPH_BB_BASE + (DCTRL_OFFSET * 32) + (RWSTART_BitNumber * 4))
  78:lib/STM32F10x_StdPeriph_Driver/src/stm32f10x_sdio.c **** 
  79:lib/STM32F10x_StdPeriph_Driver/src/stm32f10x_sdio.c **** /* Alias word address of RWSTOP bit */
  80:lib/STM32F10x_StdPeriph_Driver/src/stm32f10x_sdio.c **** #define RWSTOP_BitNumber          0x09
  81:lib/STM32F10x_StdPeriph_Driver/src/stm32f10x_sdio.c **** #define DCTRL_RWSTOP_BB           (PERIPH_BB_BASE + (DCTRL_OFFSET * 32) + (RWSTOP_BitNumber * 4))
  82:lib/STM32F10x_StdPeriph_Driver/src/stm32f10x_sdio.c **** 
  83:lib/STM32F10x_StdPeriph_Driver/src/stm32f10x_sdio.c **** /* Alias word address of RWMOD bit */
  84:lib/STM32F10x_StdPeriph_Driver/src/stm32f10x_sdio.c **** #define RWMOD_BitNumber           0x0A
  85:lib/STM32F10x_StdPeriph_Driver/src/stm32f10x_sdio.c **** #define DCTRL_RWMOD_BB            (PERIPH_BB_BASE + (DCTRL_OFFSET * 32) + (RWMOD_BitNumber * 4))
  86:lib/STM32F10x_StdPeriph_Driver/src/stm32f10x_sdio.c **** 
  87:lib/STM32F10x_StdPeriph_Driver/src/stm32f10x_sdio.c **** /* Alias word address of SDIOEN bit */
  88:lib/STM32F10x_StdPeriph_Driver/src/stm32f10x_sdio.c **** #define SDIOEN_BitNumber          0x0B
  89:lib/STM32F10x_StdPeriph_Driver/src/stm32f10x_sdio.c **** #define DCTRL_SDIOEN_BB           (PERIPH_BB_BASE + (DCTRL_OFFSET * 32) + (SDIOEN_BitNumber * 4))
  90:lib/STM32F10x_StdPeriph_Driver/src/stm32f10x_sdio.c **** 
  91:lib/STM32F10x_StdPeriph_Driver/src/stm32f10x_sdio.c **** /* ---------------------- SDIO registers bit mask ------------------------ */
  92:lib/STM32F10x_StdPeriph_Driver/src/stm32f10x_sdio.c **** 
  93:lib/STM32F10x_StdPeriph_Driver/src/stm32f10x_sdio.c **** /* --- CLKCR Register ---*/
  94:lib/STM32F10x_StdPeriph_Driver/src/stm32f10x_sdio.c **** 
  95:lib/STM32F10x_StdPeriph_Driver/src/stm32f10x_sdio.c **** /* CLKCR register clear mask */
  96:lib/STM32F10x_StdPeriph_Driver/src/stm32f10x_sdio.c **** #define CLKCR_CLEAR_MASK         ((uint32_t)0xFFFF8100) 
  97:lib/STM32F10x_StdPeriph_Driver/src/stm32f10x_sdio.c **** 
  98:lib/STM32F10x_StdPeriph_Driver/src/stm32f10x_sdio.c **** /* --- PWRCTRL Register ---*/
  99:lib/STM32F10x_StdPeriph_Driver/src/stm32f10x_sdio.c **** 
 100:lib/STM32F10x_StdPeriph_Driver/src/stm32f10x_sdio.c **** /* SDIO PWRCTRL Mask */
 101:lib/STM32F10x_StdPeriph_Driver/src/stm32f10x_sdio.c **** #define PWR_PWRCTRL_MASK         ((uint32_t)0xFFFFFFFC)
 102:lib/STM32F10x_StdPeriph_Driver/src/stm32f10x_sdio.c **** 
 103:lib/STM32F10x_StdPeriph_Driver/src/stm32f10x_sdio.c **** /* --- DCTRL Register ---*/
 104:lib/STM32F10x_StdPeriph_Driver/src/stm32f10x_sdio.c **** 
 105:lib/STM32F10x_StdPeriph_Driver/src/stm32f10x_sdio.c **** /* SDIO DCTRL Clear Mask */
 106:lib/STM32F10x_StdPeriph_Driver/src/stm32f10x_sdio.c **** #define DCTRL_CLEAR_MASK         ((uint32_t)0xFFFFFF08)
 107:lib/STM32F10x_StdPeriph_Driver/src/stm32f10x_sdio.c **** 
 108:lib/STM32F10x_StdPeriph_Driver/src/stm32f10x_sdio.c **** /* --- CMD Register ---*/
 109:lib/STM32F10x_StdPeriph_Driver/src/stm32f10x_sdio.c **** 
 110:lib/STM32F10x_StdPeriph_Driver/src/stm32f10x_sdio.c **** /* CMD Register clear mask */
 111:lib/STM32F10x_StdPeriph_Driver/src/stm32f10x_sdio.c **** #define CMD_CLEAR_MASK           ((uint32_t)0xFFFFF800)
 112:lib/STM32F10x_StdPeriph_Driver/src/stm32f10x_sdio.c **** 
 113:lib/STM32F10x_StdPeriph_Driver/src/stm32f10x_sdio.c **** /* SDIO RESP Registers Address */
 114:lib/STM32F10x_StdPeriph_Driver/src/stm32f10x_sdio.c **** #define SDIO_RESP_ADDR           ((uint32_t)(SDIO_BASE + 0x14))
 115:lib/STM32F10x_StdPeriph_Driver/src/stm32f10x_sdio.c **** 
 116:lib/STM32F10x_StdPeriph_Driver/src/stm32f10x_sdio.c **** /**
 117:lib/STM32F10x_StdPeriph_Driver/src/stm32f10x_sdio.c ****   * @}
 118:lib/STM32F10x_StdPeriph_Driver/src/stm32f10x_sdio.c ****   */
 119:lib/STM32F10x_StdPeriph_Driver/src/stm32f10x_sdio.c **** 
 120:lib/STM32F10x_StdPeriph_Driver/src/stm32f10x_sdio.c **** /** @defgroup SDIO_Private_Defines
 121:lib/STM32F10x_StdPeriph_Driver/src/stm32f10x_sdio.c ****   * @{
 122:lib/STM32F10x_StdPeriph_Driver/src/stm32f10x_sdio.c ****   */
 123:lib/STM32F10x_StdPeriph_Driver/src/stm32f10x_sdio.c **** 
 124:lib/STM32F10x_StdPeriph_Driver/src/stm32f10x_sdio.c **** /**
 125:lib/STM32F10x_StdPeriph_Driver/src/stm32f10x_sdio.c ****   * @}
 126:lib/STM32F10x_StdPeriph_Driver/src/stm32f10x_sdio.c ****   */
 127:lib/STM32F10x_StdPeriph_Driver/src/stm32f10x_sdio.c **** 
 128:lib/STM32F10x_StdPeriph_Driver/src/stm32f10x_sdio.c **** /** @defgroup SDIO_Private_Macros
 129:lib/STM32F10x_StdPeriph_Driver/src/stm32f10x_sdio.c ****   * @{
 130:lib/STM32F10x_StdPeriph_Driver/src/stm32f10x_sdio.c ****   */
 131:lib/STM32F10x_StdPeriph_Driver/src/stm32f10x_sdio.c **** 
 132:lib/STM32F10x_StdPeriph_Driver/src/stm32f10x_sdio.c **** /**
 133:lib/STM32F10x_StdPeriph_Driver/src/stm32f10x_sdio.c ****   * @}
 134:lib/STM32F10x_StdPeriph_Driver/src/stm32f10x_sdio.c ****   */
 135:lib/STM32F10x_StdPeriph_Driver/src/stm32f10x_sdio.c **** 
 136:lib/STM32F10x_StdPeriph_Driver/src/stm32f10x_sdio.c **** /** @defgroup SDIO_Private_Variables
 137:lib/STM32F10x_StdPeriph_Driver/src/stm32f10x_sdio.c ****   * @{
 138:lib/STM32F10x_StdPeriph_Driver/src/stm32f10x_sdio.c ****   */
 139:lib/STM32F10x_StdPeriph_Driver/src/stm32f10x_sdio.c **** 
 140:lib/STM32F10x_StdPeriph_Driver/src/stm32f10x_sdio.c **** /**
 141:lib/STM32F10x_StdPeriph_Driver/src/stm32f10x_sdio.c ****   * @}
 142:lib/STM32F10x_StdPeriph_Driver/src/stm32f10x_sdio.c ****   */
 143:lib/STM32F10x_StdPeriph_Driver/src/stm32f10x_sdio.c **** 
 144:lib/STM32F10x_StdPeriph_Driver/src/stm32f10x_sdio.c **** /** @defgroup SDIO_Private_FunctionPrototypes
 145:lib/STM32F10x_StdPeriph_Driver/src/stm32f10x_sdio.c ****   * @{
 146:lib/STM32F10x_StdPeriph_Driver/src/stm32f10x_sdio.c ****   */
 147:lib/STM32F10x_StdPeriph_Driver/src/stm32f10x_sdio.c **** 
 148:lib/STM32F10x_StdPeriph_Driver/src/stm32f10x_sdio.c **** /**
 149:lib/STM32F10x_StdPeriph_Driver/src/stm32f10x_sdio.c ****   * @}
 150:lib/STM32F10x_StdPeriph_Driver/src/stm32f10x_sdio.c ****   */
 151:lib/STM32F10x_StdPeriph_Driver/src/stm32f10x_sdio.c **** 
 152:lib/STM32F10x_StdPeriph_Driver/src/stm32f10x_sdio.c **** /** @defgroup SDIO_Private_Functions
 153:lib/STM32F10x_StdPeriph_Driver/src/stm32f10x_sdio.c ****   * @{
 154:lib/STM32F10x_StdPeriph_Driver/src/stm32f10x_sdio.c ****   */
 155:lib/STM32F10x_StdPeriph_Driver/src/stm32f10x_sdio.c **** 
 156:lib/STM32F10x_StdPeriph_Driver/src/stm32f10x_sdio.c **** /**
 157:lib/STM32F10x_StdPeriph_Driver/src/stm32f10x_sdio.c ****   * @brief  Deinitializes the SDIO peripheral registers to their default reset values.
 158:lib/STM32F10x_StdPeriph_Driver/src/stm32f10x_sdio.c ****   * @param  None
 159:lib/STM32F10x_StdPeriph_Driver/src/stm32f10x_sdio.c ****   * @retval None
 160:lib/STM32F10x_StdPeriph_Driver/src/stm32f10x_sdio.c ****   */
 161:lib/STM32F10x_StdPeriph_Driver/src/stm32f10x_sdio.c **** void SDIO_DeInit(void)
 162:lib/STM32F10x_StdPeriph_Driver/src/stm32f10x_sdio.c **** {
  25              		.loc 1 162 0
  26              		.cfi_startproc
  27              		@ args = 0, pretend = 0, frame = 0
  28              		@ frame_needed = 0, uses_anonymous_args = 0
  29              		@ link register save eliminated.
 163:lib/STM32F10x_StdPeriph_Driver/src/stm32f10x_sdio.c ****   SDIO->POWER = 0x00000000;
  30              		.loc 1 163 0
  31 0000 0022     		movs	r2, #0
  32 0002 064B     		ldr	r3, .L2
 164:lib/STM32F10x_StdPeriph_Driver/src/stm32f10x_sdio.c ****   SDIO->CLKCR = 0x00000000;
 165:lib/STM32F10x_StdPeriph_Driver/src/stm32f10x_sdio.c ****   SDIO->ARG = 0x00000000;
 166:lib/STM32F10x_StdPeriph_Driver/src/stm32f10x_sdio.c ****   SDIO->CMD = 0x00000000;
 167:lib/STM32F10x_StdPeriph_Driver/src/stm32f10x_sdio.c ****   SDIO->DTIMER = 0x00000000;
 168:lib/STM32F10x_StdPeriph_Driver/src/stm32f10x_sdio.c ****   SDIO->DLEN = 0x00000000;
 169:lib/STM32F10x_StdPeriph_Driver/src/stm32f10x_sdio.c ****   SDIO->DCTRL = 0x00000000;
 170:lib/STM32F10x_StdPeriph_Driver/src/stm32f10x_sdio.c ****   SDIO->ICR = 0x00C007FF;
  33              		.loc 1 170 0
  34 0004 0649     		ldr	r1, .L2+4
 163:lib/STM32F10x_StdPeriph_Driver/src/stm32f10x_sdio.c ****   SDIO->POWER = 0x00000000;
  35              		.loc 1 163 0
  36 0006 1A60     		str	r2, [r3]
 164:lib/STM32F10x_StdPeriph_Driver/src/stm32f10x_sdio.c ****   SDIO->CLKCR = 0x00000000;
  37              		.loc 1 164 0
  38 0008 5A60     		str	r2, [r3, #4]
 165:lib/STM32F10x_StdPeriph_Driver/src/stm32f10x_sdio.c ****   SDIO->CMD = 0x00000000;
  39              		.loc 1 165 0
  40 000a 9A60     		str	r2, [r3, #8]
 166:lib/STM32F10x_StdPeriph_Driver/src/stm32f10x_sdio.c ****   SDIO->DTIMER = 0x00000000;
  41              		.loc 1 166 0
  42 000c DA60     		str	r2, [r3, #12]
 167:lib/STM32F10x_StdPeriph_Driver/src/stm32f10x_sdio.c ****   SDIO->DLEN = 0x00000000;
  43              		.loc 1 167 0
  44 000e 5A62     		str	r2, [r3, #36]
 168:lib/STM32F10x_StdPeriph_Driver/src/stm32f10x_sdio.c ****   SDIO->DCTRL = 0x00000000;
  45              		.loc 1 168 0
  46 0010 9A62     		str	r2, [r3, #40]
 169:lib/STM32F10x_StdPeriph_Driver/src/stm32f10x_sdio.c ****   SDIO->ICR = 0x00C007FF;
  47              		.loc 1 169 0
  48 0012 DA62     		str	r2, [r3, #44]
  49              		.loc 1 170 0
  50 0014 9963     		str	r1, [r3, #56]
 171:lib/STM32F10x_StdPeriph_Driver/src/stm32f10x_sdio.c ****   SDIO->MASK = 0x00000000;
  51              		.loc 1 171 0
  52 0016 DA63     		str	r2, [r3, #60]
  53 0018 7047     		bx	lr
  54              	.L3:
  55 001a 00BF     		.align	2
  56              	.L2:
  57 001c 00800140 		.word	1073840128
  58 0020 FF07C000 		.word	12584959
  59              		.cfi_endproc
  60              	.LFE29:
  62              		.align	1
  63              		.global	SDIO_Init
  64              		.syntax unified
  65              		.thumb
  66              		.thumb_func
  67              		.fpu softvfp
  69              	SDIO_Init:
  70              	.LFB30:
 172:lib/STM32F10x_StdPeriph_Driver/src/stm32f10x_sdio.c **** }
 173:lib/STM32F10x_StdPeriph_Driver/src/stm32f10x_sdio.c **** 
 174:lib/STM32F10x_StdPeriph_Driver/src/stm32f10x_sdio.c **** /**
 175:lib/STM32F10x_StdPeriph_Driver/src/stm32f10x_sdio.c ****   * @brief  Initializes the SDIO peripheral according to the specified 
 176:lib/STM32F10x_StdPeriph_Driver/src/stm32f10x_sdio.c ****   *         parameters in the SDIO_InitStruct.
 177:lib/STM32F10x_StdPeriph_Driver/src/stm32f10x_sdio.c ****   * @param  SDIO_InitStruct : pointer to a SDIO_InitTypeDef structure 
 178:lib/STM32F10x_StdPeriph_Driver/src/stm32f10x_sdio.c ****   *         that contains the configuration information for the SDIO peripheral.
 179:lib/STM32F10x_StdPeriph_Driver/src/stm32f10x_sdio.c ****   * @retval None
 180:lib/STM32F10x_StdPeriph_Driver/src/stm32f10x_sdio.c ****   */
 181:lib/STM32F10x_StdPeriph_Driver/src/stm32f10x_sdio.c **** void SDIO_Init(SDIO_InitTypeDef* SDIO_InitStruct)
 182:lib/STM32F10x_StdPeriph_Driver/src/stm32f10x_sdio.c **** {
  71              		.loc 1 182 0
  72              		.cfi_startproc
  73              		@ args = 0, pretend = 0, frame = 0
  74              		@ frame_needed = 0, uses_anonymous_args = 0
  75              	.LVL0:
 183:lib/STM32F10x_StdPeriph_Driver/src/stm32f10x_sdio.c ****   uint32_t tmpreg = 0;
 184:lib/STM32F10x_StdPeriph_Driver/src/stm32f10x_sdio.c ****     
 185:lib/STM32F10x_StdPeriph_Driver/src/stm32f10x_sdio.c ****   /* Check the parameters */
 186:lib/STM32F10x_StdPeriph_Driver/src/stm32f10x_sdio.c ****   assert_param(IS_SDIO_CLOCK_EDGE(SDIO_InitStruct->SDIO_ClockEdge));
 187:lib/STM32F10x_StdPeriph_Driver/src/stm32f10x_sdio.c ****   assert_param(IS_SDIO_CLOCK_BYPASS(SDIO_InitStruct->SDIO_ClockBypass));
 188:lib/STM32F10x_StdPeriph_Driver/src/stm32f10x_sdio.c ****   assert_param(IS_SDIO_CLOCK_POWER_SAVE(SDIO_InitStruct->SDIO_ClockPowerSave));
 189:lib/STM32F10x_StdPeriph_Driver/src/stm32f10x_sdio.c ****   assert_param(IS_SDIO_BUS_WIDE(SDIO_InitStruct->SDIO_BusWide));
 190:lib/STM32F10x_StdPeriph_Driver/src/stm32f10x_sdio.c ****   assert_param(IS_SDIO_HARDWARE_FLOW_CONTROL(SDIO_InitStruct->SDIO_HardwareFlowControl)); 
 191:lib/STM32F10x_StdPeriph_Driver/src/stm32f10x_sdio.c ****    
 192:lib/STM32F10x_StdPeriph_Driver/src/stm32f10x_sdio.c **** /*---------------------------- SDIO CLKCR Configuration ------------------------*/  
 193:lib/STM32F10x_StdPeriph_Driver/src/stm32f10x_sdio.c ****   /* Get the SDIO CLKCR value */
 194:lib/STM32F10x_StdPeriph_Driver/src/stm32f10x_sdio.c ****   tmpreg = SDIO->CLKCR;
  76              		.loc 1 194 0
  77 0024 0A49     		ldr	r1, .L5
 182:lib/STM32F10x_StdPeriph_Driver/src/stm32f10x_sdio.c ****   uint32_t tmpreg = 0;
  78              		.loc 1 182 0
  79 0026 10B5     		push	{r4, lr}
  80              	.LCFI0:
  81              		.cfi_def_cfa_offset 8
  82              		.cfi_offset 4, -8
  83              		.cfi_offset 14, -4
  84              		.loc 1 194 0
  85 0028 4A68     		ldr	r2, [r1, #4]
  86              	.LVL1:
  87 002a 8368     		ldr	r3, [r0, #8]
  88 002c 4468     		ldr	r4, [r0, #4]
 195:lib/STM32F10x_StdPeriph_Driver/src/stm32f10x_sdio.c ****   
 196:lib/STM32F10x_StdPeriph_Driver/src/stm32f10x_sdio.c ****   /* Clear CLKDIV, PWRSAV, BYPASS, WIDBUS, NEGEDGE, HWFC_EN bits */
 197:lib/STM32F10x_StdPeriph_Driver/src/stm32f10x_sdio.c ****   tmpreg &= CLKCR_CLEAR_MASK;
  89              		.loc 1 197 0
  90 002e 22F4FD42 		bic	r2, r2, #32384
  91              	.LVL2:
  92 0032 22F07F02 		bic	r2, r2, #127
  93 0036 2343     		orrs	r3, r3, r4
  94 0038 1343     		orrs	r3, r3, r2
  95 003a C268     		ldr	r2, [r0, #12]
  96 003c 1343     		orrs	r3, r3, r2
  97 003e 0268     		ldr	r2, [r0]
  98 0040 1343     		orrs	r3, r3, r2
  99 0042 0269     		ldr	r2, [r0, #16]
 100 0044 1343     		orrs	r3, r3, r2
 198:lib/STM32F10x_StdPeriph_Driver/src/stm32f10x_sdio.c ****   
 199:lib/STM32F10x_StdPeriph_Driver/src/stm32f10x_sdio.c ****   /* Set CLKDIV bits according to SDIO_ClockDiv value */
 200:lib/STM32F10x_StdPeriph_Driver/src/stm32f10x_sdio.c ****   /* Set PWRSAV bit according to SDIO_ClockPowerSave value */
 201:lib/STM32F10x_StdPeriph_Driver/src/stm32f10x_sdio.c ****   /* Set BYPASS bit according to SDIO_ClockBypass value */
 202:lib/STM32F10x_StdPeriph_Driver/src/stm32f10x_sdio.c ****   /* Set WIDBUS bits according to SDIO_BusWide value */
 203:lib/STM32F10x_StdPeriph_Driver/src/stm32f10x_sdio.c ****   /* Set NEGEDGE bits according to SDIO_ClockEdge value */
 204:lib/STM32F10x_StdPeriph_Driver/src/stm32f10x_sdio.c ****   /* Set HWFC_EN bits according to SDIO_HardwareFlowControl value */
 205:lib/STM32F10x_StdPeriph_Driver/src/stm32f10x_sdio.c ****   tmpreg |= (SDIO_InitStruct->SDIO_ClockDiv  | SDIO_InitStruct->SDIO_ClockPowerSave |
 101              		.loc 1 205 0
 102 0046 027D     		ldrb	r2, [r0, #20]	@ zero_extendqisi2
 103 0048 1343     		orrs	r3, r3, r2
 104              	.LVL3:
 206:lib/STM32F10x_StdPeriph_Driver/src/stm32f10x_sdio.c ****              SDIO_InitStruct->SDIO_ClockBypass | SDIO_InitStruct->SDIO_BusWide |
 207:lib/STM32F10x_StdPeriph_Driver/src/stm32f10x_sdio.c ****              SDIO_InitStruct->SDIO_ClockEdge | SDIO_InitStruct->SDIO_HardwareFlowControl); 
 208:lib/STM32F10x_StdPeriph_Driver/src/stm32f10x_sdio.c ****   
 209:lib/STM32F10x_StdPeriph_Driver/src/stm32f10x_sdio.c ****   /* Write to SDIO CLKCR */
 210:lib/STM32F10x_StdPeriph_Driver/src/stm32f10x_sdio.c ****   SDIO->CLKCR = tmpreg;
 105              		.loc 1 210 0
 106 004a 4B60     		str	r3, [r1, #4]
 107 004c 10BD     		pop	{r4, pc}
 108              	.L6:
 109 004e 00BF     		.align	2
 110              	.L5:
 111 0050 00800140 		.word	1073840128
 112              		.cfi_endproc
 113              	.LFE30:
 115              		.align	1
 116              		.global	SDIO_StructInit
 117              		.syntax unified
 118              		.thumb
 119              		.thumb_func
 120              		.fpu softvfp
 122              	SDIO_StructInit:
 123              	.LFB31:
 211:lib/STM32F10x_StdPeriph_Driver/src/stm32f10x_sdio.c **** }
 212:lib/STM32F10x_StdPeriph_Driver/src/stm32f10x_sdio.c **** 
 213:lib/STM32F10x_StdPeriph_Driver/src/stm32f10x_sdio.c **** /**
 214:lib/STM32F10x_StdPeriph_Driver/src/stm32f10x_sdio.c ****   * @brief  Fills each SDIO_InitStruct member with its default value.
 215:lib/STM32F10x_StdPeriph_Driver/src/stm32f10x_sdio.c ****   * @param  SDIO_InitStruct: pointer to an SDIO_InitTypeDef structure which 
 216:lib/STM32F10x_StdPeriph_Driver/src/stm32f10x_sdio.c ****   *   will be initialized.
 217:lib/STM32F10x_StdPeriph_Driver/src/stm32f10x_sdio.c ****   * @retval None
 218:lib/STM32F10x_StdPeriph_Driver/src/stm32f10x_sdio.c ****   */
 219:lib/STM32F10x_StdPeriph_Driver/src/stm32f10x_sdio.c **** void SDIO_StructInit(SDIO_InitTypeDef* SDIO_InitStruct)
 220:lib/STM32F10x_StdPeriph_Driver/src/stm32f10x_sdio.c **** {
 124              		.loc 1 220 0
 125              		.cfi_startproc
 126              		@ args = 0, pretend = 0, frame = 0
 127              		@ frame_needed = 0, uses_anonymous_args = 0
 128              		@ link register save eliminated.
 129              	.LVL4:
 221:lib/STM32F10x_StdPeriph_Driver/src/stm32f10x_sdio.c ****   /* SDIO_InitStruct members default value */
 222:lib/STM32F10x_StdPeriph_Driver/src/stm32f10x_sdio.c ****   SDIO_InitStruct->SDIO_ClockDiv = 0x00;
 130              		.loc 1 222 0
 131 0054 0023     		movs	r3, #0
 132 0056 0375     		strb	r3, [r0, #20]
 223:lib/STM32F10x_StdPeriph_Driver/src/stm32f10x_sdio.c ****   SDIO_InitStruct->SDIO_ClockEdge = SDIO_ClockEdge_Rising;
 133              		.loc 1 223 0
 134 0058 0360     		str	r3, [r0]
 224:lib/STM32F10x_StdPeriph_Driver/src/stm32f10x_sdio.c ****   SDIO_InitStruct->SDIO_ClockBypass = SDIO_ClockBypass_Disable;
 135              		.loc 1 224 0
 136 005a 4360     		str	r3, [r0, #4]
 225:lib/STM32F10x_StdPeriph_Driver/src/stm32f10x_sdio.c ****   SDIO_InitStruct->SDIO_ClockPowerSave = SDIO_ClockPowerSave_Disable;
 137              		.loc 1 225 0
 138 005c 8360     		str	r3, [r0, #8]
 226:lib/STM32F10x_StdPeriph_Driver/src/stm32f10x_sdio.c ****   SDIO_InitStruct->SDIO_BusWide = SDIO_BusWide_1b;
 139              		.loc 1 226 0
 140 005e C360     		str	r3, [r0, #12]
 227:lib/STM32F10x_StdPeriph_Driver/src/stm32f10x_sdio.c ****   SDIO_InitStruct->SDIO_HardwareFlowControl = SDIO_HardwareFlowControl_Disable;
 141              		.loc 1 227 0
 142 0060 0361     		str	r3, [r0, #16]
 143 0062 7047     		bx	lr
 144              		.cfi_endproc
 145              	.LFE31:
 147              		.align	1
 148              		.global	SDIO_ClockCmd
 149              		.syntax unified
 150              		.thumb
 151              		.thumb_func
 152              		.fpu softvfp
 154              	SDIO_ClockCmd:
 155              	.LFB32:
 228:lib/STM32F10x_StdPeriph_Driver/src/stm32f10x_sdio.c **** }
 229:lib/STM32F10x_StdPeriph_Driver/src/stm32f10x_sdio.c **** 
 230:lib/STM32F10x_StdPeriph_Driver/src/stm32f10x_sdio.c **** /**
 231:lib/STM32F10x_StdPeriph_Driver/src/stm32f10x_sdio.c ****   * @brief  Enables or disables the SDIO Clock.
 232:lib/STM32F10x_StdPeriph_Driver/src/stm32f10x_sdio.c ****   * @param  NewState: new state of the SDIO Clock. This parameter can be: ENABLE or DISABLE.
 233:lib/STM32F10x_StdPeriph_Driver/src/stm32f10x_sdio.c ****   * @retval None
 234:lib/STM32F10x_StdPeriph_Driver/src/stm32f10x_sdio.c ****   */
 235:lib/STM32F10x_StdPeriph_Driver/src/stm32f10x_sdio.c **** void SDIO_ClockCmd(FunctionalState NewState)
 236:lib/STM32F10x_StdPeriph_Driver/src/stm32f10x_sdio.c **** {
 156              		.loc 1 236 0
 157              		.cfi_startproc
 158              		@ args = 0, pretend = 0, frame = 0
 159              		@ frame_needed = 0, uses_anonymous_args = 0
 160              		@ link register save eliminated.
 161              	.LVL5:
 237:lib/STM32F10x_StdPeriph_Driver/src/stm32f10x_sdio.c ****   /* Check the parameters */
 238:lib/STM32F10x_StdPeriph_Driver/src/stm32f10x_sdio.c ****   assert_param(IS_FUNCTIONAL_STATE(NewState));
 239:lib/STM32F10x_StdPeriph_Driver/src/stm32f10x_sdio.c ****   
 240:lib/STM32F10x_StdPeriph_Driver/src/stm32f10x_sdio.c ****   *(__IO uint32_t *) CLKCR_CLKEN_BB = (uint32_t)NewState;
 162              		.loc 1 240 0
 163 0064 014B     		ldr	r3, .L9
 164 0066 1860     		str	r0, [r3]
 165 0068 7047     		bx	lr
 166              	.L10:
 167 006a 00BF     		.align	2
 168              	.L9:
 169 006c A0003042 		.word	1110442144
 170              		.cfi_endproc
 171              	.LFE32:
 173              		.align	1
 174              		.global	SDIO_SetPowerState
 175              		.syntax unified
 176              		.thumb
 177              		.thumb_func
 178              		.fpu softvfp
 180              	SDIO_SetPowerState:
 181              	.LFB33:
 241:lib/STM32F10x_StdPeriph_Driver/src/stm32f10x_sdio.c **** }
 242:lib/STM32F10x_StdPeriph_Driver/src/stm32f10x_sdio.c **** 
 243:lib/STM32F10x_StdPeriph_Driver/src/stm32f10x_sdio.c **** /**
 244:lib/STM32F10x_StdPeriph_Driver/src/stm32f10x_sdio.c ****   * @brief  Sets the power status of the controller.
 245:lib/STM32F10x_StdPeriph_Driver/src/stm32f10x_sdio.c ****   * @param  SDIO_PowerState: new state of the Power state. 
 246:lib/STM32F10x_StdPeriph_Driver/src/stm32f10x_sdio.c ****   *   This parameter can be one of the following values:
 247:lib/STM32F10x_StdPeriph_Driver/src/stm32f10x_sdio.c ****   *     @arg SDIO_PowerState_OFF
 248:lib/STM32F10x_StdPeriph_Driver/src/stm32f10x_sdio.c ****   *     @arg SDIO_PowerState_ON
 249:lib/STM32F10x_StdPeriph_Driver/src/stm32f10x_sdio.c ****   * @retval None
 250:lib/STM32F10x_StdPeriph_Driver/src/stm32f10x_sdio.c ****   */
 251:lib/STM32F10x_StdPeriph_Driver/src/stm32f10x_sdio.c **** void SDIO_SetPowerState(uint32_t SDIO_PowerState)
 252:lib/STM32F10x_StdPeriph_Driver/src/stm32f10x_sdio.c **** {
 182              		.loc 1 252 0
 183              		.cfi_startproc
 184              		@ args = 0, pretend = 0, frame = 0
 185              		@ frame_needed = 0, uses_anonymous_args = 0
 186              		@ link register save eliminated.
 187              	.LVL6:
 253:lib/STM32F10x_StdPeriph_Driver/src/stm32f10x_sdio.c ****   /* Check the parameters */
 254:lib/STM32F10x_StdPeriph_Driver/src/stm32f10x_sdio.c ****   assert_param(IS_SDIO_POWER_STATE(SDIO_PowerState));
 255:lib/STM32F10x_StdPeriph_Driver/src/stm32f10x_sdio.c ****   
 256:lib/STM32F10x_StdPeriph_Driver/src/stm32f10x_sdio.c ****   SDIO->POWER &= PWR_PWRCTRL_MASK;
 188              		.loc 1 256 0
 189 0070 044B     		ldr	r3, .L12
 190 0072 1A68     		ldr	r2, [r3]
 191 0074 22F00302 		bic	r2, r2, #3
 192 0078 1A60     		str	r2, [r3]
 257:lib/STM32F10x_StdPeriph_Driver/src/stm32f10x_sdio.c ****   SDIO->POWER |= SDIO_PowerState;
 193              		.loc 1 257 0
 194 007a 1A68     		ldr	r2, [r3]
 195 007c 1043     		orrs	r0, r0, r2
 196              	.LVL7:
 197 007e 1860     		str	r0, [r3]
 198 0080 7047     		bx	lr
 199              	.L13:
 200 0082 00BF     		.align	2
 201              	.L12:
 202 0084 00800140 		.word	1073840128
 203              		.cfi_endproc
 204              	.LFE33:
 206              		.align	1
 207              		.global	SDIO_GetPowerState
 208              		.syntax unified
 209              		.thumb
 210              		.thumb_func
 211              		.fpu softvfp
 213              	SDIO_GetPowerState:
 214              	.LFB34:
 258:lib/STM32F10x_StdPeriph_Driver/src/stm32f10x_sdio.c **** }
 259:lib/STM32F10x_StdPeriph_Driver/src/stm32f10x_sdio.c **** 
 260:lib/STM32F10x_StdPeriph_Driver/src/stm32f10x_sdio.c **** /**
 261:lib/STM32F10x_StdPeriph_Driver/src/stm32f10x_sdio.c ****   * @brief  Gets the power status of the controller.
 262:lib/STM32F10x_StdPeriph_Driver/src/stm32f10x_sdio.c ****   * @param  None
 263:lib/STM32F10x_StdPeriph_Driver/src/stm32f10x_sdio.c ****   * @retval Power status of the controller. The returned value can
 264:lib/STM32F10x_StdPeriph_Driver/src/stm32f10x_sdio.c ****   *   be one of the following:
 265:lib/STM32F10x_StdPeriph_Driver/src/stm32f10x_sdio.c ****   * - 0x00: Power OFF
 266:lib/STM32F10x_StdPeriph_Driver/src/stm32f10x_sdio.c ****   * - 0x02: Power UP
 267:lib/STM32F10x_StdPeriph_Driver/src/stm32f10x_sdio.c ****   * - 0x03: Power ON 
 268:lib/STM32F10x_StdPeriph_Driver/src/stm32f10x_sdio.c ****   */
 269:lib/STM32F10x_StdPeriph_Driver/src/stm32f10x_sdio.c **** uint32_t SDIO_GetPowerState(void)
 270:lib/STM32F10x_StdPeriph_Driver/src/stm32f10x_sdio.c **** {
 215              		.loc 1 270 0
 216              		.cfi_startproc
 217              		@ args = 0, pretend = 0, frame = 0
 218              		@ frame_needed = 0, uses_anonymous_args = 0
 219              		@ link register save eliminated.
 271:lib/STM32F10x_StdPeriph_Driver/src/stm32f10x_sdio.c ****   return (SDIO->POWER & (~PWR_PWRCTRL_MASK));
 220              		.loc 1 271 0
 221 0088 024B     		ldr	r3, .L15
 222 008a 1868     		ldr	r0, [r3]
 272:lib/STM32F10x_StdPeriph_Driver/src/stm32f10x_sdio.c **** }
 223              		.loc 1 272 0
 224 008c 00F00300 		and	r0, r0, #3
 225 0090 7047     		bx	lr
 226              	.L16:
 227 0092 00BF     		.align	2
 228              	.L15:
 229 0094 00800140 		.word	1073840128
 230              		.cfi_endproc
 231              	.LFE34:
 233              		.align	1
 234              		.global	SDIO_ITConfig
 235              		.syntax unified
 236              		.thumb
 237              		.thumb_func
 238              		.fpu softvfp
 240              	SDIO_ITConfig:
 241              	.LFB35:
 273:lib/STM32F10x_StdPeriph_Driver/src/stm32f10x_sdio.c **** 
 274:lib/STM32F10x_StdPeriph_Driver/src/stm32f10x_sdio.c **** /**
 275:lib/STM32F10x_StdPeriph_Driver/src/stm32f10x_sdio.c ****   * @brief  Enables or disables the SDIO interrupts.
 276:lib/STM32F10x_StdPeriph_Driver/src/stm32f10x_sdio.c ****   * @param  SDIO_IT: specifies the SDIO interrupt sources to be enabled or disabled.
 277:lib/STM32F10x_StdPeriph_Driver/src/stm32f10x_sdio.c ****   *   This parameter can be one or a combination of the following values:
 278:lib/STM32F10x_StdPeriph_Driver/src/stm32f10x_sdio.c ****   *     @arg SDIO_IT_CCRCFAIL: Command response received (CRC check failed) interrupt
 279:lib/STM32F10x_StdPeriph_Driver/src/stm32f10x_sdio.c ****   *     @arg SDIO_IT_DCRCFAIL: Data block sent/received (CRC check failed) interrupt
 280:lib/STM32F10x_StdPeriph_Driver/src/stm32f10x_sdio.c ****   *     @arg SDIO_IT_CTIMEOUT: Command response timeout interrupt
 281:lib/STM32F10x_StdPeriph_Driver/src/stm32f10x_sdio.c ****   *     @arg SDIO_IT_DTIMEOUT: Data timeout interrupt
 282:lib/STM32F10x_StdPeriph_Driver/src/stm32f10x_sdio.c ****   *     @arg SDIO_IT_TXUNDERR: Transmit FIFO underrun error interrupt
 283:lib/STM32F10x_StdPeriph_Driver/src/stm32f10x_sdio.c ****   *     @arg SDIO_IT_RXOVERR:  Received FIFO overrun error interrupt
 284:lib/STM32F10x_StdPeriph_Driver/src/stm32f10x_sdio.c ****   *     @arg SDIO_IT_CMDREND:  Command response received (CRC check passed) interrupt
 285:lib/STM32F10x_StdPeriph_Driver/src/stm32f10x_sdio.c ****   *     @arg SDIO_IT_CMDSENT:  Command sent (no response required) interrupt
 286:lib/STM32F10x_StdPeriph_Driver/src/stm32f10x_sdio.c ****   *     @arg SDIO_IT_DATAEND:  Data end (data counter, SDIDCOUNT, is zero) interrupt
 287:lib/STM32F10x_StdPeriph_Driver/src/stm32f10x_sdio.c ****   *     @arg SDIO_IT_STBITERR: Start bit not detected on all data signals in wide 
 288:lib/STM32F10x_StdPeriph_Driver/src/stm32f10x_sdio.c ****   *                            bus mode interrupt
 289:lib/STM32F10x_StdPeriph_Driver/src/stm32f10x_sdio.c ****   *     @arg SDIO_IT_DBCKEND:  Data block sent/received (CRC check passed) interrupt
 290:lib/STM32F10x_StdPeriph_Driver/src/stm32f10x_sdio.c ****   *     @arg SDIO_IT_CMDACT:   Command transfer in progress interrupt
 291:lib/STM32F10x_StdPeriph_Driver/src/stm32f10x_sdio.c ****   *     @arg SDIO_IT_TXACT:    Data transmit in progress interrupt
 292:lib/STM32F10x_StdPeriph_Driver/src/stm32f10x_sdio.c ****   *     @arg SDIO_IT_RXACT:    Data receive in progress interrupt
 293:lib/STM32F10x_StdPeriph_Driver/src/stm32f10x_sdio.c ****   *     @arg SDIO_IT_TXFIFOHE: Transmit FIFO Half Empty interrupt
 294:lib/STM32F10x_StdPeriph_Driver/src/stm32f10x_sdio.c ****   *     @arg SDIO_IT_RXFIFOHF: Receive FIFO Half Full interrupt
 295:lib/STM32F10x_StdPeriph_Driver/src/stm32f10x_sdio.c ****   *     @arg SDIO_IT_TXFIFOF:  Transmit FIFO full interrupt
 296:lib/STM32F10x_StdPeriph_Driver/src/stm32f10x_sdio.c ****   *     @arg SDIO_IT_RXFIFOF:  Receive FIFO full interrupt
 297:lib/STM32F10x_StdPeriph_Driver/src/stm32f10x_sdio.c ****   *     @arg SDIO_IT_TXFIFOE:  Transmit FIFO empty interrupt
 298:lib/STM32F10x_StdPeriph_Driver/src/stm32f10x_sdio.c ****   *     @arg SDIO_IT_RXFIFOE:  Receive FIFO empty interrupt
 299:lib/STM32F10x_StdPeriph_Driver/src/stm32f10x_sdio.c ****   *     @arg SDIO_IT_TXDAVL:   Data available in transmit FIFO interrupt
 300:lib/STM32F10x_StdPeriph_Driver/src/stm32f10x_sdio.c ****   *     @arg SDIO_IT_RXDAVL:   Data available in receive FIFO interrupt
 301:lib/STM32F10x_StdPeriph_Driver/src/stm32f10x_sdio.c ****   *     @arg SDIO_IT_SDIOIT:   SD I/O interrupt received interrupt
 302:lib/STM32F10x_StdPeriph_Driver/src/stm32f10x_sdio.c ****   *     @arg SDIO_IT_CEATAEND: CE-ATA command completion signal received for CMD61 interrupt
 303:lib/STM32F10x_StdPeriph_Driver/src/stm32f10x_sdio.c ****   * @param  NewState: new state of the specified SDIO interrupts.
 304:lib/STM32F10x_StdPeriph_Driver/src/stm32f10x_sdio.c ****   *   This parameter can be: ENABLE or DISABLE.
 305:lib/STM32F10x_StdPeriph_Driver/src/stm32f10x_sdio.c ****   * @retval None 
 306:lib/STM32F10x_StdPeriph_Driver/src/stm32f10x_sdio.c ****   */
 307:lib/STM32F10x_StdPeriph_Driver/src/stm32f10x_sdio.c **** void SDIO_ITConfig(uint32_t SDIO_IT, FunctionalState NewState)
 308:lib/STM32F10x_StdPeriph_Driver/src/stm32f10x_sdio.c **** {
 242              		.loc 1 308 0
 243              		.cfi_startproc
 244              		@ args = 0, pretend = 0, frame = 0
 245              		@ frame_needed = 0, uses_anonymous_args = 0
 246              		@ link register save eliminated.
 247              	.LVL8:
 248 0098 044B     		ldr	r3, .L21
 309:lib/STM32F10x_StdPeriph_Driver/src/stm32f10x_sdio.c ****   /* Check the parameters */
 310:lib/STM32F10x_StdPeriph_Driver/src/stm32f10x_sdio.c ****   assert_param(IS_SDIO_IT(SDIO_IT));
 311:lib/STM32F10x_StdPeriph_Driver/src/stm32f10x_sdio.c ****   assert_param(IS_FUNCTIONAL_STATE(NewState));
 312:lib/STM32F10x_StdPeriph_Driver/src/stm32f10x_sdio.c ****   
 313:lib/STM32F10x_StdPeriph_Driver/src/stm32f10x_sdio.c ****   if (NewState != DISABLE)
 314:lib/STM32F10x_StdPeriph_Driver/src/stm32f10x_sdio.c ****   {
 315:lib/STM32F10x_StdPeriph_Driver/src/stm32f10x_sdio.c ****     /* Enable the SDIO interrupts */
 316:lib/STM32F10x_StdPeriph_Driver/src/stm32f10x_sdio.c ****     SDIO->MASK |= SDIO_IT;
 249              		.loc 1 316 0
 250 009a DA6B     		ldr	r2, [r3, #60]
 313:lib/STM32F10x_StdPeriph_Driver/src/stm32f10x_sdio.c ****   {
 251              		.loc 1 313 0
 252 009c 11B1     		cbz	r1, .L18
 253              		.loc 1 316 0
 254 009e 1043     		orrs	r0, r0, r2
 255              	.LVL9:
 256              	.L20:
 317:lib/STM32F10x_StdPeriph_Driver/src/stm32f10x_sdio.c ****   }
 318:lib/STM32F10x_StdPeriph_Driver/src/stm32f10x_sdio.c ****   else
 319:lib/STM32F10x_StdPeriph_Driver/src/stm32f10x_sdio.c ****   {
 320:lib/STM32F10x_StdPeriph_Driver/src/stm32f10x_sdio.c ****     /* Disable the SDIO interrupts */
 321:lib/STM32F10x_StdPeriph_Driver/src/stm32f10x_sdio.c ****     SDIO->MASK &= ~SDIO_IT;
 257              		.loc 1 321 0
 258 00a0 D863     		str	r0, [r3, #60]
 259 00a2 7047     		bx	lr
 260              	.LVL10:
 261              	.L18:
 262 00a4 22EA0000 		bic	r0, r2, r0
 263              	.LVL11:
 264 00a8 FAE7     		b	.L20
 265              	.L22:
 266 00aa 00BF     		.align	2
 267              	.L21:
 268 00ac 00800140 		.word	1073840128
 269              		.cfi_endproc
 270              	.LFE35:
 272              		.align	1
 273              		.global	SDIO_DMACmd
 274              		.syntax unified
 275              		.thumb
 276              		.thumb_func
 277              		.fpu softvfp
 279              	SDIO_DMACmd:
 280              	.LFB36:
 322:lib/STM32F10x_StdPeriph_Driver/src/stm32f10x_sdio.c ****   } 
 323:lib/STM32F10x_StdPeriph_Driver/src/stm32f10x_sdio.c **** }
 324:lib/STM32F10x_StdPeriph_Driver/src/stm32f10x_sdio.c **** 
 325:lib/STM32F10x_StdPeriph_Driver/src/stm32f10x_sdio.c **** /**
 326:lib/STM32F10x_StdPeriph_Driver/src/stm32f10x_sdio.c ****   * @brief  Enables or disables the SDIO DMA request.
 327:lib/STM32F10x_StdPeriph_Driver/src/stm32f10x_sdio.c ****   * @param  NewState: new state of the selected SDIO DMA request.
 328:lib/STM32F10x_StdPeriph_Driver/src/stm32f10x_sdio.c ****   *   This parameter can be: ENABLE or DISABLE.
 329:lib/STM32F10x_StdPeriph_Driver/src/stm32f10x_sdio.c ****   * @retval None
 330:lib/STM32F10x_StdPeriph_Driver/src/stm32f10x_sdio.c ****   */
 331:lib/STM32F10x_StdPeriph_Driver/src/stm32f10x_sdio.c **** void SDIO_DMACmd(FunctionalState NewState)
 332:lib/STM32F10x_StdPeriph_Driver/src/stm32f10x_sdio.c **** {
 281              		.loc 1 332 0
 282              		.cfi_startproc
 283              		@ args = 0, pretend = 0, frame = 0
 284              		@ frame_needed = 0, uses_anonymous_args = 0
 285              		@ link register save eliminated.
 286              	.LVL12:
 333:lib/STM32F10x_StdPeriph_Driver/src/stm32f10x_sdio.c ****   /* Check the parameters */
 334:lib/STM32F10x_StdPeriph_Driver/src/stm32f10x_sdio.c ****   assert_param(IS_FUNCTIONAL_STATE(NewState));
 335:lib/STM32F10x_StdPeriph_Driver/src/stm32f10x_sdio.c ****   
 336:lib/STM32F10x_StdPeriph_Driver/src/stm32f10x_sdio.c ****   *(__IO uint32_t *) DCTRL_DMAEN_BB = (uint32_t)NewState;
 287              		.loc 1 336 0
 288 00b0 014B     		ldr	r3, .L24
 289 00b2 1860     		str	r0, [r3]
 290 00b4 7047     		bx	lr
 291              	.L25:
 292 00b6 00BF     		.align	2
 293              	.L24:
 294 00b8 8C053042 		.word	1110443404
 295              		.cfi_endproc
 296              	.LFE36:
 298              		.align	1
 299              		.global	SDIO_SendCommand
 300              		.syntax unified
 301              		.thumb
 302              		.thumb_func
 303              		.fpu softvfp
 305              	SDIO_SendCommand:
 306              	.LFB37:
 337:lib/STM32F10x_StdPeriph_Driver/src/stm32f10x_sdio.c **** }
 338:lib/STM32F10x_StdPeriph_Driver/src/stm32f10x_sdio.c **** 
 339:lib/STM32F10x_StdPeriph_Driver/src/stm32f10x_sdio.c **** /**
 340:lib/STM32F10x_StdPeriph_Driver/src/stm32f10x_sdio.c ****   * @brief  Initializes the SDIO Command according to the specified 
 341:lib/STM32F10x_StdPeriph_Driver/src/stm32f10x_sdio.c ****   *         parameters in the SDIO_CmdInitStruct and send the command.
 342:lib/STM32F10x_StdPeriph_Driver/src/stm32f10x_sdio.c ****   * @param  SDIO_CmdInitStruct : pointer to a SDIO_CmdInitTypeDef 
 343:lib/STM32F10x_StdPeriph_Driver/src/stm32f10x_sdio.c ****   *         structure that contains the configuration information for the SDIO command.
 344:lib/STM32F10x_StdPeriph_Driver/src/stm32f10x_sdio.c ****   * @retval None
 345:lib/STM32F10x_StdPeriph_Driver/src/stm32f10x_sdio.c ****   */
 346:lib/STM32F10x_StdPeriph_Driver/src/stm32f10x_sdio.c **** void SDIO_SendCommand(SDIO_CmdInitTypeDef *SDIO_CmdInitStruct)
 347:lib/STM32F10x_StdPeriph_Driver/src/stm32f10x_sdio.c **** {
 307              		.loc 1 347 0
 308              		.cfi_startproc
 309              		@ args = 0, pretend = 0, frame = 0
 310              		@ frame_needed = 0, uses_anonymous_args = 0
 311              	.LVL13:
 348:lib/STM32F10x_StdPeriph_Driver/src/stm32f10x_sdio.c ****   uint32_t tmpreg = 0;
 349:lib/STM32F10x_StdPeriph_Driver/src/stm32f10x_sdio.c ****   
 350:lib/STM32F10x_StdPeriph_Driver/src/stm32f10x_sdio.c ****   /* Check the parameters */
 351:lib/STM32F10x_StdPeriph_Driver/src/stm32f10x_sdio.c ****   assert_param(IS_SDIO_CMD_INDEX(SDIO_CmdInitStruct->SDIO_CmdIndex));
 352:lib/STM32F10x_StdPeriph_Driver/src/stm32f10x_sdio.c ****   assert_param(IS_SDIO_RESPONSE(SDIO_CmdInitStruct->SDIO_Response));
 353:lib/STM32F10x_StdPeriph_Driver/src/stm32f10x_sdio.c ****   assert_param(IS_SDIO_WAIT(SDIO_CmdInitStruct->SDIO_Wait));
 354:lib/STM32F10x_StdPeriph_Driver/src/stm32f10x_sdio.c ****   assert_param(IS_SDIO_CPSM(SDIO_CmdInitStruct->SDIO_CPSM));
 355:lib/STM32F10x_StdPeriph_Driver/src/stm32f10x_sdio.c ****   
 356:lib/STM32F10x_StdPeriph_Driver/src/stm32f10x_sdio.c **** /*---------------------------- SDIO ARG Configuration ------------------------*/
 357:lib/STM32F10x_StdPeriph_Driver/src/stm32f10x_sdio.c ****   /* Set the SDIO Argument value */
 358:lib/STM32F10x_StdPeriph_Driver/src/stm32f10x_sdio.c ****   SDIO->ARG = SDIO_CmdInitStruct->SDIO_Argument;
 312              		.loc 1 358 0
 313 00bc 0368     		ldr	r3, [r0]
 314 00be 0949     		ldr	r1, .L27
 347:lib/STM32F10x_StdPeriph_Driver/src/stm32f10x_sdio.c ****   uint32_t tmpreg = 0;
 315              		.loc 1 347 0
 316 00c0 10B5     		push	{r4, lr}
 317              	.LCFI1:
 318              		.cfi_def_cfa_offset 8
 319              		.cfi_offset 4, -8
 320              		.cfi_offset 14, -4
 321              		.loc 1 358 0
 322 00c2 8B60     		str	r3, [r1, #8]
 359:lib/STM32F10x_StdPeriph_Driver/src/stm32f10x_sdio.c ****   
 360:lib/STM32F10x_StdPeriph_Driver/src/stm32f10x_sdio.c **** /*---------------------------- SDIO CMD Configuration ------------------------*/  
 361:lib/STM32F10x_StdPeriph_Driver/src/stm32f10x_sdio.c ****   /* Get the SDIO CMD value */
 362:lib/STM32F10x_StdPeriph_Driver/src/stm32f10x_sdio.c ****   tmpreg = SDIO->CMD;
 323              		.loc 1 362 0
 324 00c4 CA68     		ldr	r2, [r1, #12]
 325              	.LVL14:
 363:lib/STM32F10x_StdPeriph_Driver/src/stm32f10x_sdio.c ****   /* Clear CMDINDEX, WAITRESP, WAITINT, WAITPEND, CPSMEN bits */
 364:lib/STM32F10x_StdPeriph_Driver/src/stm32f10x_sdio.c ****   tmpreg &= CMD_CLEAR_MASK;
 365:lib/STM32F10x_StdPeriph_Driver/src/stm32f10x_sdio.c ****   /* Set CMDINDEX bits according to SDIO_CmdIndex value */
 366:lib/STM32F10x_StdPeriph_Driver/src/stm32f10x_sdio.c ****   /* Set WAITRESP bits according to SDIO_Response value */
 367:lib/STM32F10x_StdPeriph_Driver/src/stm32f10x_sdio.c ****   /* Set WAITINT and WAITPEND bits according to SDIO_Wait value */
 368:lib/STM32F10x_StdPeriph_Driver/src/stm32f10x_sdio.c ****   /* Set CPSMEN bits according to SDIO_CPSM value */
 369:lib/STM32F10x_StdPeriph_Driver/src/stm32f10x_sdio.c ****   tmpreg |= (uint32_t)SDIO_CmdInitStruct->SDIO_CmdIndex | SDIO_CmdInitStruct->SDIO_Response
 326              		.loc 1 369 0
 327 00c6 4368     		ldr	r3, [r0, #4]
 328 00c8 8468     		ldr	r4, [r0, #8]
 364:lib/STM32F10x_StdPeriph_Driver/src/stm32f10x_sdio.c ****   /* Set CMDINDEX bits according to SDIO_CmdIndex value */
 329              		.loc 1 364 0
 330 00ca 22F4FF62 		bic	r2, r2, #2040
 331              	.LVL15:
 332 00ce 22F00702 		bic	r2, r2, #7
 333              		.loc 1 369 0
 334 00d2 2343     		orrs	r3, r3, r4
 335 00d4 1343     		orrs	r3, r3, r2
 336 00d6 C268     		ldr	r2, [r0, #12]
 337 00d8 1343     		orrs	r3, r3, r2
 338 00da 0269     		ldr	r2, [r0, #16]
 339 00dc 1343     		orrs	r3, r3, r2
 340              	.LVL16:
 370:lib/STM32F10x_StdPeriph_Driver/src/stm32f10x_sdio.c ****            | SDIO_CmdInitStruct->SDIO_Wait | SDIO_CmdInitStruct->SDIO_CPSM;
 371:lib/STM32F10x_StdPeriph_Driver/src/stm32f10x_sdio.c ****   
 372:lib/STM32F10x_StdPeriph_Driver/src/stm32f10x_sdio.c ****   /* Write to SDIO CMD */
 373:lib/STM32F10x_StdPeriph_Driver/src/stm32f10x_sdio.c ****   SDIO->CMD = tmpreg;
 341              		.loc 1 373 0
 342 00de CB60     		str	r3, [r1, #12]
 343 00e0 10BD     		pop	{r4, pc}
 344              	.L28:
 345 00e2 00BF     		.align	2
 346              	.L27:
 347 00e4 00800140 		.word	1073840128
 348              		.cfi_endproc
 349              	.LFE37:
 351              		.align	1
 352              		.global	SDIO_CmdStructInit
 353              		.syntax unified
 354              		.thumb
 355              		.thumb_func
 356              		.fpu softvfp
 358              	SDIO_CmdStructInit:
 359              	.LFB38:
 374:lib/STM32F10x_StdPeriph_Driver/src/stm32f10x_sdio.c **** }
 375:lib/STM32F10x_StdPeriph_Driver/src/stm32f10x_sdio.c **** 
 376:lib/STM32F10x_StdPeriph_Driver/src/stm32f10x_sdio.c **** /**
 377:lib/STM32F10x_StdPeriph_Driver/src/stm32f10x_sdio.c ****   * @brief  Fills each SDIO_CmdInitStruct member with its default value.
 378:lib/STM32F10x_StdPeriph_Driver/src/stm32f10x_sdio.c ****   * @param  SDIO_CmdInitStruct: pointer to an SDIO_CmdInitTypeDef 
 379:lib/STM32F10x_StdPeriph_Driver/src/stm32f10x_sdio.c ****   *         structure which will be initialized.
 380:lib/STM32F10x_StdPeriph_Driver/src/stm32f10x_sdio.c ****   * @retval None
 381:lib/STM32F10x_StdPeriph_Driver/src/stm32f10x_sdio.c ****   */
 382:lib/STM32F10x_StdPeriph_Driver/src/stm32f10x_sdio.c **** void SDIO_CmdStructInit(SDIO_CmdInitTypeDef* SDIO_CmdInitStruct)
 383:lib/STM32F10x_StdPeriph_Driver/src/stm32f10x_sdio.c **** {
 360              		.loc 1 383 0
 361              		.cfi_startproc
 362              		@ args = 0, pretend = 0, frame = 0
 363              		@ frame_needed = 0, uses_anonymous_args = 0
 364              		@ link register save eliminated.
 365              	.LVL17:
 384:lib/STM32F10x_StdPeriph_Driver/src/stm32f10x_sdio.c ****   /* SDIO_CmdInitStruct members default value */
 385:lib/STM32F10x_StdPeriph_Driver/src/stm32f10x_sdio.c ****   SDIO_CmdInitStruct->SDIO_Argument = 0x00;
 366              		.loc 1 385 0
 367 00e8 0023     		movs	r3, #0
 368 00ea 0360     		str	r3, [r0]
 386:lib/STM32F10x_StdPeriph_Driver/src/stm32f10x_sdio.c ****   SDIO_CmdInitStruct->SDIO_CmdIndex = 0x00;
 369              		.loc 1 386 0
 370 00ec 4360     		str	r3, [r0, #4]
 387:lib/STM32F10x_StdPeriph_Driver/src/stm32f10x_sdio.c ****   SDIO_CmdInitStruct->SDIO_Response = SDIO_Response_No;
 371              		.loc 1 387 0
 372 00ee 8360     		str	r3, [r0, #8]
 388:lib/STM32F10x_StdPeriph_Driver/src/stm32f10x_sdio.c ****   SDIO_CmdInitStruct->SDIO_Wait = SDIO_Wait_No;
 373              		.loc 1 388 0
 374 00f0 C360     		str	r3, [r0, #12]
 389:lib/STM32F10x_StdPeriph_Driver/src/stm32f10x_sdio.c ****   SDIO_CmdInitStruct->SDIO_CPSM = SDIO_CPSM_Disable;
 375              		.loc 1 389 0
 376 00f2 0361     		str	r3, [r0, #16]
 377 00f4 7047     		bx	lr
 378              		.cfi_endproc
 379              	.LFE38:
 381              		.align	1
 382              		.global	SDIO_GetCommandResponse
 383              		.syntax unified
 384              		.thumb
 385              		.thumb_func
 386              		.fpu softvfp
 388              	SDIO_GetCommandResponse:
 389              	.LFB39:
 390:lib/STM32F10x_StdPeriph_Driver/src/stm32f10x_sdio.c **** }
 391:lib/STM32F10x_StdPeriph_Driver/src/stm32f10x_sdio.c **** 
 392:lib/STM32F10x_StdPeriph_Driver/src/stm32f10x_sdio.c **** /**
 393:lib/STM32F10x_StdPeriph_Driver/src/stm32f10x_sdio.c ****   * @brief  Returns command index of last command for which response received.
 394:lib/STM32F10x_StdPeriph_Driver/src/stm32f10x_sdio.c ****   * @param  None
 395:lib/STM32F10x_StdPeriph_Driver/src/stm32f10x_sdio.c ****   * @retval Returns the command index of the last command response received.
 396:lib/STM32F10x_StdPeriph_Driver/src/stm32f10x_sdio.c ****   */
 397:lib/STM32F10x_StdPeriph_Driver/src/stm32f10x_sdio.c **** uint8_t SDIO_GetCommandResponse(void)
 398:lib/STM32F10x_StdPeriph_Driver/src/stm32f10x_sdio.c **** {
 390              		.loc 1 398 0
 391              		.cfi_startproc
 392              		@ args = 0, pretend = 0, frame = 0
 393              		@ frame_needed = 0, uses_anonymous_args = 0
 394              		@ link register save eliminated.
 399:lib/STM32F10x_StdPeriph_Driver/src/stm32f10x_sdio.c ****   return (uint8_t)(SDIO->RESPCMD);
 395              		.loc 1 399 0
 396 00f6 024B     		ldr	r3, .L31
 397 00f8 1869     		ldr	r0, [r3, #16]
 400:lib/STM32F10x_StdPeriph_Driver/src/stm32f10x_sdio.c **** }
 398              		.loc 1 400 0
 399 00fa C0B2     		uxtb	r0, r0
 400 00fc 7047     		bx	lr
 401              	.L32:
 402 00fe 00BF     		.align	2
 403              	.L31:
 404 0100 00800140 		.word	1073840128
 405              		.cfi_endproc
 406              	.LFE39:
 408              		.align	1
 409              		.global	SDIO_GetResponse
 410              		.syntax unified
 411              		.thumb
 412              		.thumb_func
 413              		.fpu softvfp
 415              	SDIO_GetResponse:
 416              	.LFB40:
 401:lib/STM32F10x_StdPeriph_Driver/src/stm32f10x_sdio.c **** 
 402:lib/STM32F10x_StdPeriph_Driver/src/stm32f10x_sdio.c **** /**
 403:lib/STM32F10x_StdPeriph_Driver/src/stm32f10x_sdio.c ****   * @brief  Returns response received from the card for the last command.
 404:lib/STM32F10x_StdPeriph_Driver/src/stm32f10x_sdio.c ****   * @param  SDIO_RESP: Specifies the SDIO response register. 
 405:lib/STM32F10x_StdPeriph_Driver/src/stm32f10x_sdio.c ****   *   This parameter can be one of the following values:
 406:lib/STM32F10x_StdPeriph_Driver/src/stm32f10x_sdio.c ****   *     @arg SDIO_RESP1: Response Register 1
 407:lib/STM32F10x_StdPeriph_Driver/src/stm32f10x_sdio.c ****   *     @arg SDIO_RESP2: Response Register 2
 408:lib/STM32F10x_StdPeriph_Driver/src/stm32f10x_sdio.c ****   *     @arg SDIO_RESP3: Response Register 3
 409:lib/STM32F10x_StdPeriph_Driver/src/stm32f10x_sdio.c ****   *     @arg SDIO_RESP4: Response Register 4
 410:lib/STM32F10x_StdPeriph_Driver/src/stm32f10x_sdio.c ****   * @retval The Corresponding response register value.
 411:lib/STM32F10x_StdPeriph_Driver/src/stm32f10x_sdio.c ****   */
 412:lib/STM32F10x_StdPeriph_Driver/src/stm32f10x_sdio.c **** uint32_t SDIO_GetResponse(uint32_t SDIO_RESP)
 413:lib/STM32F10x_StdPeriph_Driver/src/stm32f10x_sdio.c **** {
 417              		.loc 1 413 0
 418              		.cfi_startproc
 419              		@ args = 0, pretend = 0, frame = 8
 420              		@ frame_needed = 0, uses_anonymous_args = 0
 421              		@ link register save eliminated.
 422              	.LVL18:
 414:lib/STM32F10x_StdPeriph_Driver/src/stm32f10x_sdio.c ****   __IO uint32_t tmp = 0;
 423              		.loc 1 414 0
 424 0104 0023     		movs	r3, #0
 413:lib/STM32F10x_StdPeriph_Driver/src/stm32f10x_sdio.c ****   __IO uint32_t tmp = 0;
 425              		.loc 1 413 0
 426 0106 82B0     		sub	sp, sp, #8
 427              	.LCFI2:
 428              		.cfi_def_cfa_offset 8
 429              		.loc 1 414 0
 430 0108 0193     		str	r3, [sp, #4]
 415:lib/STM32F10x_StdPeriph_Driver/src/stm32f10x_sdio.c **** 
 416:lib/STM32F10x_StdPeriph_Driver/src/stm32f10x_sdio.c ****   /* Check the parameters */
 417:lib/STM32F10x_StdPeriph_Driver/src/stm32f10x_sdio.c ****   assert_param(IS_SDIO_RESP(SDIO_RESP));
 418:lib/STM32F10x_StdPeriph_Driver/src/stm32f10x_sdio.c **** 
 419:lib/STM32F10x_StdPeriph_Driver/src/stm32f10x_sdio.c ****   tmp = SDIO_RESP_ADDR + SDIO_RESP;
 431              		.loc 1 419 0
 432 010a 034B     		ldr	r3, .L34
 433 010c 0344     		add	r3, r3, r0
 434 010e 0193     		str	r3, [sp, #4]
 420:lib/STM32F10x_StdPeriph_Driver/src/stm32f10x_sdio.c ****   
 421:lib/STM32F10x_StdPeriph_Driver/src/stm32f10x_sdio.c ****   return (*(__IO uint32_t *) tmp); 
 435              		.loc 1 421 0
 436 0110 019B     		ldr	r3, [sp, #4]
 437 0112 1868     		ldr	r0, [r3]
 438              	.LVL19:
 422:lib/STM32F10x_StdPeriph_Driver/src/stm32f10x_sdio.c **** }
 439              		.loc 1 422 0
 440 0114 02B0     		add	sp, sp, #8
 441              	.LCFI3:
 442              		.cfi_def_cfa_offset 0
 443              		@ sp needed
 444 0116 7047     		bx	lr
 445              	.L35:
 446              		.align	2
 447              	.L34:
 448 0118 14800140 		.word	1073840148
 449              		.cfi_endproc
 450              	.LFE40:
 452              		.align	1
 453              		.global	SDIO_DataConfig
 454              		.syntax unified
 455              		.thumb
 456              		.thumb_func
 457              		.fpu softvfp
 459              	SDIO_DataConfig:
 460              	.LFB41:
 423:lib/STM32F10x_StdPeriph_Driver/src/stm32f10x_sdio.c **** 
 424:lib/STM32F10x_StdPeriph_Driver/src/stm32f10x_sdio.c **** /**
 425:lib/STM32F10x_StdPeriph_Driver/src/stm32f10x_sdio.c ****   * @brief  Initializes the SDIO data path according to the specified 
 426:lib/STM32F10x_StdPeriph_Driver/src/stm32f10x_sdio.c ****   *   parameters in the SDIO_DataInitStruct.
 427:lib/STM32F10x_StdPeriph_Driver/src/stm32f10x_sdio.c ****   * @param  SDIO_DataInitStruct : pointer to a SDIO_DataInitTypeDef structure that
 428:lib/STM32F10x_StdPeriph_Driver/src/stm32f10x_sdio.c ****   *   contains the configuration information for the SDIO command.
 429:lib/STM32F10x_StdPeriph_Driver/src/stm32f10x_sdio.c ****   * @retval None
 430:lib/STM32F10x_StdPeriph_Driver/src/stm32f10x_sdio.c ****   */
 431:lib/STM32F10x_StdPeriph_Driver/src/stm32f10x_sdio.c **** void SDIO_DataConfig(SDIO_DataInitTypeDef* SDIO_DataInitStruct)
 432:lib/STM32F10x_StdPeriph_Driver/src/stm32f10x_sdio.c **** {
 461              		.loc 1 432 0
 462              		.cfi_startproc
 463              		@ args = 0, pretend = 0, frame = 0
 464              		@ frame_needed = 0, uses_anonymous_args = 0
 465              	.LVL20:
 433:lib/STM32F10x_StdPeriph_Driver/src/stm32f10x_sdio.c ****   uint32_t tmpreg = 0;
 434:lib/STM32F10x_StdPeriph_Driver/src/stm32f10x_sdio.c ****   
 435:lib/STM32F10x_StdPeriph_Driver/src/stm32f10x_sdio.c ****   /* Check the parameters */
 436:lib/STM32F10x_StdPeriph_Driver/src/stm32f10x_sdio.c ****   assert_param(IS_SDIO_DATA_LENGTH(SDIO_DataInitStruct->SDIO_DataLength));
 437:lib/STM32F10x_StdPeriph_Driver/src/stm32f10x_sdio.c ****   assert_param(IS_SDIO_BLOCK_SIZE(SDIO_DataInitStruct->SDIO_DataBlockSize));
 438:lib/STM32F10x_StdPeriph_Driver/src/stm32f10x_sdio.c ****   assert_param(IS_SDIO_TRANSFER_DIR(SDIO_DataInitStruct->SDIO_TransferDir));
 439:lib/STM32F10x_StdPeriph_Driver/src/stm32f10x_sdio.c ****   assert_param(IS_SDIO_TRANSFER_MODE(SDIO_DataInitStruct->SDIO_TransferMode));
 440:lib/STM32F10x_StdPeriph_Driver/src/stm32f10x_sdio.c ****   assert_param(IS_SDIO_DPSM(SDIO_DataInitStruct->SDIO_DPSM));
 441:lib/STM32F10x_StdPeriph_Driver/src/stm32f10x_sdio.c **** 
 442:lib/STM32F10x_StdPeriph_Driver/src/stm32f10x_sdio.c **** /*---------------------------- SDIO DTIMER Configuration ---------------------*/
 443:lib/STM32F10x_StdPeriph_Driver/src/stm32f10x_sdio.c ****   /* Set the SDIO Data TimeOut value */
 444:lib/STM32F10x_StdPeriph_Driver/src/stm32f10x_sdio.c ****   SDIO->DTIMER = SDIO_DataInitStruct->SDIO_DataTimeOut;
 466              		.loc 1 444 0
 467 011c 0368     		ldr	r3, [r0]
 468 011e 094A     		ldr	r2, .L37
 432:lib/STM32F10x_StdPeriph_Driver/src/stm32f10x_sdio.c ****   uint32_t tmpreg = 0;
 469              		.loc 1 432 0
 470 0120 10B5     		push	{r4, lr}
 471              	.LCFI4:
 472              		.cfi_def_cfa_offset 8
 473              		.cfi_offset 4, -8
 474              		.cfi_offset 14, -4
 475              		.loc 1 444 0
 476 0122 5362     		str	r3, [r2, #36]
 445:lib/STM32F10x_StdPeriph_Driver/src/stm32f10x_sdio.c **** 
 446:lib/STM32F10x_StdPeriph_Driver/src/stm32f10x_sdio.c **** /*---------------------------- SDIO DLEN Configuration -----------------------*/
 447:lib/STM32F10x_StdPeriph_Driver/src/stm32f10x_sdio.c ****   /* Set the SDIO DataLength value */
 448:lib/STM32F10x_StdPeriph_Driver/src/stm32f10x_sdio.c ****   SDIO->DLEN = SDIO_DataInitStruct->SDIO_DataLength;
 477              		.loc 1 448 0
 478 0124 4368     		ldr	r3, [r0, #4]
 479 0126 9362     		str	r3, [r2, #40]
 449:lib/STM32F10x_StdPeriph_Driver/src/stm32f10x_sdio.c **** 
 450:lib/STM32F10x_StdPeriph_Driver/src/stm32f10x_sdio.c **** /*---------------------------- SDIO DCTRL Configuration ----------------------*/  
 451:lib/STM32F10x_StdPeriph_Driver/src/stm32f10x_sdio.c ****   /* Get the SDIO DCTRL value */
 452:lib/STM32F10x_StdPeriph_Driver/src/stm32f10x_sdio.c ****   tmpreg = SDIO->DCTRL;
 480              		.loc 1 452 0
 481 0128 D16A     		ldr	r1, [r2, #44]
 482              	.LVL21:
 453:lib/STM32F10x_StdPeriph_Driver/src/stm32f10x_sdio.c ****   /* Clear DEN, DTMODE, DTDIR and DBCKSIZE bits */
 454:lib/STM32F10x_StdPeriph_Driver/src/stm32f10x_sdio.c ****   tmpreg &= DCTRL_CLEAR_MASK;
 455:lib/STM32F10x_StdPeriph_Driver/src/stm32f10x_sdio.c ****   /* Set DEN bit according to SDIO_DPSM value */
 456:lib/STM32F10x_StdPeriph_Driver/src/stm32f10x_sdio.c ****   /* Set DTMODE bit according to SDIO_TransferMode value */
 457:lib/STM32F10x_StdPeriph_Driver/src/stm32f10x_sdio.c ****   /* Set DTDIR bit according to SDIO_TransferDir value */
 458:lib/STM32F10x_StdPeriph_Driver/src/stm32f10x_sdio.c ****   /* Set DBCKSIZE bits according to SDIO_DataBlockSize value */
 459:lib/STM32F10x_StdPeriph_Driver/src/stm32f10x_sdio.c ****   tmpreg |= (uint32_t)SDIO_DataInitStruct->SDIO_DataBlockSize | SDIO_DataInitStruct->SDIO_TransferD
 483              		.loc 1 459 0
 484 012a 8368     		ldr	r3, [r0, #8]
 485 012c C468     		ldr	r4, [r0, #12]
 454:lib/STM32F10x_StdPeriph_Driver/src/stm32f10x_sdio.c ****   /* Set DEN bit according to SDIO_DPSM value */
 486              		.loc 1 454 0
 487 012e 21F0F701 		bic	r1, r1, #247
 488              	.LVL22:
 489              		.loc 1 459 0
 490 0132 2343     		orrs	r3, r3, r4
 491 0134 0B43     		orrs	r3, r3, r1
 492 0136 0169     		ldr	r1, [r0, #16]
 493              	.LVL23:
 494 0138 0B43     		orrs	r3, r3, r1
 495 013a 4169     		ldr	r1, [r0, #20]
 496 013c 0B43     		orrs	r3, r3, r1
 497              	.LVL24:
 460:lib/STM32F10x_StdPeriph_Driver/src/stm32f10x_sdio.c ****            | SDIO_DataInitStruct->SDIO_TransferMode | SDIO_DataInitStruct->SDIO_DPSM;
 461:lib/STM32F10x_StdPeriph_Driver/src/stm32f10x_sdio.c **** 
 462:lib/STM32F10x_StdPeriph_Driver/src/stm32f10x_sdio.c ****   /* Write to SDIO DCTRL */
 463:lib/STM32F10x_StdPeriph_Driver/src/stm32f10x_sdio.c ****   SDIO->DCTRL = tmpreg;
 498              		.loc 1 463 0
 499 013e D362     		str	r3, [r2, #44]
 500 0140 10BD     		pop	{r4, pc}
 501              	.L38:
 502 0142 00BF     		.align	2
 503              	.L37:
 504 0144 00800140 		.word	1073840128
 505              		.cfi_endproc
 506              	.LFE41:
 508              		.align	1
 509              		.global	SDIO_DataStructInit
 510              		.syntax unified
 511              		.thumb
 512              		.thumb_func
 513              		.fpu softvfp
 515              	SDIO_DataStructInit:
 516              	.LFB42:
 464:lib/STM32F10x_StdPeriph_Driver/src/stm32f10x_sdio.c **** }
 465:lib/STM32F10x_StdPeriph_Driver/src/stm32f10x_sdio.c **** 
 466:lib/STM32F10x_StdPeriph_Driver/src/stm32f10x_sdio.c **** /**
 467:lib/STM32F10x_StdPeriph_Driver/src/stm32f10x_sdio.c ****   * @brief  Fills each SDIO_DataInitStruct member with its default value.
 468:lib/STM32F10x_StdPeriph_Driver/src/stm32f10x_sdio.c ****   * @param  SDIO_DataInitStruct: pointer to an SDIO_DataInitTypeDef structure which
 469:lib/STM32F10x_StdPeriph_Driver/src/stm32f10x_sdio.c ****   *         will be initialized.
 470:lib/STM32F10x_StdPeriph_Driver/src/stm32f10x_sdio.c ****   * @retval None
 471:lib/STM32F10x_StdPeriph_Driver/src/stm32f10x_sdio.c ****   */
 472:lib/STM32F10x_StdPeriph_Driver/src/stm32f10x_sdio.c **** void SDIO_DataStructInit(SDIO_DataInitTypeDef* SDIO_DataInitStruct)
 473:lib/STM32F10x_StdPeriph_Driver/src/stm32f10x_sdio.c **** {
 517              		.loc 1 473 0
 518              		.cfi_startproc
 519              		@ args = 0, pretend = 0, frame = 0
 520              		@ frame_needed = 0, uses_anonymous_args = 0
 521              		@ link register save eliminated.
 522              	.LVL25:
 474:lib/STM32F10x_StdPeriph_Driver/src/stm32f10x_sdio.c ****   /* SDIO_DataInitStruct members default value */
 475:lib/STM32F10x_StdPeriph_Driver/src/stm32f10x_sdio.c ****   SDIO_DataInitStruct->SDIO_DataTimeOut = 0xFFFFFFFF;
 523              		.loc 1 475 0
 524 0148 4FF0FF33 		mov	r3, #-1
 525 014c 0360     		str	r3, [r0]
 476:lib/STM32F10x_StdPeriph_Driver/src/stm32f10x_sdio.c ****   SDIO_DataInitStruct->SDIO_DataLength = 0x00;
 526              		.loc 1 476 0
 527 014e 0023     		movs	r3, #0
 528 0150 4360     		str	r3, [r0, #4]
 477:lib/STM32F10x_StdPeriph_Driver/src/stm32f10x_sdio.c ****   SDIO_DataInitStruct->SDIO_DataBlockSize = SDIO_DataBlockSize_1b;
 529              		.loc 1 477 0
 530 0152 8360     		str	r3, [r0, #8]
 478:lib/STM32F10x_StdPeriph_Driver/src/stm32f10x_sdio.c ****   SDIO_DataInitStruct->SDIO_TransferDir = SDIO_TransferDir_ToCard;
 531              		.loc 1 478 0
 532 0154 C360     		str	r3, [r0, #12]
 479:lib/STM32F10x_StdPeriph_Driver/src/stm32f10x_sdio.c ****   SDIO_DataInitStruct->SDIO_TransferMode = SDIO_TransferMode_Block;  
 533              		.loc 1 479 0
 534 0156 0361     		str	r3, [r0, #16]
 480:lib/STM32F10x_StdPeriph_Driver/src/stm32f10x_sdio.c ****   SDIO_DataInitStruct->SDIO_DPSM = SDIO_DPSM_Disable;
 535              		.loc 1 480 0
 536 0158 4361     		str	r3, [r0, #20]
 537 015a 7047     		bx	lr
 538              		.cfi_endproc
 539              	.LFE42:
 541              		.align	1
 542              		.global	SDIO_GetDataCounter
 543              		.syntax unified
 544              		.thumb
 545              		.thumb_func
 546              		.fpu softvfp
 548              	SDIO_GetDataCounter:
 549              	.LFB43:
 481:lib/STM32F10x_StdPeriph_Driver/src/stm32f10x_sdio.c **** }
 482:lib/STM32F10x_StdPeriph_Driver/src/stm32f10x_sdio.c **** 
 483:lib/STM32F10x_StdPeriph_Driver/src/stm32f10x_sdio.c **** /**
 484:lib/STM32F10x_StdPeriph_Driver/src/stm32f10x_sdio.c ****   * @brief  Returns number of remaining data bytes to be transferred.
 485:lib/STM32F10x_StdPeriph_Driver/src/stm32f10x_sdio.c ****   * @param  None
 486:lib/STM32F10x_StdPeriph_Driver/src/stm32f10x_sdio.c ****   * @retval Number of remaining data bytes to be transferred
 487:lib/STM32F10x_StdPeriph_Driver/src/stm32f10x_sdio.c ****   */
 488:lib/STM32F10x_StdPeriph_Driver/src/stm32f10x_sdio.c **** uint32_t SDIO_GetDataCounter(void)
 489:lib/STM32F10x_StdPeriph_Driver/src/stm32f10x_sdio.c **** { 
 550              		.loc 1 489 0
 551              		.cfi_startproc
 552              		@ args = 0, pretend = 0, frame = 0
 553              		@ frame_needed = 0, uses_anonymous_args = 0
 554              		@ link register save eliminated.
 490:lib/STM32F10x_StdPeriph_Driver/src/stm32f10x_sdio.c ****   return SDIO->DCOUNT;
 555              		.loc 1 490 0
 556 015c 014B     		ldr	r3, .L41
 557 015e 186B     		ldr	r0, [r3, #48]
 491:lib/STM32F10x_StdPeriph_Driver/src/stm32f10x_sdio.c **** }
 558              		.loc 1 491 0
 559 0160 7047     		bx	lr
 560              	.L42:
 561 0162 00BF     		.align	2
 562              	.L41:
 563 0164 00800140 		.word	1073840128
 564              		.cfi_endproc
 565              	.LFE43:
 567              		.align	1
 568              		.global	SDIO_ReadData
 569              		.syntax unified
 570              		.thumb
 571              		.thumb_func
 572              		.fpu softvfp
 574              	SDIO_ReadData:
 575              	.LFB44:
 492:lib/STM32F10x_StdPeriph_Driver/src/stm32f10x_sdio.c **** 
 493:lib/STM32F10x_StdPeriph_Driver/src/stm32f10x_sdio.c **** /**
 494:lib/STM32F10x_StdPeriph_Driver/src/stm32f10x_sdio.c ****   * @brief  Read one data word from Rx FIFO.
 495:lib/STM32F10x_StdPeriph_Driver/src/stm32f10x_sdio.c ****   * @param  None
 496:lib/STM32F10x_StdPeriph_Driver/src/stm32f10x_sdio.c ****   * @retval Data received
 497:lib/STM32F10x_StdPeriph_Driver/src/stm32f10x_sdio.c ****   */
 498:lib/STM32F10x_StdPeriph_Driver/src/stm32f10x_sdio.c **** uint32_t SDIO_ReadData(void)
 499:lib/STM32F10x_StdPeriph_Driver/src/stm32f10x_sdio.c **** { 
 576              		.loc 1 499 0
 577              		.cfi_startproc
 578              		@ args = 0, pretend = 0, frame = 0
 579              		@ frame_needed = 0, uses_anonymous_args = 0
 580              		@ link register save eliminated.
 500:lib/STM32F10x_StdPeriph_Driver/src/stm32f10x_sdio.c ****   return SDIO->FIFO;
 581              		.loc 1 500 0
 582 0168 014B     		ldr	r3, .L44
 583 016a D3F88000 		ldr	r0, [r3, #128]
 501:lib/STM32F10x_StdPeriph_Driver/src/stm32f10x_sdio.c **** }
 584              		.loc 1 501 0
 585 016e 7047     		bx	lr
 586              	.L45:
 587              		.align	2
 588              	.L44:
 589 0170 00800140 		.word	1073840128
 590              		.cfi_endproc
 591              	.LFE44:
 593              		.align	1
 594              		.global	SDIO_WriteData
 595              		.syntax unified
 596              		.thumb
 597              		.thumb_func
 598              		.fpu softvfp
 600              	SDIO_WriteData:
 601              	.LFB45:
 502:lib/STM32F10x_StdPeriph_Driver/src/stm32f10x_sdio.c **** 
 503:lib/STM32F10x_StdPeriph_Driver/src/stm32f10x_sdio.c **** /**
 504:lib/STM32F10x_StdPeriph_Driver/src/stm32f10x_sdio.c ****   * @brief  Write one data word to Tx FIFO.
 505:lib/STM32F10x_StdPeriph_Driver/src/stm32f10x_sdio.c ****   * @param  Data: 32-bit data word to write.
 506:lib/STM32F10x_StdPeriph_Driver/src/stm32f10x_sdio.c ****   * @retval None
 507:lib/STM32F10x_StdPeriph_Driver/src/stm32f10x_sdio.c ****   */
 508:lib/STM32F10x_StdPeriph_Driver/src/stm32f10x_sdio.c **** void SDIO_WriteData(uint32_t Data)
 509:lib/STM32F10x_StdPeriph_Driver/src/stm32f10x_sdio.c **** { 
 602              		.loc 1 509 0
 603              		.cfi_startproc
 604              		@ args = 0, pretend = 0, frame = 0
 605              		@ frame_needed = 0, uses_anonymous_args = 0
 606              		@ link register save eliminated.
 607              	.LVL26:
 510:lib/STM32F10x_StdPeriph_Driver/src/stm32f10x_sdio.c ****   SDIO->FIFO = Data;
 608              		.loc 1 510 0
 609 0174 014B     		ldr	r3, .L47
 610 0176 C3F88000 		str	r0, [r3, #128]
 611 017a 7047     		bx	lr
 612              	.L48:
 613              		.align	2
 614              	.L47:
 615 017c 00800140 		.word	1073840128
 616              		.cfi_endproc
 617              	.LFE45:
 619              		.align	1
 620              		.global	SDIO_GetFIFOCount
 621              		.syntax unified
 622              		.thumb
 623              		.thumb_func
 624              		.fpu softvfp
 626              	SDIO_GetFIFOCount:
 627              	.LFB46:
 511:lib/STM32F10x_StdPeriph_Driver/src/stm32f10x_sdio.c **** }
 512:lib/STM32F10x_StdPeriph_Driver/src/stm32f10x_sdio.c **** 
 513:lib/STM32F10x_StdPeriph_Driver/src/stm32f10x_sdio.c **** /**
 514:lib/STM32F10x_StdPeriph_Driver/src/stm32f10x_sdio.c ****   * @brief  Returns the number of words left to be written to or read from FIFO.	
 515:lib/STM32F10x_StdPeriph_Driver/src/stm32f10x_sdio.c ****   * @param  None
 516:lib/STM32F10x_StdPeriph_Driver/src/stm32f10x_sdio.c ****   * @retval Remaining number of words.
 517:lib/STM32F10x_StdPeriph_Driver/src/stm32f10x_sdio.c ****   */
 518:lib/STM32F10x_StdPeriph_Driver/src/stm32f10x_sdio.c **** uint32_t SDIO_GetFIFOCount(void)
 519:lib/STM32F10x_StdPeriph_Driver/src/stm32f10x_sdio.c **** { 
 628              		.loc 1 519 0
 629              		.cfi_startproc
 630              		@ args = 0, pretend = 0, frame = 0
 631              		@ frame_needed = 0, uses_anonymous_args = 0
 632              		@ link register save eliminated.
 520:lib/STM32F10x_StdPeriph_Driver/src/stm32f10x_sdio.c ****   return SDIO->FIFOCNT;
 633              		.loc 1 520 0
 634 0180 014B     		ldr	r3, .L50
 635 0182 986C     		ldr	r0, [r3, #72]
 521:lib/STM32F10x_StdPeriph_Driver/src/stm32f10x_sdio.c **** }
 636              		.loc 1 521 0
 637 0184 7047     		bx	lr
 638              	.L51:
 639 0186 00BF     		.align	2
 640              	.L50:
 641 0188 00800140 		.word	1073840128
 642              		.cfi_endproc
 643              	.LFE46:
 645              		.align	1
 646              		.global	SDIO_StartSDIOReadWait
 647              		.syntax unified
 648              		.thumb
 649              		.thumb_func
 650              		.fpu softvfp
 652              	SDIO_StartSDIOReadWait:
 653              	.LFB47:
 522:lib/STM32F10x_StdPeriph_Driver/src/stm32f10x_sdio.c **** 
 523:lib/STM32F10x_StdPeriph_Driver/src/stm32f10x_sdio.c **** /**
 524:lib/STM32F10x_StdPeriph_Driver/src/stm32f10x_sdio.c ****   * @brief  Starts the SD I/O Read Wait operation.	
 525:lib/STM32F10x_StdPeriph_Driver/src/stm32f10x_sdio.c ****   * @param  NewState: new state of the Start SDIO Read Wait operation. 
 526:lib/STM32F10x_StdPeriph_Driver/src/stm32f10x_sdio.c ****   *   This parameter can be: ENABLE or DISABLE.
 527:lib/STM32F10x_StdPeriph_Driver/src/stm32f10x_sdio.c ****   * @retval None
 528:lib/STM32F10x_StdPeriph_Driver/src/stm32f10x_sdio.c ****   */
 529:lib/STM32F10x_StdPeriph_Driver/src/stm32f10x_sdio.c **** void SDIO_StartSDIOReadWait(FunctionalState NewState)
 530:lib/STM32F10x_StdPeriph_Driver/src/stm32f10x_sdio.c **** { 
 654              		.loc 1 530 0
 655              		.cfi_startproc
 656              		@ args = 0, pretend = 0, frame = 0
 657              		@ frame_needed = 0, uses_anonymous_args = 0
 658              		@ link register save eliminated.
 659              	.LVL27:
 531:lib/STM32F10x_StdPeriph_Driver/src/stm32f10x_sdio.c ****   /* Check the parameters */
 532:lib/STM32F10x_StdPeriph_Driver/src/stm32f10x_sdio.c ****   assert_param(IS_FUNCTIONAL_STATE(NewState));
 533:lib/STM32F10x_StdPeriph_Driver/src/stm32f10x_sdio.c ****   
 534:lib/STM32F10x_StdPeriph_Driver/src/stm32f10x_sdio.c ****   *(__IO uint32_t *) DCTRL_RWSTART_BB = (uint32_t) NewState;
 660              		.loc 1 534 0
 661 018c 014B     		ldr	r3, .L53
 662 018e 1860     		str	r0, [r3]
 663 0190 7047     		bx	lr
 664              	.L54:
 665 0192 00BF     		.align	2
 666              	.L53:
 667 0194 A0053042 		.word	1110443424
 668              		.cfi_endproc
 669              	.LFE47:
 671              		.align	1
 672              		.global	SDIO_StopSDIOReadWait
 673              		.syntax unified
 674              		.thumb
 675              		.thumb_func
 676              		.fpu softvfp
 678              	SDIO_StopSDIOReadWait:
 679              	.LFB48:
 535:lib/STM32F10x_StdPeriph_Driver/src/stm32f10x_sdio.c **** }
 536:lib/STM32F10x_StdPeriph_Driver/src/stm32f10x_sdio.c **** 
 537:lib/STM32F10x_StdPeriph_Driver/src/stm32f10x_sdio.c **** /**
 538:lib/STM32F10x_StdPeriph_Driver/src/stm32f10x_sdio.c ****   * @brief  Stops the SD I/O Read Wait operation.	
 539:lib/STM32F10x_StdPeriph_Driver/src/stm32f10x_sdio.c ****   * @param  NewState: new state of the Stop SDIO Read Wait operation. 
 540:lib/STM32F10x_StdPeriph_Driver/src/stm32f10x_sdio.c ****   *   This parameter can be: ENABLE or DISABLE.
 541:lib/STM32F10x_StdPeriph_Driver/src/stm32f10x_sdio.c ****   * @retval None
 542:lib/STM32F10x_StdPeriph_Driver/src/stm32f10x_sdio.c ****   */
 543:lib/STM32F10x_StdPeriph_Driver/src/stm32f10x_sdio.c **** void SDIO_StopSDIOReadWait(FunctionalState NewState)
 544:lib/STM32F10x_StdPeriph_Driver/src/stm32f10x_sdio.c **** { 
 680              		.loc 1 544 0
 681              		.cfi_startproc
 682              		@ args = 0, pretend = 0, frame = 0
 683              		@ frame_needed = 0, uses_anonymous_args = 0
 684              		@ link register save eliminated.
 685              	.LVL28:
 545:lib/STM32F10x_StdPeriph_Driver/src/stm32f10x_sdio.c ****   /* Check the parameters */
 546:lib/STM32F10x_StdPeriph_Driver/src/stm32f10x_sdio.c ****   assert_param(IS_FUNCTIONAL_STATE(NewState));
 547:lib/STM32F10x_StdPeriph_Driver/src/stm32f10x_sdio.c ****   
 548:lib/STM32F10x_StdPeriph_Driver/src/stm32f10x_sdio.c ****   *(__IO uint32_t *) DCTRL_RWSTOP_BB = (uint32_t) NewState;
 686              		.loc 1 548 0
 687 0198 014B     		ldr	r3, .L56
 688 019a 1860     		str	r0, [r3]
 689 019c 7047     		bx	lr
 690              	.L57:
 691 019e 00BF     		.align	2
 692              	.L56:
 693 01a0 A4053042 		.word	1110443428
 694              		.cfi_endproc
 695              	.LFE48:
 697              		.align	1
 698              		.global	SDIO_SetSDIOReadWaitMode
 699              		.syntax unified
 700              		.thumb
 701              		.thumb_func
 702              		.fpu softvfp
 704              	SDIO_SetSDIOReadWaitMode:
 705              	.LFB49:
 549:lib/STM32F10x_StdPeriph_Driver/src/stm32f10x_sdio.c **** }
 550:lib/STM32F10x_StdPeriph_Driver/src/stm32f10x_sdio.c **** 
 551:lib/STM32F10x_StdPeriph_Driver/src/stm32f10x_sdio.c **** /**
 552:lib/STM32F10x_StdPeriph_Driver/src/stm32f10x_sdio.c ****   * @brief  Sets one of the two options of inserting read wait interval.
 553:lib/STM32F10x_StdPeriph_Driver/src/stm32f10x_sdio.c ****   * @param  SDIO_ReadWaitMode: SD I/O Read Wait operation mode.
 554:lib/STM32F10x_StdPeriph_Driver/src/stm32f10x_sdio.c ****   *   This parameter can be:
 555:lib/STM32F10x_StdPeriph_Driver/src/stm32f10x_sdio.c ****   *     @arg SDIO_ReadWaitMode_CLK: Read Wait control by stopping SDIOCLK
 556:lib/STM32F10x_StdPeriph_Driver/src/stm32f10x_sdio.c ****   *     @arg SDIO_ReadWaitMode_DATA2: Read Wait control using SDIO_DATA2
 557:lib/STM32F10x_StdPeriph_Driver/src/stm32f10x_sdio.c ****   * @retval None
 558:lib/STM32F10x_StdPeriph_Driver/src/stm32f10x_sdio.c ****   */
 559:lib/STM32F10x_StdPeriph_Driver/src/stm32f10x_sdio.c **** void SDIO_SetSDIOReadWaitMode(uint32_t SDIO_ReadWaitMode)
 560:lib/STM32F10x_StdPeriph_Driver/src/stm32f10x_sdio.c **** {
 706              		.loc 1 560 0
 707              		.cfi_startproc
 708              		@ args = 0, pretend = 0, frame = 0
 709              		@ frame_needed = 0, uses_anonymous_args = 0
 710              		@ link register save eliminated.
 711              	.LVL29:
 561:lib/STM32F10x_StdPeriph_Driver/src/stm32f10x_sdio.c ****   /* Check the parameters */
 562:lib/STM32F10x_StdPeriph_Driver/src/stm32f10x_sdio.c ****   assert_param(IS_SDIO_READWAIT_MODE(SDIO_ReadWaitMode));
 563:lib/STM32F10x_StdPeriph_Driver/src/stm32f10x_sdio.c ****   
 564:lib/STM32F10x_StdPeriph_Driver/src/stm32f10x_sdio.c ****   *(__IO uint32_t *) DCTRL_RWMOD_BB = SDIO_ReadWaitMode;
 712              		.loc 1 564 0
 713 01a4 014B     		ldr	r3, .L59
 714 01a6 1860     		str	r0, [r3]
 715 01a8 7047     		bx	lr
 716              	.L60:
 717 01aa 00BF     		.align	2
 718              	.L59:
 719 01ac A8053042 		.word	1110443432
 720              		.cfi_endproc
 721              	.LFE49:
 723              		.align	1
 724              		.global	SDIO_SetSDIOOperation
 725              		.syntax unified
 726              		.thumb
 727              		.thumb_func
 728              		.fpu softvfp
 730              	SDIO_SetSDIOOperation:
 731              	.LFB50:
 565:lib/STM32F10x_StdPeriph_Driver/src/stm32f10x_sdio.c **** }
 566:lib/STM32F10x_StdPeriph_Driver/src/stm32f10x_sdio.c **** 
 567:lib/STM32F10x_StdPeriph_Driver/src/stm32f10x_sdio.c **** /**
 568:lib/STM32F10x_StdPeriph_Driver/src/stm32f10x_sdio.c ****   * @brief  Enables or disables the SD I/O Mode Operation.
 569:lib/STM32F10x_StdPeriph_Driver/src/stm32f10x_sdio.c ****   * @param  NewState: new state of SDIO specific operation. 
 570:lib/STM32F10x_StdPeriph_Driver/src/stm32f10x_sdio.c ****   *   This parameter can be: ENABLE or DISABLE.
 571:lib/STM32F10x_StdPeriph_Driver/src/stm32f10x_sdio.c ****   * @retval None
 572:lib/STM32F10x_StdPeriph_Driver/src/stm32f10x_sdio.c ****   */
 573:lib/STM32F10x_StdPeriph_Driver/src/stm32f10x_sdio.c **** void SDIO_SetSDIOOperation(FunctionalState NewState)
 574:lib/STM32F10x_StdPeriph_Driver/src/stm32f10x_sdio.c **** { 
 732              		.loc 1 574 0
 733              		.cfi_startproc
 734              		@ args = 0, pretend = 0, frame = 0
 735              		@ frame_needed = 0, uses_anonymous_args = 0
 736              		@ link register save eliminated.
 737              	.LVL30:
 575:lib/STM32F10x_StdPeriph_Driver/src/stm32f10x_sdio.c ****   /* Check the parameters */
 576:lib/STM32F10x_StdPeriph_Driver/src/stm32f10x_sdio.c ****   assert_param(IS_FUNCTIONAL_STATE(NewState));
 577:lib/STM32F10x_StdPeriph_Driver/src/stm32f10x_sdio.c ****   
 578:lib/STM32F10x_StdPeriph_Driver/src/stm32f10x_sdio.c ****   *(__IO uint32_t *) DCTRL_SDIOEN_BB = (uint32_t)NewState;
 738              		.loc 1 578 0
 739 01b0 014B     		ldr	r3, .L62
 740 01b2 1860     		str	r0, [r3]
 741 01b4 7047     		bx	lr
 742              	.L63:
 743 01b6 00BF     		.align	2
 744              	.L62:
 745 01b8 AC053042 		.word	1110443436
 746              		.cfi_endproc
 747              	.LFE50:
 749              		.align	1
 750              		.global	SDIO_SendSDIOSuspendCmd
 751              		.syntax unified
 752              		.thumb
 753              		.thumb_func
 754              		.fpu softvfp
 756              	SDIO_SendSDIOSuspendCmd:
 757              	.LFB51:
 579:lib/STM32F10x_StdPeriph_Driver/src/stm32f10x_sdio.c **** }
 580:lib/STM32F10x_StdPeriph_Driver/src/stm32f10x_sdio.c **** 
 581:lib/STM32F10x_StdPeriph_Driver/src/stm32f10x_sdio.c **** /**
 582:lib/STM32F10x_StdPeriph_Driver/src/stm32f10x_sdio.c ****   * @brief  Enables or disables the SD I/O Mode suspend command sending.
 583:lib/STM32F10x_StdPeriph_Driver/src/stm32f10x_sdio.c ****   * @param  NewState: new state of the SD I/O Mode suspend command.
 584:lib/STM32F10x_StdPeriph_Driver/src/stm32f10x_sdio.c ****   *   This parameter can be: ENABLE or DISABLE.
 585:lib/STM32F10x_StdPeriph_Driver/src/stm32f10x_sdio.c ****   * @retval None
 586:lib/STM32F10x_StdPeriph_Driver/src/stm32f10x_sdio.c ****   */
 587:lib/STM32F10x_StdPeriph_Driver/src/stm32f10x_sdio.c **** void SDIO_SendSDIOSuspendCmd(FunctionalState NewState)
 588:lib/STM32F10x_StdPeriph_Driver/src/stm32f10x_sdio.c **** { 
 758              		.loc 1 588 0
 759              		.cfi_startproc
 760              		@ args = 0, pretend = 0, frame = 0
 761              		@ frame_needed = 0, uses_anonymous_args = 0
 762              		@ link register save eliminated.
 763              	.LVL31:
 589:lib/STM32F10x_StdPeriph_Driver/src/stm32f10x_sdio.c ****   /* Check the parameters */
 590:lib/STM32F10x_StdPeriph_Driver/src/stm32f10x_sdio.c ****   assert_param(IS_FUNCTIONAL_STATE(NewState));
 591:lib/STM32F10x_StdPeriph_Driver/src/stm32f10x_sdio.c ****   
 592:lib/STM32F10x_StdPeriph_Driver/src/stm32f10x_sdio.c ****   *(__IO uint32_t *) CMD_SDIOSUSPEND_BB = (uint32_t)NewState;
 764              		.loc 1 592 0
 765 01bc 014B     		ldr	r3, .L65
 766 01be 1860     		str	r0, [r3]
 767 01c0 7047     		bx	lr
 768              	.L66:
 769 01c2 00BF     		.align	2
 770              	.L65:
 771 01c4 AC013042 		.word	1110442412
 772              		.cfi_endproc
 773              	.LFE51:
 775              		.align	1
 776              		.global	SDIO_CommandCompletionCmd
 777              		.syntax unified
 778              		.thumb
 779              		.thumb_func
 780              		.fpu softvfp
 782              	SDIO_CommandCompletionCmd:
 783              	.LFB52:
 593:lib/STM32F10x_StdPeriph_Driver/src/stm32f10x_sdio.c **** }
 594:lib/STM32F10x_StdPeriph_Driver/src/stm32f10x_sdio.c **** 
 595:lib/STM32F10x_StdPeriph_Driver/src/stm32f10x_sdio.c **** /**
 596:lib/STM32F10x_StdPeriph_Driver/src/stm32f10x_sdio.c ****   * @brief  Enables or disables the command completion signal.
 597:lib/STM32F10x_StdPeriph_Driver/src/stm32f10x_sdio.c ****   * @param  NewState: new state of command completion signal. 
 598:lib/STM32F10x_StdPeriph_Driver/src/stm32f10x_sdio.c ****   *   This parameter can be: ENABLE or DISABLE.
 599:lib/STM32F10x_StdPeriph_Driver/src/stm32f10x_sdio.c ****   * @retval None
 600:lib/STM32F10x_StdPeriph_Driver/src/stm32f10x_sdio.c ****   */
 601:lib/STM32F10x_StdPeriph_Driver/src/stm32f10x_sdio.c **** void SDIO_CommandCompletionCmd(FunctionalState NewState)
 602:lib/STM32F10x_StdPeriph_Driver/src/stm32f10x_sdio.c **** { 
 784              		.loc 1 602 0
 785              		.cfi_startproc
 786              		@ args = 0, pretend = 0, frame = 0
 787              		@ frame_needed = 0, uses_anonymous_args = 0
 788              		@ link register save eliminated.
 789              	.LVL32:
 603:lib/STM32F10x_StdPeriph_Driver/src/stm32f10x_sdio.c ****   /* Check the parameters */
 604:lib/STM32F10x_StdPeriph_Driver/src/stm32f10x_sdio.c ****   assert_param(IS_FUNCTIONAL_STATE(NewState));
 605:lib/STM32F10x_StdPeriph_Driver/src/stm32f10x_sdio.c ****   
 606:lib/STM32F10x_StdPeriph_Driver/src/stm32f10x_sdio.c ****   *(__IO uint32_t *) CMD_ENCMDCOMPL_BB = (uint32_t)NewState;
 790              		.loc 1 606 0
 791 01c8 014B     		ldr	r3, .L68
 792 01ca 1860     		str	r0, [r3]
 793 01cc 7047     		bx	lr
 794              	.L69:
 795 01ce 00BF     		.align	2
 796              	.L68:
 797 01d0 B0013042 		.word	1110442416
 798              		.cfi_endproc
 799              	.LFE52:
 801              		.align	1
 802              		.global	SDIO_CEATAITCmd
 803              		.syntax unified
 804              		.thumb
 805              		.thumb_func
 806              		.fpu softvfp
 808              	SDIO_CEATAITCmd:
 809              	.LFB53:
 607:lib/STM32F10x_StdPeriph_Driver/src/stm32f10x_sdio.c **** }
 608:lib/STM32F10x_StdPeriph_Driver/src/stm32f10x_sdio.c **** 
 609:lib/STM32F10x_StdPeriph_Driver/src/stm32f10x_sdio.c **** /**
 610:lib/STM32F10x_StdPeriph_Driver/src/stm32f10x_sdio.c ****   * @brief  Enables or disables the CE-ATA interrupt.
 611:lib/STM32F10x_StdPeriph_Driver/src/stm32f10x_sdio.c ****   * @param  NewState: new state of CE-ATA interrupt. This parameter can be: ENABLE or DISABLE.
 612:lib/STM32F10x_StdPeriph_Driver/src/stm32f10x_sdio.c ****   * @retval None
 613:lib/STM32F10x_StdPeriph_Driver/src/stm32f10x_sdio.c ****   */
 614:lib/STM32F10x_StdPeriph_Driver/src/stm32f10x_sdio.c **** void SDIO_CEATAITCmd(FunctionalState NewState)
 615:lib/STM32F10x_StdPeriph_Driver/src/stm32f10x_sdio.c **** { 
 810              		.loc 1 615 0
 811              		.cfi_startproc
 812              		@ args = 0, pretend = 0, frame = 0
 813              		@ frame_needed = 0, uses_anonymous_args = 0
 814              		@ link register save eliminated.
 815              	.LVL33:
 616:lib/STM32F10x_StdPeriph_Driver/src/stm32f10x_sdio.c ****   /* Check the parameters */
 617:lib/STM32F10x_StdPeriph_Driver/src/stm32f10x_sdio.c ****   assert_param(IS_FUNCTIONAL_STATE(NewState));
 618:lib/STM32F10x_StdPeriph_Driver/src/stm32f10x_sdio.c ****   
 619:lib/STM32F10x_StdPeriph_Driver/src/stm32f10x_sdio.c ****   *(__IO uint32_t *) CMD_NIEN_BB = (uint32_t)((~((uint32_t)NewState)) & ((uint32_t)0x1));
 816              		.loc 1 619 0
 817 01d4 C043     		mvns	r0, r0
 818              	.LVL34:
 819 01d6 024B     		ldr	r3, .L71
 820 01d8 00F00100 		and	r0, r0, #1
 821 01dc 1860     		str	r0, [r3]
 822 01de 7047     		bx	lr
 823              	.L72:
 824              		.align	2
 825              	.L71:
 826 01e0 B4013042 		.word	1110442420
 827              		.cfi_endproc
 828              	.LFE53:
 830              		.align	1
 831              		.global	SDIO_SendCEATACmd
 832              		.syntax unified
 833              		.thumb
 834              		.thumb_func
 835              		.fpu softvfp
 837              	SDIO_SendCEATACmd:
 838              	.LFB54:
 620:lib/STM32F10x_StdPeriph_Driver/src/stm32f10x_sdio.c **** }
 621:lib/STM32F10x_StdPeriph_Driver/src/stm32f10x_sdio.c **** 
 622:lib/STM32F10x_StdPeriph_Driver/src/stm32f10x_sdio.c **** /**
 623:lib/STM32F10x_StdPeriph_Driver/src/stm32f10x_sdio.c ****   * @brief  Sends CE-ATA command (CMD61).
 624:lib/STM32F10x_StdPeriph_Driver/src/stm32f10x_sdio.c ****   * @param  NewState: new state of CE-ATA command. This parameter can be: ENABLE or DISABLE.
 625:lib/STM32F10x_StdPeriph_Driver/src/stm32f10x_sdio.c ****   * @retval None
 626:lib/STM32F10x_StdPeriph_Driver/src/stm32f10x_sdio.c ****   */
 627:lib/STM32F10x_StdPeriph_Driver/src/stm32f10x_sdio.c **** void SDIO_SendCEATACmd(FunctionalState NewState)
 628:lib/STM32F10x_StdPeriph_Driver/src/stm32f10x_sdio.c **** { 
 839              		.loc 1 628 0
 840              		.cfi_startproc
 841              		@ args = 0, pretend = 0, frame = 0
 842              		@ frame_needed = 0, uses_anonymous_args = 0
 843              		@ link register save eliminated.
 844              	.LVL35:
 629:lib/STM32F10x_StdPeriph_Driver/src/stm32f10x_sdio.c ****   /* Check the parameters */
 630:lib/STM32F10x_StdPeriph_Driver/src/stm32f10x_sdio.c ****   assert_param(IS_FUNCTIONAL_STATE(NewState));
 631:lib/STM32F10x_StdPeriph_Driver/src/stm32f10x_sdio.c ****   
 632:lib/STM32F10x_StdPeriph_Driver/src/stm32f10x_sdio.c ****   *(__IO uint32_t *) CMD_ATACMD_BB = (uint32_t)NewState;
 845              		.loc 1 632 0
 846 01e4 014B     		ldr	r3, .L74
 847 01e6 1860     		str	r0, [r3]
 848 01e8 7047     		bx	lr
 849              	.L75:
 850 01ea 00BF     		.align	2
 851              	.L74:
 852 01ec B8013042 		.word	1110442424
 853              		.cfi_endproc
 854              	.LFE54:
 856              		.align	1
 857              		.global	SDIO_ClearFlag
 858              		.syntax unified
 859              		.thumb
 860              		.thumb_func
 861              		.fpu softvfp
 863              	SDIO_ClearFlag:
 864              	.LFB60:
 865              		.cfi_startproc
 866              		@ args = 0, pretend = 0, frame = 0
 867              		@ frame_needed = 0, uses_anonymous_args = 0
 868              		@ link register save eliminated.
 869 01f0 014B     		ldr	r3, .L77
 870 01f2 9863     		str	r0, [r3, #56]
 871 01f4 7047     		bx	lr
 872              	.L78:
 873 01f6 00BF     		.align	2
 874              	.L77:
 875 01f8 00800140 		.word	1073840128
 876              		.cfi_endproc
 877              	.LFE60:
 879              		.align	1
 880              		.global	SDIO_GetITStatus
 881              		.syntax unified
 882              		.thumb
 883              		.thumb_func
 884              		.fpu softvfp
 886              	SDIO_GetITStatus:
 887              	.LFB57:
 633:lib/STM32F10x_StdPeriph_Driver/src/stm32f10x_sdio.c **** }
 634:lib/STM32F10x_StdPeriph_Driver/src/stm32f10x_sdio.c **** 
 635:lib/STM32F10x_StdPeriph_Driver/src/stm32f10x_sdio.c **** /**
 636:lib/STM32F10x_StdPeriph_Driver/src/stm32f10x_sdio.c ****   * @brief  Checks whether the specified SDIO flag is set or not.
 637:lib/STM32F10x_StdPeriph_Driver/src/stm32f10x_sdio.c ****   * @param  SDIO_FLAG: specifies the flag to check. 
 638:lib/STM32F10x_StdPeriph_Driver/src/stm32f10x_sdio.c ****   *   This parameter can be one of the following values:
 639:lib/STM32F10x_StdPeriph_Driver/src/stm32f10x_sdio.c ****   *     @arg SDIO_FLAG_CCRCFAIL: Command response received (CRC check failed)
 640:lib/STM32F10x_StdPeriph_Driver/src/stm32f10x_sdio.c ****   *     @arg SDIO_FLAG_DCRCFAIL: Data block sent/received (CRC check failed)
 641:lib/STM32F10x_StdPeriph_Driver/src/stm32f10x_sdio.c ****   *     @arg SDIO_FLAG_CTIMEOUT: Command response timeout
 642:lib/STM32F10x_StdPeriph_Driver/src/stm32f10x_sdio.c ****   *     @arg SDIO_FLAG_DTIMEOUT: Data timeout
 643:lib/STM32F10x_StdPeriph_Driver/src/stm32f10x_sdio.c ****   *     @arg SDIO_FLAG_TXUNDERR: Transmit FIFO underrun error
 644:lib/STM32F10x_StdPeriph_Driver/src/stm32f10x_sdio.c ****   *     @arg SDIO_FLAG_RXOVERR:  Received FIFO overrun error
 645:lib/STM32F10x_StdPeriph_Driver/src/stm32f10x_sdio.c ****   *     @arg SDIO_FLAG_CMDREND:  Command response received (CRC check passed)
 646:lib/STM32F10x_StdPeriph_Driver/src/stm32f10x_sdio.c ****   *     @arg SDIO_FLAG_CMDSENT:  Command sent (no response required)
 647:lib/STM32F10x_StdPeriph_Driver/src/stm32f10x_sdio.c ****   *     @arg SDIO_FLAG_DATAEND:  Data end (data counter, SDIDCOUNT, is zero)
 648:lib/STM32F10x_StdPeriph_Driver/src/stm32f10x_sdio.c ****   *     @arg SDIO_FLAG_STBITERR: Start bit not detected on all data signals in wide 
 649:lib/STM32F10x_StdPeriph_Driver/src/stm32f10x_sdio.c ****   *                              bus mode.
 650:lib/STM32F10x_StdPeriph_Driver/src/stm32f10x_sdio.c ****   *     @arg SDIO_FLAG_DBCKEND:  Data block sent/received (CRC check passed)
 651:lib/STM32F10x_StdPeriph_Driver/src/stm32f10x_sdio.c ****   *     @arg SDIO_FLAG_CMDACT:   Command transfer in progress
 652:lib/STM32F10x_StdPeriph_Driver/src/stm32f10x_sdio.c ****   *     @arg SDIO_FLAG_TXACT:    Data transmit in progress
 653:lib/STM32F10x_StdPeriph_Driver/src/stm32f10x_sdio.c ****   *     @arg SDIO_FLAG_RXACT:    Data receive in progress
 654:lib/STM32F10x_StdPeriph_Driver/src/stm32f10x_sdio.c ****   *     @arg SDIO_FLAG_TXFIFOHE: Transmit FIFO Half Empty
 655:lib/STM32F10x_StdPeriph_Driver/src/stm32f10x_sdio.c ****   *     @arg SDIO_FLAG_RXFIFOHF: Receive FIFO Half Full
 656:lib/STM32F10x_StdPeriph_Driver/src/stm32f10x_sdio.c ****   *     @arg SDIO_FLAG_TXFIFOF:  Transmit FIFO full
 657:lib/STM32F10x_StdPeriph_Driver/src/stm32f10x_sdio.c ****   *     @arg SDIO_FLAG_RXFIFOF:  Receive FIFO full
 658:lib/STM32F10x_StdPeriph_Driver/src/stm32f10x_sdio.c ****   *     @arg SDIO_FLAG_TXFIFOE:  Transmit FIFO empty
 659:lib/STM32F10x_StdPeriph_Driver/src/stm32f10x_sdio.c ****   *     @arg SDIO_FLAG_RXFIFOE:  Receive FIFO empty
 660:lib/STM32F10x_StdPeriph_Driver/src/stm32f10x_sdio.c ****   *     @arg SDIO_FLAG_TXDAVL:   Data available in transmit FIFO
 661:lib/STM32F10x_StdPeriph_Driver/src/stm32f10x_sdio.c ****   *     @arg SDIO_FLAG_RXDAVL:   Data available in receive FIFO
 662:lib/STM32F10x_StdPeriph_Driver/src/stm32f10x_sdio.c ****   *     @arg SDIO_FLAG_SDIOIT:   SD I/O interrupt received
 663:lib/STM32F10x_StdPeriph_Driver/src/stm32f10x_sdio.c ****   *     @arg SDIO_FLAG_CEATAEND: CE-ATA command completion signal received for CMD61
 664:lib/STM32F10x_StdPeriph_Driver/src/stm32f10x_sdio.c ****   * @retval The new state of SDIO_FLAG (SET or RESET).
 665:lib/STM32F10x_StdPeriph_Driver/src/stm32f10x_sdio.c ****   */
 666:lib/STM32F10x_StdPeriph_Driver/src/stm32f10x_sdio.c **** FlagStatus SDIO_GetFlagStatus(uint32_t SDIO_FLAG)
 667:lib/STM32F10x_StdPeriph_Driver/src/stm32f10x_sdio.c **** { 
 668:lib/STM32F10x_StdPeriph_Driver/src/stm32f10x_sdio.c ****   FlagStatus bitstatus = RESET;
 669:lib/STM32F10x_StdPeriph_Driver/src/stm32f10x_sdio.c ****   
 670:lib/STM32F10x_StdPeriph_Driver/src/stm32f10x_sdio.c ****   /* Check the parameters */
 671:lib/STM32F10x_StdPeriph_Driver/src/stm32f10x_sdio.c ****   assert_param(IS_SDIO_FLAG(SDIO_FLAG));
 672:lib/STM32F10x_StdPeriph_Driver/src/stm32f10x_sdio.c ****   
 673:lib/STM32F10x_StdPeriph_Driver/src/stm32f10x_sdio.c ****   if ((SDIO->STA & SDIO_FLAG) != (uint32_t)RESET)
 674:lib/STM32F10x_StdPeriph_Driver/src/stm32f10x_sdio.c ****   {
 675:lib/STM32F10x_StdPeriph_Driver/src/stm32f10x_sdio.c ****     bitstatus = SET;
 676:lib/STM32F10x_StdPeriph_Driver/src/stm32f10x_sdio.c ****   }
 677:lib/STM32F10x_StdPeriph_Driver/src/stm32f10x_sdio.c ****   else
 678:lib/STM32F10x_StdPeriph_Driver/src/stm32f10x_sdio.c ****   {
 679:lib/STM32F10x_StdPeriph_Driver/src/stm32f10x_sdio.c ****     bitstatus = RESET;
 680:lib/STM32F10x_StdPeriph_Driver/src/stm32f10x_sdio.c ****   }
 681:lib/STM32F10x_StdPeriph_Driver/src/stm32f10x_sdio.c ****   return bitstatus;
 682:lib/STM32F10x_StdPeriph_Driver/src/stm32f10x_sdio.c **** }
 683:lib/STM32F10x_StdPeriph_Driver/src/stm32f10x_sdio.c **** 
 684:lib/STM32F10x_StdPeriph_Driver/src/stm32f10x_sdio.c **** /**
 685:lib/STM32F10x_StdPeriph_Driver/src/stm32f10x_sdio.c ****   * @brief  Clears the SDIO's pending flags.
 686:lib/STM32F10x_StdPeriph_Driver/src/stm32f10x_sdio.c ****   * @param  SDIO_FLAG: specifies the flag to clear.  
 687:lib/STM32F10x_StdPeriph_Driver/src/stm32f10x_sdio.c ****   *   This parameter can be one or a combination of the following values:
 688:lib/STM32F10x_StdPeriph_Driver/src/stm32f10x_sdio.c ****   *     @arg SDIO_FLAG_CCRCFAIL: Command response received (CRC check failed)
 689:lib/STM32F10x_StdPeriph_Driver/src/stm32f10x_sdio.c ****   *     @arg SDIO_FLAG_DCRCFAIL: Data block sent/received (CRC check failed)
 690:lib/STM32F10x_StdPeriph_Driver/src/stm32f10x_sdio.c ****   *     @arg SDIO_FLAG_CTIMEOUT: Command response timeout
 691:lib/STM32F10x_StdPeriph_Driver/src/stm32f10x_sdio.c ****   *     @arg SDIO_FLAG_DTIMEOUT: Data timeout
 692:lib/STM32F10x_StdPeriph_Driver/src/stm32f10x_sdio.c ****   *     @arg SDIO_FLAG_TXUNDERR: Transmit FIFO underrun error
 693:lib/STM32F10x_StdPeriph_Driver/src/stm32f10x_sdio.c ****   *     @arg SDIO_FLAG_RXOVERR:  Received FIFO overrun error
 694:lib/STM32F10x_StdPeriph_Driver/src/stm32f10x_sdio.c ****   *     @arg SDIO_FLAG_CMDREND:  Command response received (CRC check passed)
 695:lib/STM32F10x_StdPeriph_Driver/src/stm32f10x_sdio.c ****   *     @arg SDIO_FLAG_CMDSENT:  Command sent (no response required)
 696:lib/STM32F10x_StdPeriph_Driver/src/stm32f10x_sdio.c ****   *     @arg SDIO_FLAG_DATAEND:  Data end (data counter, SDIDCOUNT, is zero)
 697:lib/STM32F10x_StdPeriph_Driver/src/stm32f10x_sdio.c ****   *     @arg SDIO_FLAG_STBITERR: Start bit not detected on all data signals in wide 
 698:lib/STM32F10x_StdPeriph_Driver/src/stm32f10x_sdio.c ****   *                              bus mode
 699:lib/STM32F10x_StdPeriph_Driver/src/stm32f10x_sdio.c ****   *     @arg SDIO_FLAG_DBCKEND:  Data block sent/received (CRC check passed)
 700:lib/STM32F10x_StdPeriph_Driver/src/stm32f10x_sdio.c ****   *     @arg SDIO_FLAG_SDIOIT:   SD I/O interrupt received
 701:lib/STM32F10x_StdPeriph_Driver/src/stm32f10x_sdio.c ****   *     @arg SDIO_FLAG_CEATAEND: CE-ATA command completion signal received for CMD61
 702:lib/STM32F10x_StdPeriph_Driver/src/stm32f10x_sdio.c ****   * @retval None
 703:lib/STM32F10x_StdPeriph_Driver/src/stm32f10x_sdio.c ****   */
 704:lib/STM32F10x_StdPeriph_Driver/src/stm32f10x_sdio.c **** void SDIO_ClearFlag(uint32_t SDIO_FLAG)
 705:lib/STM32F10x_StdPeriph_Driver/src/stm32f10x_sdio.c **** { 
 706:lib/STM32F10x_StdPeriph_Driver/src/stm32f10x_sdio.c ****   /* Check the parameters */
 707:lib/STM32F10x_StdPeriph_Driver/src/stm32f10x_sdio.c ****   assert_param(IS_SDIO_CLEAR_FLAG(SDIO_FLAG));
 708:lib/STM32F10x_StdPeriph_Driver/src/stm32f10x_sdio.c ****    
 709:lib/STM32F10x_StdPeriph_Driver/src/stm32f10x_sdio.c ****   SDIO->ICR = SDIO_FLAG;
 710:lib/STM32F10x_StdPeriph_Driver/src/stm32f10x_sdio.c **** }
 711:lib/STM32F10x_StdPeriph_Driver/src/stm32f10x_sdio.c **** 
 712:lib/STM32F10x_StdPeriph_Driver/src/stm32f10x_sdio.c **** /**
 713:lib/STM32F10x_StdPeriph_Driver/src/stm32f10x_sdio.c ****   * @brief  Checks whether the specified SDIO interrupt has occurred or not.
 714:lib/STM32F10x_StdPeriph_Driver/src/stm32f10x_sdio.c ****   * @param  SDIO_IT: specifies the SDIO interrupt source to check. 
 715:lib/STM32F10x_StdPeriph_Driver/src/stm32f10x_sdio.c ****   *   This parameter can be one of the following values:
 716:lib/STM32F10x_StdPeriph_Driver/src/stm32f10x_sdio.c ****   *     @arg SDIO_IT_CCRCFAIL: Command response received (CRC check failed) interrupt
 717:lib/STM32F10x_StdPeriph_Driver/src/stm32f10x_sdio.c ****   *     @arg SDIO_IT_DCRCFAIL: Data block sent/received (CRC check failed) interrupt
 718:lib/STM32F10x_StdPeriph_Driver/src/stm32f10x_sdio.c ****   *     @arg SDIO_IT_CTIMEOUT: Command response timeout interrupt
 719:lib/STM32F10x_StdPeriph_Driver/src/stm32f10x_sdio.c ****   *     @arg SDIO_IT_DTIMEOUT: Data timeout interrupt
 720:lib/STM32F10x_StdPeriph_Driver/src/stm32f10x_sdio.c ****   *     @arg SDIO_IT_TXUNDERR: Transmit FIFO underrun error interrupt
 721:lib/STM32F10x_StdPeriph_Driver/src/stm32f10x_sdio.c ****   *     @arg SDIO_IT_RXOVERR:  Received FIFO overrun error interrupt
 722:lib/STM32F10x_StdPeriph_Driver/src/stm32f10x_sdio.c ****   *     @arg SDIO_IT_CMDREND:  Command response received (CRC check passed) interrupt
 723:lib/STM32F10x_StdPeriph_Driver/src/stm32f10x_sdio.c ****   *     @arg SDIO_IT_CMDSENT:  Command sent (no response required) interrupt
 724:lib/STM32F10x_StdPeriph_Driver/src/stm32f10x_sdio.c ****   *     @arg SDIO_IT_DATAEND:  Data end (data counter, SDIDCOUNT, is zero) interrupt
 725:lib/STM32F10x_StdPeriph_Driver/src/stm32f10x_sdio.c ****   *     @arg SDIO_IT_STBITERR: Start bit not detected on all data signals in wide 
 726:lib/STM32F10x_StdPeriph_Driver/src/stm32f10x_sdio.c ****   *                            bus mode interrupt
 727:lib/STM32F10x_StdPeriph_Driver/src/stm32f10x_sdio.c ****   *     @arg SDIO_IT_DBCKEND:  Data block sent/received (CRC check passed) interrupt
 728:lib/STM32F10x_StdPeriph_Driver/src/stm32f10x_sdio.c ****   *     @arg SDIO_IT_CMDACT:   Command transfer in progress interrupt
 729:lib/STM32F10x_StdPeriph_Driver/src/stm32f10x_sdio.c ****   *     @arg SDIO_IT_TXACT:    Data transmit in progress interrupt
 730:lib/STM32F10x_StdPeriph_Driver/src/stm32f10x_sdio.c ****   *     @arg SDIO_IT_RXACT:    Data receive in progress interrupt
 731:lib/STM32F10x_StdPeriph_Driver/src/stm32f10x_sdio.c ****   *     @arg SDIO_IT_TXFIFOHE: Transmit FIFO Half Empty interrupt
 732:lib/STM32F10x_StdPeriph_Driver/src/stm32f10x_sdio.c ****   *     @arg SDIO_IT_RXFIFOHF: Receive FIFO Half Full interrupt
 733:lib/STM32F10x_StdPeriph_Driver/src/stm32f10x_sdio.c ****   *     @arg SDIO_IT_TXFIFOF:  Transmit FIFO full interrupt
 734:lib/STM32F10x_StdPeriph_Driver/src/stm32f10x_sdio.c ****   *     @arg SDIO_IT_RXFIFOF:  Receive FIFO full interrupt
 735:lib/STM32F10x_StdPeriph_Driver/src/stm32f10x_sdio.c ****   *     @arg SDIO_IT_TXFIFOE:  Transmit FIFO empty interrupt
 736:lib/STM32F10x_StdPeriph_Driver/src/stm32f10x_sdio.c ****   *     @arg SDIO_IT_RXFIFOE:  Receive FIFO empty interrupt
 737:lib/STM32F10x_StdPeriph_Driver/src/stm32f10x_sdio.c ****   *     @arg SDIO_IT_TXDAVL:   Data available in transmit FIFO interrupt
 738:lib/STM32F10x_StdPeriph_Driver/src/stm32f10x_sdio.c ****   *     @arg SDIO_IT_RXDAVL:   Data available in receive FIFO interrupt
 739:lib/STM32F10x_StdPeriph_Driver/src/stm32f10x_sdio.c ****   *     @arg SDIO_IT_SDIOIT:   SD I/O interrupt received interrupt
 740:lib/STM32F10x_StdPeriph_Driver/src/stm32f10x_sdio.c ****   *     @arg SDIO_IT_CEATAEND: CE-ATA command completion signal received for CMD61 interrupt
 741:lib/STM32F10x_StdPeriph_Driver/src/stm32f10x_sdio.c ****   * @retval The new state of SDIO_IT (SET or RESET).
 742:lib/STM32F10x_StdPeriph_Driver/src/stm32f10x_sdio.c ****   */
 743:lib/STM32F10x_StdPeriph_Driver/src/stm32f10x_sdio.c **** ITStatus SDIO_GetITStatus(uint32_t SDIO_IT)
 744:lib/STM32F10x_StdPeriph_Driver/src/stm32f10x_sdio.c **** { 
 888              		.loc 1 744 0
 889              		.cfi_startproc
 890              		@ args = 0, pretend = 0, frame = 0
 891              		@ frame_needed = 0, uses_anonymous_args = 0
 892              		@ link register save eliminated.
 893              	.LVL36:
 745:lib/STM32F10x_StdPeriph_Driver/src/stm32f10x_sdio.c ****   ITStatus bitstatus = RESET;
 746:lib/STM32F10x_StdPeriph_Driver/src/stm32f10x_sdio.c ****   
 747:lib/STM32F10x_StdPeriph_Driver/src/stm32f10x_sdio.c ****   /* Check the parameters */
 748:lib/STM32F10x_StdPeriph_Driver/src/stm32f10x_sdio.c ****   assert_param(IS_SDIO_GET_IT(SDIO_IT));
 749:lib/STM32F10x_StdPeriph_Driver/src/stm32f10x_sdio.c ****   if ((SDIO->STA & SDIO_IT) != (uint32_t)RESET)  
 894              		.loc 1 749 0
 895 01fc 034B     		ldr	r3, .L80
 896 01fe 5B6B     		ldr	r3, [r3, #52]
 897              	.LVL37:
 898 0200 0342     		tst	r3, r0
 750:lib/STM32F10x_StdPeriph_Driver/src/stm32f10x_sdio.c ****   {
 751:lib/STM32F10x_StdPeriph_Driver/src/stm32f10x_sdio.c ****     bitstatus = SET;
 752:lib/STM32F10x_StdPeriph_Driver/src/stm32f10x_sdio.c ****   }
 753:lib/STM32F10x_StdPeriph_Driver/src/stm32f10x_sdio.c ****   else
 754:lib/STM32F10x_StdPeriph_Driver/src/stm32f10x_sdio.c ****   {
 755:lib/STM32F10x_StdPeriph_Driver/src/stm32f10x_sdio.c ****     bitstatus = RESET;
 756:lib/STM32F10x_StdPeriph_Driver/src/stm32f10x_sdio.c ****   }
 757:lib/STM32F10x_StdPeriph_Driver/src/stm32f10x_sdio.c ****   return bitstatus;
 758:lib/STM32F10x_StdPeriph_Driver/src/stm32f10x_sdio.c **** }
 899              		.loc 1 758 0
 900 0202 14BF     		ite	ne
 901 0204 0120     		movne	r0, #1
 902              	.LVL38:
 903 0206 0020     		moveq	r0, #0
 904 0208 7047     		bx	lr
 905              	.L81:
 906 020a 00BF     		.align	2
 907              	.L80:
 908 020c 00800140 		.word	1073840128
 909              		.cfi_endproc
 910              	.LFE57:
 912              		.align	1
 913              		.global	SDIO_GetFlagStatus
 914              		.syntax unified
 915              		.thumb
 916              		.thumb_func
 917              		.fpu softvfp
 919              	SDIO_GetFlagStatus:
 920              	.LFB62:
 921              		.cfi_startproc
 922              		@ args = 0, pretend = 0, frame = 0
 923              		@ frame_needed = 0, uses_anonymous_args = 0
 924              		@ link register save eliminated.
 925 0210 FFF7FEBF 		b	SDIO_GetITStatus
 926              		.cfi_endproc
 927              	.LFE62:
 929              		.align	1
 930              		.global	SDIO_ClearITPendingBit
 931              		.syntax unified
 932              		.thumb
 933              		.thumb_func
 934              		.fpu softvfp
 936              	SDIO_ClearITPendingBit:
 937              	.LFB58:
 759:lib/STM32F10x_StdPeriph_Driver/src/stm32f10x_sdio.c **** 
 760:lib/STM32F10x_StdPeriph_Driver/src/stm32f10x_sdio.c **** /**
 761:lib/STM32F10x_StdPeriph_Driver/src/stm32f10x_sdio.c ****   * @brief  Clears the SDIO's interrupt pending bits.
 762:lib/STM32F10x_StdPeriph_Driver/src/stm32f10x_sdio.c ****   * @param  SDIO_IT: specifies the interrupt pending bit to clear. 
 763:lib/STM32F10x_StdPeriph_Driver/src/stm32f10x_sdio.c ****   *   This parameter can be one or a combination of the following values:
 764:lib/STM32F10x_StdPeriph_Driver/src/stm32f10x_sdio.c ****   *     @arg SDIO_IT_CCRCFAIL: Command response received (CRC check failed) interrupt
 765:lib/STM32F10x_StdPeriph_Driver/src/stm32f10x_sdio.c ****   *     @arg SDIO_IT_DCRCFAIL: Data block sent/received (CRC check failed) interrupt
 766:lib/STM32F10x_StdPeriph_Driver/src/stm32f10x_sdio.c ****   *     @arg SDIO_IT_CTIMEOUT: Command response timeout interrupt
 767:lib/STM32F10x_StdPeriph_Driver/src/stm32f10x_sdio.c ****   *     @arg SDIO_IT_DTIMEOUT: Data timeout interrupt
 768:lib/STM32F10x_StdPeriph_Driver/src/stm32f10x_sdio.c ****   *     @arg SDIO_IT_TXUNDERR: Transmit FIFO underrun error interrupt
 769:lib/STM32F10x_StdPeriph_Driver/src/stm32f10x_sdio.c ****   *     @arg SDIO_IT_RXOVERR:  Received FIFO overrun error interrupt
 770:lib/STM32F10x_StdPeriph_Driver/src/stm32f10x_sdio.c ****   *     @arg SDIO_IT_CMDREND:  Command response received (CRC check passed) interrupt
 771:lib/STM32F10x_StdPeriph_Driver/src/stm32f10x_sdio.c ****   *     @arg SDIO_IT_CMDSENT:  Command sent (no response required) interrupt
 772:lib/STM32F10x_StdPeriph_Driver/src/stm32f10x_sdio.c ****   *     @arg SDIO_IT_DATAEND:  Data end (data counter, SDIDCOUNT, is zero) interrupt
 773:lib/STM32F10x_StdPeriph_Driver/src/stm32f10x_sdio.c ****   *     @arg SDIO_IT_STBITERR: Start bit not detected on all data signals in wide 
 774:lib/STM32F10x_StdPeriph_Driver/src/stm32f10x_sdio.c ****   *                            bus mode interrupt
 775:lib/STM32F10x_StdPeriph_Driver/src/stm32f10x_sdio.c ****   *     @arg SDIO_IT_SDIOIT:   SD I/O interrupt received interrupt
 776:lib/STM32F10x_StdPeriph_Driver/src/stm32f10x_sdio.c ****   *     @arg SDIO_IT_CEATAEND: CE-ATA command completion signal received for CMD61
 777:lib/STM32F10x_StdPeriph_Driver/src/stm32f10x_sdio.c ****   * @retval None
 778:lib/STM32F10x_StdPeriph_Driver/src/stm32f10x_sdio.c ****   */
 779:lib/STM32F10x_StdPeriph_Driver/src/stm32f10x_sdio.c **** void SDIO_ClearITPendingBit(uint32_t SDIO_IT)
 780:lib/STM32F10x_StdPeriph_Driver/src/stm32f10x_sdio.c **** { 
 938              		.loc 1 780 0
 939              		.cfi_startproc
 940              		@ args = 0, pretend = 0, frame = 0
 941              		@ frame_needed = 0, uses_anonymous_args = 0
 942              		@ link register save eliminated.
 943              	.LVL39:
 781:lib/STM32F10x_StdPeriph_Driver/src/stm32f10x_sdio.c ****   /* Check the parameters */
 782:lib/STM32F10x_StdPeriph_Driver/src/stm32f10x_sdio.c ****   assert_param(IS_SDIO_CLEAR_IT(SDIO_IT));
 783:lib/STM32F10x_StdPeriph_Driver/src/stm32f10x_sdio.c ****    
 784:lib/STM32F10x_StdPeriph_Driver/src/stm32f10x_sdio.c ****   SDIO->ICR = SDIO_IT;
 944              		.loc 1 784 0
 945 0214 014B     		ldr	r3, .L84
 946 0216 9863     		str	r0, [r3, #56]
 947 0218 7047     		bx	lr
 948              	.L85:
 949 021a 00BF     		.align	2
 950              	.L84:
 951 021c 00800140 		.word	1073840128
 952              		.cfi_endproc
 953              	.LFE58:
 955              	.Letext0:
 956              		.file 2 "/opt/gcc-arm/gcc-arm-none-eabi-6_2-2016q4/arm-none-eabi/include/machine/_default_types.h"
 957              		.file 3 "/opt/gcc-arm/gcc-arm-none-eabi-6_2-2016q4/arm-none-eabi/include/sys/_stdint.h"
 958              		.file 4 "./lib/CMSIS/CM3/CoreSupport/core_cm3.h"
 959              		.file 5 "./lib/CMSIS/CM3/DeviceSupport/ST/STM32F10x/system_stm32f10x.h"
 960              		.file 6 "./lib/CMSIS/CM3/DeviceSupport/ST/STM32F10x/stm32f10x.h"
 961              		.file 7 "./lib/STM32F10x_StdPeriph_Driver/inc/stm32f10x_sdio.h"