   1              		.cpu cortex-m3
   2              		.eabi_attribute 20, 1
   3              		.eabi_attribute 21, 1
   4              		.eabi_attribute 23, 3
   5              		.eabi_attribute 24, 1
   6              		.eabi_attribute 25, 1
   7              		.eabi_attribute 26, 1
   8              		.eabi_attribute 30, 4
   9              		.eabi_attribute 34, 1
  10              		.eabi_attribute 18, 4
  11              		.file	"duration.cpp"
  12              		.text
  13              	.Ltext0:
  14              		.cfi_sections	.debug_frame
  15              		.align	1
  16              		.global	_ZN3ros22normalizeSecNSecSignedERlS0_
  17              		.syntax unified
  18              		.thumb
  19              		.thumb_func
  20              		.fpu softvfp
  22              	_ZN3ros22normalizeSecNSecSignedERlS0_:
  23              		.fnstart
  24              	.LFB231:
  25              		.file 1 "lib/ros_lib/duration.cpp"
   1:lib/ros_lib/duration.cpp **** /*
   2:lib/ros_lib/duration.cpp ****  * Software License Agreement (BSD License)
   3:lib/ros_lib/duration.cpp ****  *
   4:lib/ros_lib/duration.cpp ****  * Copyright (c) 2011, Willow Garage, Inc.
   5:lib/ros_lib/duration.cpp ****  * All rights reserved.
   6:lib/ros_lib/duration.cpp ****  *
   7:lib/ros_lib/duration.cpp ****  * Redistribution and use in source and binary forms, with or without
   8:lib/ros_lib/duration.cpp ****  * modification, are permitted provided that the following conditions
   9:lib/ros_lib/duration.cpp ****  * are met:
  10:lib/ros_lib/duration.cpp ****  *
  11:lib/ros_lib/duration.cpp ****  *  * Redistributions of source code must retain the above copyright
  12:lib/ros_lib/duration.cpp ****  *    notice, this list of conditions and the following disclaimer.
  13:lib/ros_lib/duration.cpp ****  *  * Redistributions in binary form must reproduce the above
  14:lib/ros_lib/duration.cpp ****  *    copyright notice, this list of conditions and the following
  15:lib/ros_lib/duration.cpp ****  *    disclaimer in the documentation and/or other materials provided
  16:lib/ros_lib/duration.cpp ****  *    with the distribution.
  17:lib/ros_lib/duration.cpp ****  *  * Neither the name of Willow Garage, Inc. nor the names of its
  18:lib/ros_lib/duration.cpp ****  *    contributors may be used to endorse or promote prducts derived
  19:lib/ros_lib/duration.cpp ****  *    from this software without specific prior written permission.
  20:lib/ros_lib/duration.cpp ****  *
  21:lib/ros_lib/duration.cpp ****  * THIS SOFTWARE IS PROVIDED BY THE COPYRIGHT HOLDERS AND CONTRIBUTORS
  22:lib/ros_lib/duration.cpp ****  * "AS IS" AND ANY EXPRESS OR IMPLIED WARRANTIES, INCLUDING, BUT NOT
  23:lib/ros_lib/duration.cpp ****  * LIMITED TO, THE IMPLIED WARRANTIES OF MERCHANTABILITY AND FITNESS
  24:lib/ros_lib/duration.cpp ****  * FOR A PARTICULAR PURPOSE ARE DISCLAIMED. IN NO EVENT SHALL THE
  25:lib/ros_lib/duration.cpp ****  * COPYRIGHT OWNER OR CONTRIBUTORS BE LIABLE FOR ANY DIRECT, INDIRECT,
  26:lib/ros_lib/duration.cpp ****  * INCIDENTAL, SPECIAL, EXEMPLARY, OR CONSEQUENTIAL DAMAGES (INCLUDING,
  27:lib/ros_lib/duration.cpp ****  * BUT NOT LIMITED TO, PROCUREMENT OF SUBSTITUTE GOODS OR SERVICES;
  28:lib/ros_lib/duration.cpp ****  * LOSS OF USE, DATA, OR PROFITS; OR BUSINESS INTERRUPTION) HOWEVER
  29:lib/ros_lib/duration.cpp ****  * CAUSED AND ON ANY THEORY OF LIABILITY, WHETHER IN CONTRACT, STRICT
  30:lib/ros_lib/duration.cpp ****  * LIABILITY, OR TORT (INCLUDING NEGLIGENCE OR OTHERWISE) ARISING IN
  31:lib/ros_lib/duration.cpp ****  * ANY WAY OUT OF THE USE OF THIS SOFTWARE, EVEN IF ADVISED OF THE
  32:lib/ros_lib/duration.cpp ****  * POSSIBILITY OF SUCH DAMAGE.
  33:lib/ros_lib/duration.cpp ****  */
  34:lib/ros_lib/duration.cpp **** 
  35:lib/ros_lib/duration.cpp **** #include <math.h>
  36:lib/ros_lib/duration.cpp **** #include "ros/duration.h"
  37:lib/ros_lib/duration.cpp **** 
  38:lib/ros_lib/duration.cpp **** namespace ros
  39:lib/ros_lib/duration.cpp **** {
  40:lib/ros_lib/duration.cpp ****   void normalizeSecNSecSigned(int32_t &sec, int32_t &nsec)
  41:lib/ros_lib/duration.cpp ****   {
  26              		.loc 1 41 0
  27              		.cfi_startproc
  28              		@ args = 0, pretend = 0, frame = 0
  29              		@ frame_needed = 0, uses_anonymous_args = 0
  30              	.LVL0:
  31 0000 30B5     		push	{r4, r5, lr}
  32              	.LCFI0:
  33              		.cfi_def_cfa_offset 12
  34              		.cfi_offset 4, -12
  35              		.cfi_offset 5, -8
  36              		.cfi_offset 14, -4
  42:lib/ros_lib/duration.cpp ****     int32_t nsec_part = nsec;
  43:lib/ros_lib/duration.cpp ****     int32_t sec_part = sec;
  44:lib/ros_lib/duration.cpp **** 
  45:lib/ros_lib/duration.cpp ****     while (nsec_part > 1000000000L)
  37              		.loc 1 45 0
  38 0002 084C     		ldr	r4, .L7
  42:lib/ros_lib/duration.cpp ****     int32_t nsec_part = nsec;
  39              		.loc 1 42 0
  40 0004 0B68     		ldr	r3, [r1]
  41              	.LVL1:
  42 0006 2546     		mov	r5, r4
  43:lib/ros_lib/duration.cpp **** 
  43              		.loc 1 43 0
  44 0008 0268     		ldr	r2, [r0]
  45              	.LVL2:
  46              	.L4:
  47              		.loc 1 45 0
  48 000a A342     		cmp	r3, r4
  49 000c 02DD     		ble	.L3
  46:lib/ros_lib/duration.cpp ****     {
  47:lib/ros_lib/duration.cpp ****       nsec_part -= 1000000000L;
  50              		.loc 1 47 0
  51 000e 1B1B     		subs	r3, r3, r4
  52              	.LVL3:
  48:lib/ros_lib/duration.cpp ****       ++sec_part;
  53              		.loc 1 48 0
  54 0010 0132     		adds	r2, r2, #1
  55              	.LVL4:
  45:lib/ros_lib/duration.cpp ****     {
  56              		.loc 1 45 0
  57 0012 FAE7     		b	.L4
  58              	.L3:
  49:lib/ros_lib/duration.cpp ****     }
  50:lib/ros_lib/duration.cpp ****     while (nsec_part < 0)
  59              		.loc 1 50 0
  60 0014 002B     		cmp	r3, #0
  61 0016 02DA     		bge	.L5
  51:lib/ros_lib/duration.cpp ****     {
  52:lib/ros_lib/duration.cpp ****       nsec_part += 1000000000L;
  62              		.loc 1 52 0
  63 0018 2B44     		add	r3, r3, r5
  64              	.LVL5:
  53:lib/ros_lib/duration.cpp ****       --sec_part;
  65              		.loc 1 53 0
  66 001a 013A     		subs	r2, r2, #1
  67              	.LVL6:
  50:lib/ros_lib/duration.cpp ****     {
  68              		.loc 1 50 0
  69 001c FAE7     		b	.L3
  70              	.L5:
  54:lib/ros_lib/duration.cpp ****     }
  55:lib/ros_lib/duration.cpp ****     sec = sec_part;
  71              		.loc 1 55 0
  72 001e 0260     		str	r2, [r0]
  56:lib/ros_lib/duration.cpp ****     nsec = nsec_part;
  73              		.loc 1 56 0
  74 0020 0B60     		str	r3, [r1]
  75 0022 30BD     		pop	{r4, r5, pc}
  76              	.L8:
  77              		.align	2
  78              	.L7:
  79 0024 00CA9A3B 		.word	1000000000
  80              		.cfi_endproc
  81              	.LFE231:
  82              		.cantunwind
  83              		.fnend
  85              		.align	1
  86              		.global	_ZN3ros8DurationpLERKS0_
  87              		.syntax unified
  88              		.thumb
  89              		.thumb_func
  90              		.fpu softvfp
  92              	_ZN3ros8DurationpLERKS0_:
  93              		.fnstart
  94              	.LFB232:
  57:lib/ros_lib/duration.cpp ****   }
  58:lib/ros_lib/duration.cpp **** 
  59:lib/ros_lib/duration.cpp ****   Duration& Duration::operator+=(const Duration &rhs)
  60:lib/ros_lib/duration.cpp ****   {
  95              		.loc 1 60 0
  96              		.cfi_startproc
  97              		@ args = 0, pretend = 0, frame = 0
  98              		@ frame_needed = 0, uses_anonymous_args = 0
  99              	.LVL7:
  61:lib/ros_lib/duration.cpp ****     sec += rhs.sec;
 100              		.loc 1 61 0
 101 0028 0368     		ldr	r3, [r0]
 102 002a 0A68     		ldr	r2, [r1]
  60:lib/ros_lib/duration.cpp ****     sec += rhs.sec;
 103              		.loc 1 60 0
 104 002c 10B5     		push	{r4, lr}
 105              	.LCFI1:
 106              		.cfi_def_cfa_offset 8
 107              		.cfi_offset 4, -8
 108              		.cfi_offset 14, -4
 109              		.loc 1 61 0
 110 002e 1344     		add	r3, r3, r2
  62:lib/ros_lib/duration.cpp ****     nsec += rhs.nsec;
 111              		.loc 1 62 0
 112 0030 4A68     		ldr	r2, [r1, #4]
 113 0032 0146     		mov	r1, r0
 114              	.LVL8:
  61:lib/ros_lib/duration.cpp ****     sec += rhs.sec;
 115              		.loc 1 61 0
 116 0034 0360     		str	r3, [r0]
 117              		.loc 1 62 0
 118 0036 4368     		ldr	r3, [r0, #4]
 119 0038 1344     		add	r3, r3, r2
 120 003a 41F8043F 		str	r3, [r1, #4]!
  63:lib/ros_lib/duration.cpp ****     normalizeSecNSecSigned(sec, nsec);
 121              		.loc 1 63 0
 122 003e FFF7FEFF 		bl	_ZN3ros22normalizeSecNSecSignedERlS0_
 123              	.LVL9:
  64:lib/ros_lib/duration.cpp ****     return *this;
  65:lib/ros_lib/duration.cpp ****   }
 124              		.loc 1 65 0
 125 0042 10BD     		pop	{r4, pc}
 126              		.cfi_endproc
 127              	.LFE232:
 128              		.cantunwind
 129              		.fnend
 131              		.align	1
 132              		.global	_ZN3ros8DurationmIERKS0_
 133              		.syntax unified
 134              		.thumb
 135              		.thumb_func
 136              		.fpu softvfp
 138              	_ZN3ros8DurationmIERKS0_:
 139              		.fnstart
 140              	.LFB233:
  66:lib/ros_lib/duration.cpp **** 
  67:lib/ros_lib/duration.cpp ****   Duration& Duration::operator-=(const Duration &rhs){
 141              		.loc 1 67 0
 142              		.cfi_startproc
 143              		@ args = 0, pretend = 0, frame = 0
 144              		@ frame_needed = 0, uses_anonymous_args = 0
 145              	.LVL10:
  68:lib/ros_lib/duration.cpp ****     sec += -rhs.sec;
 146              		.loc 1 68 0
 147 0044 0368     		ldr	r3, [r0]
 148 0046 0A68     		ldr	r2, [r1]
  67:lib/ros_lib/duration.cpp ****     sec += -rhs.sec;
 149              		.loc 1 67 0
 150 0048 10B5     		push	{r4, lr}
 151              	.LCFI2:
 152              		.cfi_def_cfa_offset 8
 153              		.cfi_offset 4, -8
 154              		.cfi_offset 14, -4
 155              		.loc 1 68 0
 156 004a 9B1A     		subs	r3, r3, r2
  69:lib/ros_lib/duration.cpp ****     nsec += -rhs.nsec;
 157              		.loc 1 69 0
 158 004c 4A68     		ldr	r2, [r1, #4]
 159 004e 0146     		mov	r1, r0
 160              	.LVL11:
  68:lib/ros_lib/duration.cpp ****     sec += -rhs.sec;
 161              		.loc 1 68 0
 162 0050 0360     		str	r3, [r0]
 163              		.loc 1 69 0
 164 0052 4368     		ldr	r3, [r0, #4]
 165 0054 9B1A     		subs	r3, r3, r2
 166 0056 41F8043F 		str	r3, [r1, #4]!
  70:lib/ros_lib/duration.cpp ****     normalizeSecNSecSigned(sec, nsec);
 167              		.loc 1 70 0
 168 005a FFF7FEFF 		bl	_ZN3ros22normalizeSecNSecSignedERlS0_
 169              	.LVL12:
  71:lib/ros_lib/duration.cpp ****     return *this;
  72:lib/ros_lib/duration.cpp ****   }
 170              		.loc 1 72 0
 171 005e 10BD     		pop	{r4, pc}
 172              		.cfi_endproc
 173              	.LFE233:
 174              		.cantunwind
 175              		.fnend
 177              		.global	__aeabi_i2d
 178              		.global	__aeabi_dmul
 179              		.global	__aeabi_d2iz
 180              		.align	1
 181              		.global	_ZN3ros8DurationmLEd
 182              		.syntax unified
 183              		.thumb
 184              		.thumb_func
 185              		.fpu softvfp
 187              	_ZN3ros8DurationmLEd:
 188              		.fnstart
 189              	.LFB234:
  73:lib/ros_lib/duration.cpp **** 
  74:lib/ros_lib/duration.cpp ****   Duration& Duration::operator*=(double scale){
 190              		.loc 1 74 0
 191              		.cfi_startproc
 192              		@ args = 0, pretend = 0, frame = 0
 193              		@ frame_needed = 0, uses_anonymous_args = 0
 194              	.LVL13:
 195 0060 D0B5     		push	{r4, r6, r7, lr}
 196              	.LCFI3:
 197              		.cfi_def_cfa_offset 16
 198              		.cfi_offset 4, -16
 199              		.cfi_offset 6, -12
 200              		.cfi_offset 7, -8
 201              		.cfi_offset 14, -4
 202              		.loc 1 74 0
 203 0062 1646     		mov	r6, r2
 204 0064 1F46     		mov	r7, r3
 205 0066 0446     		mov	r4, r0
  75:lib/ros_lib/duration.cpp ****     sec *= scale;
 206              		.loc 1 75 0
 207 0068 0068     		ldr	r0, [r0]
 208              	.LVL14:
 209 006a FFF7FEFF 		bl	__aeabi_i2d
 210              	.LVL15:
 211 006e 3246     		mov	r2, r6
 212 0070 3B46     		mov	r3, r7
 213 0072 FFF7FEFF 		bl	__aeabi_dmul
 214              	.LVL16:
 215 0076 FFF7FEFF 		bl	__aeabi_d2iz
 216              	.LVL17:
 217 007a 2060     		str	r0, [r4]
  76:lib/ros_lib/duration.cpp ****     nsec *= scale;
 218              		.loc 1 76 0
 219 007c 6068     		ldr	r0, [r4, #4]
 220 007e FFF7FEFF 		bl	__aeabi_i2d
 221              	.LVL18:
 222 0082 3246     		mov	r2, r6
 223 0084 3B46     		mov	r3, r7
 224 0086 FFF7FEFF 		bl	__aeabi_dmul
 225              	.LVL19:
 226 008a FFF7FEFF 		bl	__aeabi_d2iz
 227              	.LVL20:
 228 008e 2146     		mov	r1, r4
 229 0090 41F8040F 		str	r0, [r1, #4]!
  77:lib/ros_lib/duration.cpp ****     normalizeSecNSecSigned(sec, nsec);
 230              		.loc 1 77 0
 231 0094 2046     		mov	r0, r4
 232 0096 FFF7FEFF 		bl	_ZN3ros22normalizeSecNSecSignedERlS0_
 233              	.LVL21:
  78:lib/ros_lib/duration.cpp ****     return *this;
  79:lib/ros_lib/duration.cpp ****   }
 234              		.loc 1 79 0
 235 009a 2046     		mov	r0, r4
 236 009c D0BD     		pop	{r4, r6, r7, pc}
 237              		.cfi_endproc
 238              	.LFE234:
 239              		.cantunwind
 240              		.fnend
 242              	.Letext0:
 243              		.file 2 "/opt/gcc-arm/gcc-arm-none-eabi-6_2-2016q4/arm-none-eabi/include/c++/6.2.1/cmath"
 244              		.file 3 "/opt/gcc-arm/gcc-arm-none-eabi-6_2-2016q4/arm-none-eabi/include/c++/6.2.1/arm-none-eabi/t
 245              		.file 4 "/opt/gcc-arm/gcc-arm-none-eabi-6_2-2016q4/arm-none-eabi/include/machine/_default_types.h"
 246              		.file 5 "/opt/gcc-arm/gcc-arm-none-eabi-6_2-2016q4/arm-none-eabi/include/sys/lock.h"
 247              		.file 6 "/opt/gcc-arm/gcc-arm-none-eabi-6_2-2016q4/arm-none-eabi/include/sys/_types.h"
 248              		.file 7 "/opt/gcc-arm/gcc-arm-none-eabi-6_2-2016q4/lib/gcc/arm-none-eabi/6.2.1/include/stddef.h"
 249              		.file 8 "/opt/gcc-arm/gcc-arm-none-eabi-6_2-2016q4/arm-none-eabi/include/sys/reent.h"
 250              		.file 9 "/opt/gcc-arm/gcc-arm-none-eabi-6_2-2016q4/arm-none-eabi/include/math.h"
 251              		.file 10 "/opt/gcc-arm/gcc-arm-none-eabi-6_2-2016q4/arm-none-eabi/include/c++/6.2.1/math.h"
 252              		.file 11 "/opt/gcc-arm/gcc-arm-none-eabi-6_2-2016q4/arm-none-eabi/include/sys/_stdint.h"
 253              		.file 12 "<built-in>"
 254              		.file 13 "lib/ros_lib/ros/duration.h"