   1              		.cpu cortex-m3
   2              		.eabi_attribute 20, 1
   3              		.eabi_attribute 21, 1
   4              		.eabi_attribute 23, 3
   5              		.eabi_attribute 24, 1
   6              		.eabi_attribute 25, 1
   7              		.eabi_attribute 26, 1
   8              		.eabi_attribute 30, 4
   9              		.eabi_attribute 34, 1
  10              		.eabi_attribute 18, 4
  11              		.file	"time.cpp"
  12              		.text
  13              	.Ltext0:
  14              		.cfi_sections	.debug_frame
  15              		.align	1
  16              		.global	_ZN3ros16normalizeSecNSecERmS0_
  17              		.syntax unified
  18              		.thumb
  19              		.thumb_func
  20              		.fpu softvfp
  22              	_ZN3ros16normalizeSecNSecERmS0_:
  23              		.fnstart
  24              	.LFB240:
  25              		.file 1 "lib/ros_lib/time.cpp"
   1:lib/ros_lib/time.cpp **** /*
   2:lib/ros_lib/time.cpp ****  * Software License Agreement (BSD License)
   3:lib/ros_lib/time.cpp ****  *
   4:lib/ros_lib/time.cpp ****  * Copyright (c) 2011, Willow Garage, Inc.
   5:lib/ros_lib/time.cpp ****  * All rights reserved.
   6:lib/ros_lib/time.cpp ****  *
   7:lib/ros_lib/time.cpp ****  * Redistribution and use in source and binary forms, with or without
   8:lib/ros_lib/time.cpp ****  * modification, are permitted provided that the following conditions
   9:lib/ros_lib/time.cpp ****  * are met:
  10:lib/ros_lib/time.cpp ****  *
  11:lib/ros_lib/time.cpp ****  *  * Redistributions of source code must retain the above copyright
  12:lib/ros_lib/time.cpp ****  *    notice, this list of conditions and the following disclaimer.
  13:lib/ros_lib/time.cpp ****  *  * Redistributions in binary form must reproduce the above
  14:lib/ros_lib/time.cpp ****  *    copyright notice, this list of conditions and the following
  15:lib/ros_lib/time.cpp ****  *    disclaimer in the documentation and/or other materials provided
  16:lib/ros_lib/time.cpp ****  *    with the distribution.
  17:lib/ros_lib/time.cpp ****  *  * Neither the name of Willow Garage, Inc. nor the names of its
  18:lib/ros_lib/time.cpp ****  *    contributors may be used to endorse or promote prducts derived
  19:lib/ros_lib/time.cpp ****  *    from this software without specific prior written permission.
  20:lib/ros_lib/time.cpp ****  *
  21:lib/ros_lib/time.cpp ****  * THIS SOFTWARE IS PROVIDED BY THE COPYRIGHT HOLDERS AND CONTRIBUTORS
  22:lib/ros_lib/time.cpp ****  * "AS IS" AND ANY EXPRESS OR IMPLIED WARRANTIES, INCLUDING, BUT NOT
  23:lib/ros_lib/time.cpp ****  * LIMITED TO, THE IMPLIED WARRANTIES OF MERCHANTABILITY AND FITNESS
  24:lib/ros_lib/time.cpp ****  * FOR A PARTICULAR PURPOSE ARE DISCLAIMED. IN NO EVENT SHALL THE
  25:lib/ros_lib/time.cpp ****  * COPYRIGHT OWNER OR CONTRIBUTORS BE LIABLE FOR ANY DIRECT, INDIRECT,
  26:lib/ros_lib/time.cpp ****  * INCIDENTAL, SPECIAL, EXEMPLARY, OR CONSEQUENTIAL DAMAGES (INCLUDING,
  27:lib/ros_lib/time.cpp ****  * BUT NOT LIMITED TO, PROCUREMENT OF SUBSTITUTE GOODS OR SERVICES;
  28:lib/ros_lib/time.cpp ****  * LOSS OF USE, DATA, OR PROFITS; OR BUSINESS INTERRUPTION) HOWEVER
  29:lib/ros_lib/time.cpp ****  * CAUSED AND ON ANY THEORY OF LIABILITY, WHETHER IN CONTRACT, STRICT
  30:lib/ros_lib/time.cpp ****  * LIABILITY, OR TORT (INCLUDING NEGLIGENCE OR OTHERWISE) ARISING IN
  31:lib/ros_lib/time.cpp ****  * ANY WAY OUT OF THE USE OF THIS SOFTWARE, EVEN IF ADVISED OF THE
  32:lib/ros_lib/time.cpp ****  * POSSIBILITY OF SUCH DAMAGE.
  33:lib/ros_lib/time.cpp ****  */
  34:lib/ros_lib/time.cpp **** 
  35:lib/ros_lib/time.cpp **** #include "ros/time.h"
  36:lib/ros_lib/time.cpp **** 
  37:lib/ros_lib/time.cpp **** namespace ros
  38:lib/ros_lib/time.cpp **** {
  39:lib/ros_lib/time.cpp ****   void normalizeSecNSec(uint32_t& sec, uint32_t& nsec){
  26              		.loc 1 39 0
  27              		.cfi_startproc
  28              		@ args = 0, pretend = 0, frame = 0
  29              		@ frame_needed = 0, uses_anonymous_args = 0
  30              	.LVL0:
  31 0000 30B5     		push	{r4, r5, lr}
  32              	.LCFI0:
  33              		.cfi_def_cfa_offset 12
  34              		.cfi_offset 4, -12
  35              		.cfi_offset 5, -8
  36              		.cfi_offset 14, -4
  40:lib/ros_lib/time.cpp ****     uint32_t nsec_part= nsec % 1000000000UL;
  37              		.loc 1 40 0
  38 0002 0D68     		ldr	r5, [r1]
  39              	.LVL1:
  41:lib/ros_lib/time.cpp ****     uint32_t sec_part = nsec / 1000000000UL;
  40              		.loc 1 41 0
  41 0004 044C     		ldr	r4, .L2
  42:lib/ros_lib/time.cpp ****     sec += sec_part;
  42              		.loc 1 42 0
  43 0006 0268     		ldr	r2, [r0]
  41:lib/ros_lib/time.cpp ****     uint32_t sec_part = nsec / 1000000000UL;
  44              		.loc 1 41 0
  45 0008 B5FBF4F3 		udiv	r3, r5, r4
  46              	.LVL2:
  47              		.loc 1 42 0
  48 000c 1A44     		add	r2, r2, r3
  40:lib/ros_lib/time.cpp ****     uint32_t nsec_part= nsec % 1000000000UL;
  49              		.loc 1 40 0
  50 000e 04FB1353 		mls	r3, r4, r3, r5
  51              	.LVL3:
  52              		.loc 1 42 0
  53 0012 0260     		str	r2, [r0]
  43:lib/ros_lib/time.cpp ****     nsec = nsec_part;
  54              		.loc 1 43 0
  55 0014 0B60     		str	r3, [r1]
  56 0016 30BD     		pop	{r4, r5, pc}
  57              	.LVL4:
  58              	.L3:
  59              		.align	2
  60              	.L2:
  61 0018 00CA9A3B 		.word	1000000000
  62              		.cfi_endproc
  63              	.LFE240:
  64              		.cantunwind
  65              		.fnend
  67              		.align	1
  68              		.global	_ZN3ros4Time8fromNSecEl
  69              		.syntax unified
  70              		.thumb
  71              		.thumb_func
  72              		.fpu softvfp
  74              	_ZN3ros4Time8fromNSecEl:
  75              		.fnstart
  76              	.LFB241:
  44:lib/ros_lib/time.cpp ****   }
  45:lib/ros_lib/time.cpp **** 
  46:lib/ros_lib/time.cpp ****   Time& Time::fromNSec(int32_t t)
  47:lib/ros_lib/time.cpp ****   {
  77              		.loc 1 47 0
  78              		.cfi_startproc
  79              		@ args = 0, pretend = 0, frame = 0
  80              		@ frame_needed = 0, uses_anonymous_args = 0
  81              	.LVL5:
  48:lib/ros_lib/time.cpp ****     sec = t / 1000000000;
  82              		.loc 1 48 0
  83 001c 064A     		ldr	r2, .L5
  47:lib/ros_lib/time.cpp ****     sec = t / 1000000000;
  84              		.loc 1 47 0
  85 001e 10B5     		push	{r4, lr}
  86              	.LCFI1:
  87              		.cfi_def_cfa_offset 8
  88              		.cfi_offset 4, -8
  89              		.cfi_offset 14, -4
  90              		.loc 1 48 0
  91 0020 91FBF2F3 		sdiv	r3, r1, r2
  92 0024 0360     		str	r3, [r0]
  49:lib/ros_lib/time.cpp ****     nsec = t % 1000000000;
  93              		.loc 1 49 0
  94 0026 02FB1313 		mls	r3, r2, r3, r1
  95 002a 0146     		mov	r1, r0
  96              	.LVL6:
  97 002c 41F8043F 		str	r3, [r1, #4]!
  50:lib/ros_lib/time.cpp ****     normalizeSecNSec(sec, nsec);
  98              		.loc 1 50 0
  99 0030 FFF7FEFF 		bl	_ZN3ros16normalizeSecNSecERmS0_
 100              	.LVL7:
  51:lib/ros_lib/time.cpp ****     return *this;
  52:lib/ros_lib/time.cpp ****   }
 101              		.loc 1 52 0
 102 0034 10BD     		pop	{r4, pc}
 103              	.L6:
 104 0036 00BF     		.align	2
 105              	.L5:
 106 0038 00CA9A3B 		.word	1000000000
 107              		.cfi_endproc
 108              	.LFE241:
 109              		.cantunwind
 110              		.fnend
 112              		.align	1
 113              		.global	_ZN3ros4TimepLERKNS_8DurationE
 114              		.syntax unified
 115              		.thumb
 116              		.thumb_func
 117              		.fpu softvfp
 119              	_ZN3ros4TimepLERKNS_8DurationE:
 120              		.fnstart
 121              	.LFB242:
  53:lib/ros_lib/time.cpp **** 
  54:lib/ros_lib/time.cpp ****   Time& Time::operator +=(const Duration &rhs)
  55:lib/ros_lib/time.cpp ****   {
 122              		.loc 1 55 0
 123              		.cfi_startproc
 124              		@ args = 0, pretend = 0, frame = 0
 125              		@ frame_needed = 0, uses_anonymous_args = 0
 126              	.LVL8:
  56:lib/ros_lib/time.cpp ****     sec += rhs.sec;
 127              		.loc 1 56 0
 128 003c 0368     		ldr	r3, [r0]
 129 003e 0A68     		ldr	r2, [r1]
  55:lib/ros_lib/time.cpp ****     sec += rhs.sec;
 130              		.loc 1 55 0
 131 0040 10B5     		push	{r4, lr}
 132              	.LCFI2:
 133              		.cfi_def_cfa_offset 8
 134              		.cfi_offset 4, -8
 135              		.cfi_offset 14, -4
 136              		.loc 1 56 0
 137 0042 1344     		add	r3, r3, r2
  57:lib/ros_lib/time.cpp ****     nsec += rhs.nsec;
 138              		.loc 1 57 0
 139 0044 4A68     		ldr	r2, [r1, #4]
 140 0046 0146     		mov	r1, r0
 141              	.LVL9:
  56:lib/ros_lib/time.cpp ****     sec += rhs.sec;
 142              		.loc 1 56 0
 143 0048 0360     		str	r3, [r0]
 144              		.loc 1 57 0
 145 004a 4368     		ldr	r3, [r0, #4]
 146 004c 1344     		add	r3, r3, r2
 147 004e 41F8043F 		str	r3, [r1, #4]!
  58:lib/ros_lib/time.cpp ****     normalizeSecNSec(sec, nsec);
 148              		.loc 1 58 0
 149 0052 FFF7FEFF 		bl	_ZN3ros16normalizeSecNSecERmS0_
 150              	.LVL10:
  59:lib/ros_lib/time.cpp ****     return *this;
  60:lib/ros_lib/time.cpp ****   }
 151              		.loc 1 60 0
 152 0056 10BD     		pop	{r4, pc}
 153              		.cfi_endproc
 154              	.LFE242:
 155              		.cantunwind
 156              		.fnend
 158              		.align	1
 159              		.global	_ZN3ros4TimemIERKNS_8DurationE
 160              		.syntax unified
 161              		.thumb
 162              		.thumb_func
 163              		.fpu softvfp
 165              	_ZN3ros4TimemIERKNS_8DurationE:
 166              		.fnstart
 167              	.LFB243:
  61:lib/ros_lib/time.cpp **** 
  62:lib/ros_lib/time.cpp ****   Time& Time::operator -=(const Duration &rhs){
 168              		.loc 1 62 0
 169              		.cfi_startproc
 170              		@ args = 0, pretend = 0, frame = 0
 171              		@ frame_needed = 0, uses_anonymous_args = 0
 172              	.LVL11:
  63:lib/ros_lib/time.cpp ****     sec += -rhs.sec;
 173              		.loc 1 63 0
 174 0058 0368     		ldr	r3, [r0]
 175 005a 0A68     		ldr	r2, [r1]
  62:lib/ros_lib/time.cpp ****     sec += -rhs.sec;
 176              		.loc 1 62 0
 177 005c 10B5     		push	{r4, lr}
 178              	.LCFI3:
 179              		.cfi_def_cfa_offset 8
 180              		.cfi_offset 4, -8
 181              		.cfi_offset 14, -4
 182              		.loc 1 63 0
 183 005e 9B1A     		subs	r3, r3, r2
  64:lib/ros_lib/time.cpp ****     nsec += -rhs.nsec;
 184              		.loc 1 64 0
 185 0060 4A68     		ldr	r2, [r1, #4]
 186 0062 0146     		mov	r1, r0
 187              	.LVL12:
  63:lib/ros_lib/time.cpp ****     sec += -rhs.sec;
 188              		.loc 1 63 0
 189 0064 0360     		str	r3, [r0]
 190              		.loc 1 64 0
 191 0066 4368     		ldr	r3, [r0, #4]
 192 0068 9B1A     		subs	r3, r3, r2
 193 006a 41F8043F 		str	r3, [r1, #4]!
  65:lib/ros_lib/time.cpp ****     normalizeSecNSec(sec, nsec);
 194              		.loc 1 65 0
 195 006e FFF7FEFF 		bl	_ZN3ros16normalizeSecNSecERmS0_
 196              	.LVL13:
  66:lib/ros_lib/time.cpp ****     return *this;
  67:lib/ros_lib/time.cpp ****   }
 197              		.loc 1 67 0
 198 0072 10BD     		pop	{r4, pc}
 199              		.cfi_endproc
 200              	.LFE243:
 201              		.cantunwind
 202              		.fnend
 204              	.Letext0:
 205              		.file 2 "/opt/gcc-arm/gcc-arm-none-eabi-6_2-2016q4/arm-none-eabi/include/c++/6.2.1/cmath"
 206              		.file 3 "/opt/gcc-arm/gcc-arm-none-eabi-6_2-2016q4/arm-none-eabi/include/c++/6.2.1/arm-none-eabi/t
 207              		.file 4 "/opt/gcc-arm/gcc-arm-none-eabi-6_2-2016q4/arm-none-eabi/include/machine/_default_types.h"
 208              		.file 5 "/opt/gcc-arm/gcc-arm-none-eabi-6_2-2016q4/arm-none-eabi/include/sys/lock.h"
 209              		.file 6 "/opt/gcc-arm/gcc-arm-none-eabi-6_2-2016q4/arm-none-eabi/include/sys/_types.h"
 210              		.file 7 "/opt/gcc-arm/gcc-arm-none-eabi-6_2-2016q4/lib/gcc/arm-none-eabi/6.2.1/include/stddef.h"
 211              		.file 8 "/opt/gcc-arm/gcc-arm-none-eabi-6_2-2016q4/arm-none-eabi/include/sys/reent.h"
 212              		.file 9 "/opt/gcc-arm/gcc-arm-none-eabi-6_2-2016q4/arm-none-eabi/include/math.h"
 213              		.file 10 "/opt/gcc-arm/gcc-arm-none-eabi-6_2-2016q4/arm-none-eabi/include/c++/6.2.1/math.h"
 214              		.file 11 "/opt/gcc-arm/gcc-arm-none-eabi-6_2-2016q4/arm-none-eabi/include/sys/_stdint.h"
 215              		.file 12 "<built-in>"
 216              		.file 13 "./lib/ros_lib/ros/duration.h"
 217              		.file 14 "lib/ros_lib/ros/time.h"