Archive member included to satisfy reference by file (symbol)

/opt/gcc-arm/gcc-arm-none-eabi-6_2-2016q4/bin/../lib/gcc/arm-none-eabi/6.2.1/../../../../arm-none-eabi/lib/thumb/v7-m/libstdc++.a(class_type_info.o)
                              ./src/main.o (vtable for __cxxabiv1::__class_type_info)
/opt/gcc-arm/gcc-arm-none-eabi-6_2-2016q4/bin/../lib/gcc/arm-none-eabi/6.2.1/../../../../arm-none-eabi/lib/thumb/v7-m/libstdc++.a(eh_arm.o)
                              ./src/main.o (__cxa_end_cleanup)
/opt/gcc-arm/gcc-arm-none-eabi-6_2-2016q4/bin/../lib/gcc/arm-none-eabi/6.2.1/../../../../arm-none-eabi/lib/thumb/v7-m/libstdc++.a(eh_globals.o)
                              /opt/gcc-arm/gcc-arm-none-eabi-6_2-2016q4/bin/../lib/gcc/arm-none-eabi/6.2.1/../../../../arm-none-eabi/lib/thumb/v7-m/libstdc++.a(eh_arm.o) (__cxa_get_globals)
/opt/gcc-arm/gcc-arm-none-eabi-6_2-2016q4/bin/../lib/gcc/arm-none-eabi/6.2.1/../../../../arm-none-eabi/lib/thumb/v7-m/libstdc++.a(eh_exception.o)
                              /opt/gcc-arm/gcc-arm-none-eabi-6_2-2016q4/bin/../lib/gcc/arm-none-eabi/6.2.1/../../../../arm-none-eabi/lib/thumb/v7-m/libstdc++.a(eh_arm.o) (typeinfo for __cxxabiv1::__forced_unwind)
/opt/gcc-arm/gcc-arm-none-eabi-6_2-2016q4/bin/../lib/gcc/arm-none-eabi/6.2.1/../../../../arm-none-eabi/lib/thumb/v7-m/libstdc++.a(si_class_type_info.o)
                              ./src/main.o (vtable for __cxxabiv1::__si_class_type_info)
/opt/gcc-arm/gcc-arm-none-eabi-6_2-2016q4/bin/../lib/gcc/arm-none-eabi/6.2.1/../../../../arm-none-eabi/lib/thumb/v7-m/libstdc++.a(del_ops.o)
                              /opt/gcc-arm/gcc-arm-none-eabi-6_2-2016q4/bin/../lib/gcc/arm-none-eabi/6.2.1/../../../../arm-none-eabi/lib/thumb/v7-m/libstdc++.a(class_type_info.o) (operator delete(void*, unsigned int))
/opt/gcc-arm/gcc-arm-none-eabi-6_2-2016q4/bin/../lib/gcc/arm-none-eabi/6.2.1/../../../../arm-none-eabi/lib/thumb/v7-m/libstdc++.a(eh_personality.o)
                              ./src/main.o (__gxx_personality_v0)
/opt/gcc-arm/gcc-arm-none-eabi-6_2-2016q4/bin/../lib/gcc/arm-none-eabi/6.2.1/../../../../arm-none-eabi/lib/thumb/v7-m/libstdc++.a(eh_terminate.o)
                              /opt/gcc-arm/gcc-arm-none-eabi-6_2-2016q4/bin/../lib/gcc/arm-none-eabi/6.2.1/../../../../arm-none-eabi/lib/thumb/v7-m/libstdc++.a(eh_arm.o) (std::terminate())
/opt/gcc-arm/gcc-arm-none-eabi-6_2-2016q4/bin/../lib/gcc/arm-none-eabi/6.2.1/../../../../arm-none-eabi/lib/thumb/v7-m/libstdc++.a(tinfo.o)
                              /opt/gcc-arm/gcc-arm-none-eabi-6_2-2016q4/bin/../lib/gcc/arm-none-eabi/6.2.1/../../../../arm-none-eabi/lib/thumb/v7-m/libstdc++.a(class_type_info.o) (std::type_info::~type_info())
/opt/gcc-arm/gcc-arm-none-eabi-6_2-2016q4/bin/../lib/gcc/arm-none-eabi/6.2.1/../../../../arm-none-eabi/lib/thumb/v7-m/libstdc++.a(eh_term_handler.o)
                              /opt/gcc-arm/gcc-arm-none-eabi-6_2-2016q4/bin/../lib/gcc/arm-none-eabi/6.2.1/../../../../arm-none-eabi/lib/thumb/v7-m/libstdc++.a(eh_terminate.o) (__cxxabiv1::__terminate_handler)
/opt/gcc-arm/gcc-arm-none-eabi-6_2-2016q4/bin/../lib/gcc/arm-none-eabi/6.2.1/../../../../arm-none-eabi/lib/thumb/v7-m/libstdc++.a(eh_call.o)
                              /opt/gcc-arm/gcc-arm-none-eabi-6_2-2016q4/bin/../lib/gcc/arm-none-eabi/6.2.1/../../../../arm-none-eabi/lib/thumb/v7-m/libstdc++.a(eh_personality.o) (__cxa_call_terminate)
/opt/gcc-arm/gcc-arm-none-eabi-6_2-2016q4/bin/../lib/gcc/arm-none-eabi/6.2.1/../../../../arm-none-eabi/lib/thumb/v7-m/libstdc++.a(eh_catch.o)
                              /opt/gcc-arm/gcc-arm-none-eabi-6_2-2016q4/bin/../lib/gcc/arm-none-eabi/6.2.1/../../../../arm-none-eabi/lib/thumb/v7-m/libstdc++.a(eh_personality.o) (__cxa_begin_catch)
/opt/gcc-arm/gcc-arm-none-eabi-6_2-2016q4/bin/../lib/gcc/arm-none-eabi/6.2.1/../../../../arm-none-eabi/lib/thumb/v7-m/libstdc++.a(eh_unex_handler.o)
                              /opt/gcc-arm/gcc-arm-none-eabi-6_2-2016q4/bin/../lib/gcc/arm-none-eabi/6.2.1/../../../../arm-none-eabi/lib/thumb/v7-m/libstdc++.a(eh_terminate.o) (__cxxabiv1::__unexpected_handler)
/opt/gcc-arm/gcc-arm-none-eabi-6_2-2016q4/bin/../lib/gcc/arm-none-eabi/6.2.1/../../../../arm-none-eabi/lib/thumb/v7-m/libstdc++.a(eh_alloc.o)
                              /opt/gcc-arm/gcc-arm-none-eabi-6_2-2016q4/bin/../lib/gcc/arm-none-eabi/6.2.1/../../../../arm-none-eabi/lib/thumb/v7-m/libstdc++.a(eh_call.o) (__cxa_allocate_exception)
/opt/gcc-arm/gcc-arm-none-eabi-6_2-2016q4/bin/../lib/gcc/arm-none-eabi/6.2.1/../../../../arm-none-eabi/lib/thumb/v7-m/libstdc++.a(eh_throw.o)
                              /opt/gcc-arm/gcc-arm-none-eabi-6_2-2016q4/bin/../lib/gcc/arm-none-eabi/6.2.1/../../../../arm-none-eabi/lib/thumb/v7-m/libstdc++.a(eh_call.o) (__cxa_throw)
/opt/gcc-arm/gcc-arm-none-eabi-6_2-2016q4/bin/../lib/gcc/arm-none-eabi/6.2.1/../../../../arm-none-eabi/lib/thumb/v7-m/libm.a(lib_a-s_sin.o)
                              ./src/main.o (sin)
/opt/gcc-arm/gcc-arm-none-eabi-6_2-2016q4/bin/../lib/gcc/arm-none-eabi/6.2.1/../../../../arm-none-eabi/lib/thumb/v7-m/libm.a(lib_a-sf_atan.o)
                              ./src/main.o (atanf)
/opt/gcc-arm/gcc-arm-none-eabi-6_2-2016q4/bin/../lib/gcc/arm-none-eabi/6.2.1/../../../../arm-none-eabi/lib/thumb/v7-m/libm.a(lib_a-sf_cos.o)
                              ./src/main.o (cosf)
/opt/gcc-arm/gcc-arm-none-eabi-6_2-2016q4/bin/../lib/gcc/arm-none-eabi/6.2.1/../../../../arm-none-eabi/lib/thumb/v7-m/libm.a(lib_a-sf_fabs.o)
                              /opt/gcc-arm/gcc-arm-none-eabi-6_2-2016q4/bin/../lib/gcc/arm-none-eabi/6.2.1/../../../../arm-none-eabi/lib/thumb/v7-m/libm.a(lib_a-sf_atan.o) (fabsf)
/opt/gcc-arm/gcc-arm-none-eabi-6_2-2016q4/bin/../lib/gcc/arm-none-eabi/6.2.1/../../../../arm-none-eabi/lib/thumb/v7-m/libm.a(lib_a-sf_sin.o)
                              ./src/main.o (sinf)
/opt/gcc-arm/gcc-arm-none-eabi-6_2-2016q4/bin/../lib/gcc/arm-none-eabi/6.2.1/../../../../arm-none-eabi/lib/thumb/v7-m/libm.a(lib_a-w_sqrt.o)
                              ./src/main.o (sqrt)
/opt/gcc-arm/gcc-arm-none-eabi-6_2-2016q4/bin/../lib/gcc/arm-none-eabi/6.2.1/../../../../arm-none-eabi/lib/thumb/v7-m/libm.a(lib_a-wf_sqrt.o)
                              ./src/main.o (sqrtf)
/opt/gcc-arm/gcc-arm-none-eabi-6_2-2016q4/bin/../lib/gcc/arm-none-eabi/6.2.1/../../../../arm-none-eabi/lib/thumb/v7-m/libm.a(lib_a-e_rem_pio2.o)
                              /opt/gcc-arm/gcc-arm-none-eabi-6_2-2016q4/bin/../lib/gcc/arm-none-eabi/6.2.1/../../../../arm-none-eabi/lib/thumb/v7-m/libm.a(lib_a-s_sin.o) (__ieee754_rem_pio2)
/opt/gcc-arm/gcc-arm-none-eabi-6_2-2016q4/bin/../lib/gcc/arm-none-eabi/6.2.1/../../../../arm-none-eabi/lib/thumb/v7-m/libm.a(lib_a-e_sqrt.o)
                              /opt/gcc-arm/gcc-arm-none-eabi-6_2-2016q4/bin/../lib/gcc/arm-none-eabi/6.2.1/../../../../arm-none-eabi/lib/thumb/v7-m/libm.a(lib_a-w_sqrt.o) (__ieee754_sqrt)
/opt/gcc-arm/gcc-arm-none-eabi-6_2-2016q4/bin/../lib/gcc/arm-none-eabi/6.2.1/../../../../arm-none-eabi/lib/thumb/v7-m/libm.a(lib_a-ef_rem_pio2.o)
                              /opt/gcc-arm/gcc-arm-none-eabi-6_2-2016q4/bin/../lib/gcc/arm-none-eabi/6.2.1/../../../../arm-none-eabi/lib/thumb/v7-m/libm.a(lib_a-sf_cos.o) (__ieee754_rem_pio2f)
/opt/gcc-arm/gcc-arm-none-eabi-6_2-2016q4/bin/../lib/gcc/arm-none-eabi/6.2.1/../../../../arm-none-eabi/lib/thumb/v7-m/libm.a(lib_a-ef_sqrt.o)
                              /opt/gcc-arm/gcc-arm-none-eabi-6_2-2016q4/bin/../lib/gcc/arm-none-eabi/6.2.1/../../../../arm-none-eabi/lib/thumb/v7-m/libm.a(lib_a-wf_sqrt.o) (__ieee754_sqrtf)
/opt/gcc-arm/gcc-arm-none-eabi-6_2-2016q4/bin/../lib/gcc/arm-none-eabi/6.2.1/../../../../arm-none-eabi/lib/thumb/v7-m/libm.a(lib_a-k_cos.o)
                              /opt/gcc-arm/gcc-arm-none-eabi-6_2-2016q4/bin/../lib/gcc/arm-none-eabi/6.2.1/../../../../arm-none-eabi/lib/thumb/v7-m/libm.a(lib_a-s_sin.o) (__kernel_cos)
/opt/gcc-arm/gcc-arm-none-eabi-6_2-2016q4/bin/../lib/gcc/arm-none-eabi/6.2.1/../../../../arm-none-eabi/lib/thumb/v7-m/libm.a(lib_a-k_rem_pio2.o)
                              /opt/gcc-arm/gcc-arm-none-eabi-6_2-2016q4/bin/../lib/gcc/arm-none-eabi/6.2.1/../../../../arm-none-eabi/lib/thumb/v7-m/libm.a(lib_a-e_rem_pio2.o) (__kernel_rem_pio2)
/opt/gcc-arm/gcc-arm-none-eabi-6_2-2016q4/bin/../lib/gcc/arm-none-eabi/6.2.1/../../../../arm-none-eabi/lib/thumb/v7-m/libm.a(lib_a-k_sin.o)
                              /opt/gcc-arm/gcc-arm-none-eabi-6_2-2016q4/bin/../lib/gcc/arm-none-eabi/6.2.1/../../../../arm-none-eabi/lib/thumb/v7-m/libm.a(lib_a-s_sin.o) (__kernel_sin)
/opt/gcc-arm/gcc-arm-none-eabi-6_2-2016q4/bin/../lib/gcc/arm-none-eabi/6.2.1/../../../../arm-none-eabi/lib/thumb/v7-m/libm.a(lib_a-kf_cos.o)
                              /opt/gcc-arm/gcc-arm-none-eabi-6_2-2016q4/bin/../lib/gcc/arm-none-eabi/6.2.1/../../../../arm-none-eabi/lib/thumb/v7-m/libm.a(lib_a-sf_cos.o) (__kernel_cosf)
/opt/gcc-arm/gcc-arm-none-eabi-6_2-2016q4/bin/../lib/gcc/arm-none-eabi/6.2.1/../../../../arm-none-eabi/lib/thumb/v7-m/libm.a(lib_a-kf_rem_pio2.o)
                              /opt/gcc-arm/gcc-arm-none-eabi-6_2-2016q4/bin/../lib/gcc/arm-none-eabi/6.2.1/../../../../arm-none-eabi/lib/thumb/v7-m/libm.a(lib_a-ef_rem_pio2.o) (__kernel_rem_pio2f)
/opt/gcc-arm/gcc-arm-none-eabi-6_2-2016q4/bin/../lib/gcc/arm-none-eabi/6.2.1/../../../../arm-none-eabi/lib/thumb/v7-m/libm.a(lib_a-kf_sin.o)
                              /opt/gcc-arm/gcc-arm-none-eabi-6_2-2016q4/bin/../lib/gcc/arm-none-eabi/6.2.1/../../../../arm-none-eabi/lib/thumb/v7-m/libm.a(lib_a-sf_cos.o) (__kernel_sinf)
/opt/gcc-arm/gcc-arm-none-eabi-6_2-2016q4/bin/../lib/gcc/arm-none-eabi/6.2.1/../../../../arm-none-eabi/lib/thumb/v7-m/libm.a(lib_a-s_fabs.o)
                              /opt/gcc-arm/gcc-arm-none-eabi-6_2-2016q4/bin/../lib/gcc/arm-none-eabi/6.2.1/../../../../arm-none-eabi/lib/thumb/v7-m/libm.a(lib_a-e_rem_pio2.o) (fabs)
/opt/gcc-arm/gcc-arm-none-eabi-6_2-2016q4/bin/../lib/gcc/arm-none-eabi/6.2.1/../../../../arm-none-eabi/lib/thumb/v7-m/libm.a(lib_a-s_floor.o)
                              /opt/gcc-arm/gcc-arm-none-eabi-6_2-2016q4/bin/../lib/gcc/arm-none-eabi/6.2.1/../../../../arm-none-eabi/lib/thumb/v7-m/libm.a(lib_a-k_rem_pio2.o) (floor)
/opt/gcc-arm/gcc-arm-none-eabi-6_2-2016q4/bin/../lib/gcc/arm-none-eabi/6.2.1/../../../../arm-none-eabi/lib/thumb/v7-m/libm.a(lib_a-s_lib_ver.o)
                              /opt/gcc-arm/gcc-arm-none-eabi-6_2-2016q4/bin/../lib/gcc/arm-none-eabi/6.2.1/../../../../arm-none-eabi/lib/thumb/v7-m/libm.a(lib_a-w_sqrt.o) (__fdlib_version)
/opt/gcc-arm/gcc-arm-none-eabi-6_2-2016q4/bin/../lib/gcc/arm-none-eabi/6.2.1/../../../../arm-none-eabi/lib/thumb/v7-m/libm.a(lib_a-s_matherr.o)
                              /opt/gcc-arm/gcc-arm-none-eabi-6_2-2016q4/bin/../lib/gcc/arm-none-eabi/6.2.1/../../../../arm-none-eabi/lib/thumb/v7-m/libm.a(lib_a-w_sqrt.o) (matherr)
/opt/gcc-arm/gcc-arm-none-eabi-6_2-2016q4/bin/../lib/gcc/arm-none-eabi/6.2.1/../../../../arm-none-eabi/lib/thumb/v7-m/libm.a(lib_a-s_scalbn.o)
                              /opt/gcc-arm/gcc-arm-none-eabi-6_2-2016q4/bin/../lib/gcc/arm-none-eabi/6.2.1/../../../../arm-none-eabi/lib/thumb/v7-m/libm.a(lib_a-k_rem_pio2.o) (scalbn)
/opt/gcc-arm/gcc-arm-none-eabi-6_2-2016q4/bin/../lib/gcc/arm-none-eabi/6.2.1/../../../../arm-none-eabi/lib/thumb/v7-m/libm.a(lib_a-sf_floor.o)
                              /opt/gcc-arm/gcc-arm-none-eabi-6_2-2016q4/bin/../lib/gcc/arm-none-eabi/6.2.1/../../../../arm-none-eabi/lib/thumb/v7-m/libm.a(lib_a-kf_rem_pio2.o) (floorf)
/opt/gcc-arm/gcc-arm-none-eabi-6_2-2016q4/bin/../lib/gcc/arm-none-eabi/6.2.1/../../../../arm-none-eabi/lib/thumb/v7-m/libm.a(lib_a-sf_scalbn.o)
                              /opt/gcc-arm/gcc-arm-none-eabi-6_2-2016q4/bin/../lib/gcc/arm-none-eabi/6.2.1/../../../../arm-none-eabi/lib/thumb/v7-m/libm.a(lib_a-kf_rem_pio2.o) (scalbnf)
/opt/gcc-arm/gcc-arm-none-eabi-6_2-2016q4/bin/../lib/gcc/arm-none-eabi/6.2.1/../../../../arm-none-eabi/lib/thumb/v7-m/libm.a(lib_a-s_copysign.o)
                              /opt/gcc-arm/gcc-arm-none-eabi-6_2-2016q4/bin/../lib/gcc/arm-none-eabi/6.2.1/../../../../arm-none-eabi/lib/thumb/v7-m/libm.a(lib_a-s_scalbn.o) (copysign)
/opt/gcc-arm/gcc-arm-none-eabi-6_2-2016q4/bin/../lib/gcc/arm-none-eabi/6.2.1/../../../../arm-none-eabi/lib/thumb/v7-m/libm.a(lib_a-sf_copysign.o)
                              /opt/gcc-arm/gcc-arm-none-eabi-6_2-2016q4/bin/../lib/gcc/arm-none-eabi/6.2.1/../../../../arm-none-eabi/lib/thumb/v7-m/libm.a(lib_a-sf_scalbn.o) (copysignf)
/opt/gcc-arm/gcc-arm-none-eabi-6_2-2016q4/bin/../lib/gcc/arm-none-eabi/6.2.1/thumb/v7-m/libgcc.a(_arm_addsubdf3.o)
                              /opt/gcc-arm/gcc-arm-none-eabi-6_2-2016q4/bin/../lib/gcc/arm-none-eabi/6.2.1/../../../../arm-none-eabi/lib/thumb/v7-m/libm.a(lib_a-s_sin.o) (__aeabi_dsub)
/opt/gcc-arm/gcc-arm-none-eabi-6_2-2016q4/bin/../lib/gcc/arm-none-eabi/6.2.1/thumb/v7-m/libgcc.a(_arm_muldivdf3.o)
                              ./src/main.o (__aeabi_dmul)
/opt/gcc-arm/gcc-arm-none-eabi-6_2-2016q4/bin/../lib/gcc/arm-none-eabi/6.2.1/thumb/v7-m/libgcc.a(_arm_cmpdf2.o)
                              /opt/gcc-arm/gcc-arm-none-eabi-6_2-2016q4/bin/../lib/gcc/arm-none-eabi/6.2.1/../../../../arm-none-eabi/lib/thumb/v7-m/libm.a(lib_a-e_rem_pio2.o) (__aeabi_dcmpeq)
/opt/gcc-arm/gcc-arm-none-eabi-6_2-2016q4/bin/../lib/gcc/arm-none-eabi/6.2.1/thumb/v7-m/libgcc.a(_arm_unorddf2.o)
                              /opt/gcc-arm/gcc-arm-none-eabi-6_2-2016q4/bin/../lib/gcc/arm-none-eabi/6.2.1/../../../../arm-none-eabi/lib/thumb/v7-m/libm.a(lib_a-w_sqrt.o) (__aeabi_dcmpun)
/opt/gcc-arm/gcc-arm-none-eabi-6_2-2016q4/bin/../lib/gcc/arm-none-eabi/6.2.1/thumb/v7-m/libgcc.a(_arm_fixdfsi.o)
                              ./lib/ros_lib/duration.o (__aeabi_d2iz)
/opt/gcc-arm/gcc-arm-none-eabi-6_2-2016q4/bin/../lib/gcc/arm-none-eabi/6.2.1/thumb/v7-m/libgcc.a(_arm_truncdfsf2.o)
                              ./src/main.o (__aeabi_d2f)
/opt/gcc-arm/gcc-arm-none-eabi-6_2-2016q4/bin/../lib/gcc/arm-none-eabi/6.2.1/thumb/v7-m/libgcc.a(_arm_addsubsf3.o)
                              ./src/main.o (__aeabi_fsub)
/opt/gcc-arm/gcc-arm-none-eabi-6_2-2016q4/bin/../lib/gcc/arm-none-eabi/6.2.1/thumb/v7-m/libgcc.a(_arm_muldivsf3.o)
                              ./src/main.o (__aeabi_fmul)
/opt/gcc-arm/gcc-arm-none-eabi-6_2-2016q4/bin/../lib/gcc/arm-none-eabi/6.2.1/thumb/v7-m/libgcc.a(_arm_cmpsf2.o)
                              ./src/main.o (__aeabi_fcmpeq)
/opt/gcc-arm/gcc-arm-none-eabi-6_2-2016q4/bin/../lib/gcc/arm-none-eabi/6.2.1/thumb/v7-m/libgcc.a(_arm_unordsf2.o)
                              /opt/gcc-arm/gcc-arm-none-eabi-6_2-2016q4/bin/../lib/gcc/arm-none-eabi/6.2.1/../../../../arm-none-eabi/lib/thumb/v7-m/libm.a(lib_a-wf_sqrt.o) (__aeabi_fcmpun)
/opt/gcc-arm/gcc-arm-none-eabi-6_2-2016q4/bin/../lib/gcc/arm-none-eabi/6.2.1/thumb/v7-m/libgcc.a(_arm_fixsfsi.o)
                              ./src/main.o (__aeabi_f2iz)
/opt/gcc-arm/gcc-arm-none-eabi-6_2-2016q4/bin/../lib/gcc/arm-none-eabi/6.2.1/thumb/v7-m/libgcc.a(unwind-arm.o)
                              ./src/main.o (__aeabi_unwind_cpp_pr0)
/opt/gcc-arm/gcc-arm-none-eabi-6_2-2016q4/bin/../lib/gcc/arm-none-eabi/6.2.1/thumb/v7-m/libgcc.a(libunwind.o)
                              /opt/gcc-arm/gcc-arm-none-eabi-6_2-2016q4/bin/../lib/gcc/arm-none-eabi/6.2.1/thumb/v7-m/libgcc.a(unwind-arm.o) (restore_core_regs)
/opt/gcc-arm/gcc-arm-none-eabi-6_2-2016q4/bin/../lib/gcc/arm-none-eabi/6.2.1/thumb/v7-m/libgcc.a(pr-support.o)
                              /opt/gcc-arm/gcc-arm-none-eabi-6_2-2016q4/bin/../lib/gcc/arm-none-eabi/6.2.1/thumb/v7-m/libgcc.a(unwind-arm.o) (__gnu_unwind_execute)
/opt/gcc-arm/gcc-arm-none-eabi-6_2-2016q4/bin/../lib/gcc/arm-none-eabi/6.2.1/../../../../arm-none-eabi/lib/thumb/v7-m/libg.a(lib_a-errno.o)
                              /opt/gcc-arm/gcc-arm-none-eabi-6_2-2016q4/bin/../lib/gcc/arm-none-eabi/6.2.1/../../../../arm-none-eabi/lib/thumb/v7-m/libm.a(lib_a-w_sqrt.o) (__errno)
/opt/gcc-arm/gcc-arm-none-eabi-6_2-2016q4/bin/../lib/gcc/arm-none-eabi/6.2.1/../../../../arm-none-eabi/lib/thumb/v7-m/libg.a(lib_a-impure.o)
                              /opt/gcc-arm/gcc-arm-none-eabi-6_2-2016q4/bin/../lib/gcc/arm-none-eabi/6.2.1/../../../../arm-none-eabi/lib/thumb/v7-m/libg.a(lib_a-errno.o) (_impure_ptr)
/opt/gcc-arm/gcc-arm-none-eabi-6_2-2016q4/bin/../lib/gcc/arm-none-eabi/6.2.1/../../../../arm-none-eabi/lib/thumb/v7-m/libg.a(lib_a-init.o)
                              ./src/f1/startup_stm32f103xb.o (__libc_init_array)
/opt/gcc-arm/gcc-arm-none-eabi-6_2-2016q4/bin/../lib/gcc/arm-none-eabi/6.2.1/../../../../arm-none-eabi/lib/thumb/v7-m/libg.a(lib_a-malloc.o)
                              ./src/LibraryHacks.o (malloc)
/opt/gcc-arm/gcc-arm-none-eabi-6_2-2016q4/bin/../lib/gcc/arm-none-eabi/6.2.1/../../../../arm-none-eabi/lib/thumb/v7-m/libg.a(lib_a-mallocr.o)
                              /opt/gcc-arm/gcc-arm-none-eabi-6_2-2016q4/bin/../lib/gcc/arm-none-eabi/6.2.1/../../../../arm-none-eabi/lib/thumb/v7-m/libg.a(lib_a-malloc.o) (_malloc_r)
/opt/gcc-arm/gcc-arm-none-eabi-6_2-2016q4/bin/../lib/gcc/arm-none-eabi/6.2.1/../../../../arm-none-eabi/lib/thumb/v7-m/libg.a(lib_a-memcpy.o)
                              ./src/main.o (memcpy)
/opt/gcc-arm/gcc-arm-none-eabi-6_2-2016q4/bin/../lib/gcc/arm-none-eabi/6.2.1/../../../../arm-none-eabi/lib/thumb/v7-m/libg.a(lib_a-memset.o)
                              /opt/gcc-arm/gcc-arm-none-eabi-6_2-2016q4/bin/../lib/gcc/arm-none-eabi/6.2.1/../../../../arm-none-eabi/lib/thumb/v7-m/libstdc++.a(eh_alloc.o) (memset)
/opt/gcc-arm/gcc-arm-none-eabi-6_2-2016q4/bin/../lib/gcc/arm-none-eabi/6.2.1/../../../../arm-none-eabi/lib/thumb/v7-m/libg.a(lib_a-mlock.o)
                              /opt/gcc-arm/gcc-arm-none-eabi-6_2-2016q4/bin/../lib/gcc/arm-none-eabi/6.2.1/../../../../arm-none-eabi/lib/thumb/v7-m/libg.a(lib_a-mallocr.o) (__malloc_lock)
/opt/gcc-arm/gcc-arm-none-eabi-6_2-2016q4/bin/../lib/gcc/arm-none-eabi/6.2.1/../../../../arm-none-eabi/lib/thumb/v7-m/libg.a(lib_a-realloc.o)
                              ./src/main.o (realloc)
/opt/gcc-arm/gcc-arm-none-eabi-6_2-2016q4/bin/../lib/gcc/arm-none-eabi/6.2.1/../../../../arm-none-eabi/lib/thumb/v7-m/libg.a(lib_a-reallocr.o)
                              /opt/gcc-arm/gcc-arm-none-eabi-6_2-2016q4/bin/../lib/gcc/arm-none-eabi/6.2.1/../../../../arm-none-eabi/lib/thumb/v7-m/libg.a(lib_a-realloc.o) (_realloc_r)
/opt/gcc-arm/gcc-arm-none-eabi-6_2-2016q4/bin/../lib/gcc/arm-none-eabi/6.2.1/../../../../arm-none-eabi/lib/thumb/v7-m/libg.a(lib_a-sbrkr.o)
                              /opt/gcc-arm/gcc-arm-none-eabi-6_2-2016q4/bin/../lib/gcc/arm-none-eabi/6.2.1/../../../../arm-none-eabi/lib/thumb/v7-m/libg.a(lib_a-mallocr.o) (_sbrk_r)
/opt/gcc-arm/gcc-arm-none-eabi-6_2-2016q4/bin/../lib/gcc/arm-none-eabi/6.2.1/../../../../arm-none-eabi/lib/thumb/v7-m/libg.a(lib_a-strcmp.o)
                              /opt/gcc-arm/gcc-arm-none-eabi-6_2-2016q4/bin/../lib/gcc/arm-none-eabi/6.2.1/../../../../arm-none-eabi/lib/thumb/v7-m/libstdc++.a(tinfo.o) (strcmp)
/opt/gcc-arm/gcc-arm-none-eabi-6_2-2016q4/bin/../lib/gcc/arm-none-eabi/6.2.1/../../../../arm-none-eabi/lib/thumb/v7-m/libg.a(lib_a-strlen-stub.o)
                              ./src/main.o (strlen)
/opt/gcc-arm/gcc-arm-none-eabi-6_2-2016q4/bin/../lib/gcc/arm-none-eabi/6.2.1/../../../../arm-none-eabi/lib/thumb/v7-m/libg.a(lib_a-freer.o)
                              /opt/gcc-arm/gcc-arm-none-eabi-6_2-2016q4/bin/../lib/gcc/arm-none-eabi/6.2.1/../../../../arm-none-eabi/lib/thumb/v7-m/libg.a(lib_a-malloc.o) (_free_r)
/opt/gcc-arm/gcc-arm-none-eabi-6_2-2016q4/bin/../lib/gcc/arm-none-eabi/6.2.1/../../../../arm-none-eabi/lib/thumb/v7-m/libg.a(lib_a-memmove.o)
                              /opt/gcc-arm/gcc-arm-none-eabi-6_2-2016q4/bin/../lib/gcc/arm-none-eabi/6.2.1/../../../../arm-none-eabi/lib/thumb/v7-m/libg.a(lib_a-reallocr.o) (memmove)
/opt/gcc-arm/gcc-arm-none-eabi-6_2-2016q4/bin/../lib/gcc/arm-none-eabi/6.2.1/../../../../arm-none-eabi/lib/thumb/v7-m/libg.a(lib_a-reent.o)
                              /opt/gcc-arm/gcc-arm-none-eabi-6_2-2016q4/bin/../lib/gcc/arm-none-eabi/6.2.1/../../../../arm-none-eabi/lib/thumb/v7-m/libg.a(lib_a-sbrkr.o) (errno)

Allocating common symbols
Common symbol       size              file

TIM_TimeBaseStructure
                    0xa               ./src/led.o
errno               0x4               /opt/gcc-arm/gcc-arm-none-eabi-6_2-2016q4/bin/../lib/gcc/arm-none-eabi/6.2.1/../../../../arm-none-eabi/lib/thumb/v7-m/libg.a(lib_a-reent.o)
TIM_OCInitStructure
                    0x10              ./src/led.o

Discarded input sections

 .text          0x0000000000000000       0x14 ./src/f1/startup_stm32f103xb.o
 .data          0x0000000000000000        0x0 ./src/f1/startup_stm32f103xb.o
 .bss           0x0000000000000000        0x0 ./src/f1/startup_stm32f103xb.o
 .bss           0x0000000000000000        0x0 ./lib/CMSIS/CM3/DeviceSupport/ST/STM32F10x/system_stm32f10x.o
 .data          0x0000000000000000        0x0 ./src/led.o
 .bss           0x0000000000000000        0x0 ./src/led.o
 .data          0x0000000000000000        0x0 ./src/encoder.o
 .bss           0x0000000000000000        0x0 ./src/encoder.o
 .data          0x0000000000000000        0x0 ./src/stm32_time.o
 .text          0x0000000000000000      0x360 ./lib/STM32F10x_StdPeriph_Driver/src/stm32f10x_adc.o
 .data          0x0000000000000000        0x0 ./lib/STM32F10x_StdPeriph_Driver/src/stm32f10x_adc.o
 .bss           0x0000000000000000        0x0 ./lib/STM32F10x_StdPeriph_Driver/src/stm32f10x_adc.o
 .text          0x0000000000000000       0xe0 ./lib/STM32F10x_StdPeriph_Driver/src/stm32f10x_bkp.o
 .data          0x0000000000000000        0x0 ./lib/STM32F10x_StdPeriph_Driver/src/stm32f10x_bkp.o
 .bss           0x0000000000000000        0x0 ./lib/STM32F10x_StdPeriph_Driver/src/stm32f10x_bkp.o
 .text          0x0000000000000000      0x71c ./lib/STM32F10x_StdPeriph_Driver/src/stm32f10x_can.o
 .data          0x0000000000000000        0x0 ./lib/STM32F10x_StdPeriph_Driver/src/stm32f10x_can.o
 .bss           0x0000000000000000        0x0 ./lib/STM32F10x_StdPeriph_Driver/src/stm32f10x_can.o
 .text          0x0000000000000000      0x110 ./lib/STM32F10x_StdPeriph_Driver/src/stm32f10x_cec.o
 .data          0x0000000000000000        0x0 ./lib/STM32F10x_StdPeriph_Driver/src/stm32f10x_cec.o
 .bss           0x0000000000000000        0x0 ./lib/STM32F10x_StdPeriph_Driver/src/stm32f10x_cec.o
 .text          0x0000000000000000       0x58 ./lib/STM32F10x_StdPeriph_Driver/src/stm32f10x_crc.o
 .data          0x0000000000000000        0x0 ./lib/STM32F10x_StdPeriph_Driver/src/stm32f10x_crc.o
 .bss           0x0000000000000000        0x0 ./lib/STM32F10x_StdPeriph_Driver/src/stm32f10x_crc.o
 .text          0x0000000000000000      0x160 ./lib/STM32F10x_StdPeriph_Driver/src/stm32f10x_dac.o
 .data          0x0000000000000000        0x0 ./lib/STM32F10x_StdPeriph_Driver/src/stm32f10x_dac.o
 .bss           0x0000000000000000        0x0 ./lib/STM32F10x_StdPeriph_Driver/src/stm32f10x_dac.o
 .text          0x0000000000000000      0x1b4 ./lib/STM32F10x_StdPeriph_Driver/src/stm32f10x_dma.o
 .data          0x0000000000000000        0x0 ./lib/STM32F10x_StdPeriph_Driver/src/stm32f10x_dma.o
 .bss           0x0000000000000000        0x0 ./lib/STM32F10x_StdPeriph_Driver/src/stm32f10x_dma.o
 .data          0x0000000000000000        0x0 ./lib/STM32F10x_StdPeriph_Driver/src/stm32f10x_exti.o
 .bss           0x0000000000000000        0x0 ./lib/STM32F10x_StdPeriph_Driver/src/stm32f10x_exti.o
 .data          0x0000000000000000        0x0 ./lib/STM32F10x_StdPeriph_Driver/src/stm32f10x_flash.o
 .bss           0x0000000000000000        0x0 ./lib/STM32F10x_StdPeriph_Driver/src/stm32f10x_flash.o
 .text          0x0000000000000000      0x444 ./lib/STM32F10x_StdPeriph_Driver/src/stm32f10x_fsmc.o
 .data          0x0000000000000000        0x0 ./lib/STM32F10x_StdPeriph_Driver/src/stm32f10x_fsmc.o
 .bss           0x0000000000000000        0x0 ./lib/STM32F10x_StdPeriph_Driver/src/stm32f10x_fsmc.o
 .data          0x0000000000000000        0x0 ./lib/STM32F10x_StdPeriph_Driver/src/stm32f10x_gpio.o
 .bss           0x0000000000000000        0x0 ./lib/STM32F10x_StdPeriph_Driver/src/stm32f10x_gpio.o
 .data          0x0000000000000000        0x0 ./lib/STM32F10x_StdPeriph_Driver/src/stm32f10x_i2c.o
 .bss           0x0000000000000000        0x0 ./lib/STM32F10x_StdPeriph_Driver/src/stm32f10x_i2c.o
 .text          0x0000000000000000       0x58 ./lib/STM32F10x_StdPeriph_Driver/src/stm32f10x_iwdg.o
 .data          0x0000000000000000        0x0 ./lib/STM32F10x_StdPeriph_Driver/src/stm32f10x_iwdg.o
 .bss           0x0000000000000000        0x0 ./lib/STM32F10x_StdPeriph_Driver/src/stm32f10x_iwdg.o
 .text          0x0000000000000000       0xd0 ./lib/STM32F10x_StdPeriph_Driver/src/stm32f10x_pwr.o
 .data          0x0000000000000000        0x0 ./lib/STM32F10x_StdPeriph_Driver/src/stm32f10x_pwr.o
 .bss           0x0000000000000000        0x0 ./lib/STM32F10x_StdPeriph_Driver/src/stm32f10x_pwr.o
 .bss           0x0000000000000000        0x0 ./lib/STM32F10x_StdPeriph_Driver/src/stm32f10x_rcc.o
 .text          0x0000000000000000      0x2bc ./lib/STM32F10x_StdPeriph_Driver/src/stm32f10x_spi.o
 .data          0x0000000000000000        0x0 ./lib/STM32F10x_StdPeriph_Driver/src/stm32f10x_spi.o
 .bss           0x0000000000000000        0x0 ./lib/STM32F10x_StdPeriph_Driver/src/stm32f10x_spi.o
 .data          0x0000000000000000        0x0 ./lib/STM32F10x_StdPeriph_Driver/src/stm32f10x_usart.o
 .bss           0x0000000000000000        0x0 ./lib/STM32F10x_StdPeriph_Driver/src/stm32f10x_usart.o
 .data          0x0000000000000000        0x0 ./lib/STM32F10x_StdPeriph_Driver/src/stm32f10x_tim.o
 .bss           0x0000000000000000        0x0 ./lib/STM32F10x_StdPeriph_Driver/src/stm32f10x_tim.o
 .text          0x0000000000000000      0x220 ./lib/STM32F10x_StdPeriph_Driver/src/stm32f10x_sdio.o
 .data          0x0000000000000000        0x0 ./lib/STM32F10x_StdPeriph_Driver/src/stm32f10x_sdio.o
 .bss           0x0000000000000000        0x0 ./lib/STM32F10x_StdPeriph_Driver/src/stm32f10x_sdio.o
 .text          0x0000000000000000       0x98 ./lib/STM32F10x_StdPeriph_Driver/src/stm32f10x_wwdg.o
 .data          0x0000000000000000        0x0 ./lib/STM32F10x_StdPeriph_Driver/src/stm32f10x_wwdg.o
 .bss           0x0000000000000000        0x0 ./lib/STM32F10x_StdPeriph_Driver/src/stm32f10x_wwdg.o
 .text          0x0000000000000000       0x34 ./lib/STM32F10x_StdPeriph_Driver/src/stm32f10x_dbgmcu.o
 .data          0x0000000000000000        0x0 ./lib/STM32F10x_StdPeriph_Driver/src/stm32f10x_dbgmcu.o
 .bss           0x0000000000000000        0x0 ./lib/STM32F10x_StdPeriph_Driver/src/stm32f10x_dbgmcu.o
 .data          0x0000000000000000        0x0 ./lib/STM32F10x_StdPeriph_Driver/src/misc.o
 .bss           0x0000000000000000        0x0 ./lib/STM32F10x_StdPeriph_Driver/src/misc.o
 .group         0x0000000000000000       0x10 ./src/main.o
 .group         0x0000000000000000       0x10 ./src/main.o
 .group         0x0000000000000000       0x10 ./src/main.o
 .group         0x0000000000000000       0x10 ./src/main.o
 .group         0x0000000000000000       0x10 ./src/main.o
 .group         0x0000000000000000       0x10 ./src/main.o
 .group         0x0000000000000000       0x10 ./src/main.o
 .group         0x0000000000000000       0x10 ./src/main.o
 .group         0x0000000000000000       0x10 ./src/main.o
 .group         0x0000000000000000       0x10 ./src/main.o
 .group         0x0000000000000000       0x10 ./src/main.o
 .group         0x0000000000000000       0x10 ./src/main.o
 .group         0x0000000000000000       0x10 ./src/main.o
 .group         0x0000000000000000       0x10 ./src/main.o
 .group         0x0000000000000000       0x10 ./src/main.o
 .group         0x0000000000000000       0x10 ./src/main.o
 .group         0x0000000000000000       0x10 ./src/main.o
 .group         0x0000000000000000       0x10 ./src/main.o
 .group         0x0000000000000000       0x10 ./src/main.o
 .group         0x0000000000000000       0x10 ./src/main.o
 .group         0x0000000000000000       0x10 ./src/main.o
 .group         0x0000000000000000       0x10 ./src/main.o
 .group         0x0000000000000000       0x10 ./src/main.o
 .group         0x0000000000000000       0x10 ./src/main.o
 .group         0x0000000000000000       0x10 ./src/main.o
 .group         0x0000000000000000       0x10 ./src/main.o
 .group         0x0000000000000000       0x10 ./src/main.o
 .group         0x0000000000000000       0x10 ./src/main.o
 .group         0x0000000000000000       0x10 ./src/main.o
 .group         0x0000000000000000       0x10 ./src/main.o
 .group         0x0000000000000000       0x10 ./src/main.o
 .group         0x0000000000000000       0x10 ./src/main.o
 .group         0x0000000000000000       0x10 ./src/main.o
 .group         0x0000000000000000       0x10 ./src/main.o
 .group         0x0000000000000000       0x10 ./src/main.o
 .group         0x0000000000000000       0x10 ./src/main.o
 .group         0x0000000000000000       0x10 ./src/main.o
 .group         0x0000000000000000       0x10 ./src/main.o
 .group         0x0000000000000000       0x10 ./src/main.o
 .group         0x0000000000000000       0x10 ./src/main.o
 .group         0x0000000000000000       0x10 ./src/main.o
 .group         0x0000000000000000       0x10 ./src/main.o
 .group         0x0000000000000000       0x10 ./src/main.o
 .group         0x0000000000000000       0x10 ./src/main.o
 .group         0x0000000000000000       0x10 ./src/main.o
 .group         0x0000000000000000       0x10 ./src/main.o
 .group         0x0000000000000000       0x10 ./src/main.o
 .group         0x0000000000000000       0x10 ./src/main.o
 .group         0x0000000000000000       0x10 ./src/main.o
 .group         0x0000000000000000       0x10 ./src/main.o
 .group         0x0000000000000000        0x8 ./src/main.o
 .group         0x0000000000000000        0x8 ./src/main.o
 .group         0x0000000000000000        0x8 ./src/main.o
 .group         0x0000000000000000        0x8 ./src/main.o
 .group         0x0000000000000000        0x8 ./src/main.o
 .group         0x0000000000000000        0x8 ./src/main.o
 .group         0x0000000000000000        0x8 ./src/main.o
 .group         0x0000000000000000        0x8 ./src/main.o
 .group         0x0000000000000000        0x8 ./src/main.o
 .group         0x0000000000000000        0x8 ./src/main.o
 .group         0x0000000000000000        0x8 ./src/main.o
 .group         0x0000000000000000        0x8 ./src/main.o
 .group         0x0000000000000000        0x8 ./src/main.o
 .group         0x0000000000000000        0x8 ./src/main.o
 .group         0x0000000000000000        0x8 ./src/main.o
 .group         0x0000000000000000        0x8 ./src/main.o
 .group         0x0000000000000000        0x8 ./src/main.o
 .group         0x0000000000000000        0x8 ./src/main.o
 .group         0x0000000000000000        0x8 ./src/main.o
 .group         0x0000000000000000        0x8 ./src/main.o
 .group         0x0000000000000000        0x8 ./src/main.o
 .group         0x0000000000000000        0x8 ./src/main.o
 .group         0x0000000000000000        0x8 ./src/main.o
 .group         0x0000000000000000        0x8 ./src/main.o
 .group         0x0000000000000000        0x8 ./src/main.o
 .group         0x0000000000000000        0x8 ./src/main.o
 .group         0x0000000000000000        0x8 ./src/main.o
 .group         0x0000000000000000        0x8 ./src/main.o
 .group         0x0000000000000000        0x8 ./src/main.o
 .group         0x0000000000000000        0x8 ./src/main.o
 .group         0x0000000000000000        0x8 ./src/main.o
 .group         0x0000000000000000        0x8 ./src/main.o
 .group         0x0000000000000000        0x8 ./src/main.o
 .group         0x0000000000000000        0x8 ./src/main.o
 .group         0x0000000000000000        0x8 ./src/main.o
 .group         0x0000000000000000        0x8 ./src/main.o
 .group         0x0000000000000000        0x8 ./src/main.o
 .group         0x0000000000000000        0x8 ./src/main.o
 .group         0x0000000000000000        0x8 ./src/main.o
 .data          0x0000000000000000        0x0 ./src/motor.o
 .bss           0x0000000000000000        0x0 ./src/motor.o
 .group         0x0000000000000000       0x10 ./src/servo.o
 .data          0x0000000000000000        0x0 ./src/servo.o
 .bss           0x0000000000000000        0x0 ./src/servo.o
 .ARM.extab     0x0000000000000000        0x0 ./src/servo.o
 .group         0x0000000000000000       0x10 ./src/DCMotor.o
 .data          0x0000000000000000        0x0 ./src/DCMotor.o
 .bss           0x0000000000000000        0x0 ./src/DCMotor.o
 .ARM.extab     0x0000000000000000        0x0 ./src/DCMotor.o
 .data          0x0000000000000000        0x0 ./src/motorSettings.o
 .bss           0x0000000000000000        0x0 ./src/motorSettings.o
 .ARM.extab     0x0000000000000000        0x0 ./src/motorSettings.o
 .data          0x0000000000000000        0x0 ./src/LibraryHacks.o
 .ARM.extab     0x0000000000000000        0x0 ./src/LibraryHacks.o
 .text          0x0000000000000000       0xa0 ./lib/ros_lib/duration.o
 .data          0x0000000000000000        0x0 ./lib/ros_lib/duration.o
 .bss           0x0000000000000000        0x0 ./lib/ros_lib/duration.o
 .ARM.extab     0x0000000000000000        0x0 ./lib/ros_lib/duration.o
 .ARM.exidx     0x0000000000000000       0x20 ./lib/ros_lib/duration.o
 .data          0x0000000000000000        0x0 ./lib/ros_lib/time.o
 .bss           0x0000000000000000        0x0 ./lib/ros_lib/time.o
 .ARM.extab     0x0000000000000000        0x0 ./lib/ros_lib/time.o
 .text          0x0000000000000000        0x0 /opt/gcc-arm/gcc-arm-none-eabi-6_2-2016q4/bin/../lib/gcc/arm-none-eabi/6.2.1/../../../../arm-none-eabi/lib/thumb/v7-m/libstdc++.a(class_type_info.o)
 .data          0x0000000000000000        0x0 /opt/gcc-arm/gcc-arm-none-eabi-6_2-2016q4/bin/../lib/gcc/arm-none-eabi/6.2.1/../../../../arm-none-eabi/lib/thumb/v7-m/libstdc++.a(class_type_info.o)
 .bss           0x0000000000000000        0x0 /opt/gcc-arm/gcc-arm-none-eabi-6_2-2016q4/bin/../lib/gcc/arm-none-eabi/6.2.1/../../../../arm-none-eabi/lib/thumb/v7-m/libstdc++.a(class_type_info.o)
 .ARM.extab.text._ZNK10__cxxabiv117__class_type_info11__do_upcastEPKS0_PPv
                0x0000000000000000        0x0 /opt/gcc-arm/gcc-arm-none-eabi-6_2-2016q4/bin/../lib/gcc/arm-none-eabi/6.2.1/../../../../arm-none-eabi/lib/thumb/v7-m/libstdc++.a(class_type_info.o)
 .ARM.extab.text._ZNK10__cxxabiv117__class_type_info20__do_find_public_srcEiPKvPKS0_S2_
                0x0000000000000000        0x0 /opt/gcc-arm/gcc-arm-none-eabi-6_2-2016q4/bin/../lib/gcc/arm-none-eabi/6.2.1/../../../../arm-none-eabi/lib/thumb/v7-m/libstdc++.a(class_type_info.o)
 .ARM.extab.text._ZN10__cxxabiv117__class_type_infoD2Ev
                0x0000000000000000        0x0 /opt/gcc-arm/gcc-arm-none-eabi-6_2-2016q4/bin/../lib/gcc/arm-none-eabi/6.2.1/../../../../arm-none-eabi/lib/thumb/v7-m/libstdc++.a(class_type_info.o)
 .ARM.extab.text._ZN10__cxxabiv117__class_type_infoD0Ev
                0x0000000000000000        0x0 /opt/gcc-arm/gcc-arm-none-eabi-6_2-2016q4/bin/../lib/gcc/arm-none-eabi/6.2.1/../../../../arm-none-eabi/lib/thumb/v7-m/libstdc++.a(class_type_info.o)
 .ARM.extab.text._ZNK10__cxxabiv117__class_type_info11__do_upcastEPKS0_PKvRNS0_15__upcast_resultE
                0x0000000000000000        0x0 /opt/gcc-arm/gcc-arm-none-eabi-6_2-2016q4/bin/../lib/gcc/arm-none-eabi/6.2.1/../../../../arm-none-eabi/lib/thumb/v7-m/libstdc++.a(class_type_info.o)
 .ARM.extab.text._ZNK10__cxxabiv117__class_type_info10__do_catchEPKSt9type_infoPPvj
                0x0000000000000000        0x0 /opt/gcc-arm/gcc-arm-none-eabi-6_2-2016q4/bin/../lib/gcc/arm-none-eabi/6.2.1/../../../../arm-none-eabi/lib/thumb/v7-m/libstdc++.a(class_type_info.o)
 .ARM.extab.text._ZNK10__cxxabiv117__class_type_info12__do_dyncastEiNS0_10__sub_kindEPKS0_PKvS3_S5_RNS0_16__dyncast_resultE
                0x0000000000000000        0x0 /opt/gcc-arm/gcc-arm-none-eabi-6_2-2016q4/bin/../lib/gcc/arm-none-eabi/6.2.1/../../../../arm-none-eabi/lib/thumb/v7-m/libstdc++.a(class_type_info.o)
 .text          0x0000000000000000        0x0 /opt/gcc-arm/gcc-arm-none-eabi-6_2-2016q4/bin/../lib/gcc/arm-none-eabi/6.2.1/../../../../arm-none-eabi/lib/thumb/v7-m/libstdc++.a(eh_arm.o)
 .data          0x0000000000000000        0x0 /opt/gcc-arm/gcc-arm-none-eabi-6_2-2016q4/bin/../lib/gcc/arm-none-eabi/6.2.1/../../../../arm-none-eabi/lib/thumb/v7-m/libstdc++.a(eh_arm.o)
 .bss           0x0000000000000000        0x0 /opt/gcc-arm/gcc-arm-none-eabi-6_2-2016q4/bin/../lib/gcc/arm-none-eabi/6.2.1/../../../../arm-none-eabi/lib/thumb/v7-m/libstdc++.a(eh_arm.o)
 .ARM.extab.text.__cxa_type_match
                0x0000000000000000        0x0 /opt/gcc-arm/gcc-arm-none-eabi-6_2-2016q4/bin/../lib/gcc/arm-none-eabi/6.2.1/../../../../arm-none-eabi/lib/thumb/v7-m/libstdc++.a(eh_arm.o)
 .ARM.extab.text.__cxa_begin_cleanup
                0x0000000000000000        0x0 /opt/gcc-arm/gcc-arm-none-eabi-6_2-2016q4/bin/../lib/gcc/arm-none-eabi/6.2.1/../../../../arm-none-eabi/lib/thumb/v7-m/libstdc++.a(eh_arm.o)
 .ARM.extab.text.__gnu_end_cleanup
                0x0000000000000000        0x0 /opt/gcc-arm/gcc-arm-none-eabi-6_2-2016q4/bin/../lib/gcc/arm-none-eabi/6.2.1/../../../../arm-none-eabi/lib/thumb/v7-m/libstdc++.a(eh_arm.o)
 .text          0x0000000000000000        0x0 /opt/gcc-arm/gcc-arm-none-eabi-6_2-2016q4/bin/../lib/gcc/arm-none-eabi/6.2.1/../../../../arm-none-eabi/lib/thumb/v7-m/libstdc++.a(eh_globals.o)
 .data          0x0000000000000000        0x0 /opt/gcc-arm/gcc-arm-none-eabi-6_2-2016q4/bin/../lib/gcc/arm-none-eabi/6.2.1/../../../../arm-none-eabi/lib/thumb/v7-m/libstdc++.a(eh_globals.o)
 .bss           0x0000000000000000        0x0 /opt/gcc-arm/gcc-arm-none-eabi-6_2-2016q4/bin/../lib/gcc/arm-none-eabi/6.2.1/../../../../arm-none-eabi/lib/thumb/v7-m/libstdc++.a(eh_globals.o)
 .ARM.extab.text.__cxa_get_globals_fast
                0x0000000000000000        0x0 /opt/gcc-arm/gcc-arm-none-eabi-6_2-2016q4/bin/../lib/gcc/arm-none-eabi/6.2.1/../../../../arm-none-eabi/lib/thumb/v7-m/libstdc++.a(eh_globals.o)
 .ARM.extab.text.__cxa_get_globals
                0x0000000000000000        0x0 /opt/gcc-arm/gcc-arm-none-eabi-6_2-2016q4/bin/../lib/gcc/arm-none-eabi/6.2.1/../../../../arm-none-eabi/lib/thumb/v7-m/libstdc++.a(eh_globals.o)
 .text          0x0000000000000000        0x0 /opt/gcc-arm/gcc-arm-none-eabi-6_2-2016q4/bin/../lib/gcc/arm-none-eabi/6.2.1/../../../../arm-none-eabi/lib/thumb/v7-m/libstdc++.a(eh_exception.o)
 .data          0x0000000000000000        0x0 /opt/gcc-arm/gcc-arm-none-eabi-6_2-2016q4/bin/../lib/gcc/arm-none-eabi/6.2.1/../../../../arm-none-eabi/lib/thumb/v7-m/libstdc++.a(eh_exception.o)
 .bss           0x0000000000000000        0x0 /opt/gcc-arm/gcc-arm-none-eabi-6_2-2016q4/bin/../lib/gcc/arm-none-eabi/6.2.1/../../../../arm-none-eabi/lib/thumb/v7-m/libstdc++.a(eh_exception.o)
 .text._ZNSt9exceptionD2Ev
                0x0000000000000000        0x4 /opt/gcc-arm/gcc-arm-none-eabi-6_2-2016q4/bin/../lib/gcc/arm-none-eabi/6.2.1/../../../../arm-none-eabi/lib/thumb/v7-m/libstdc++.a(eh_exception.o)
 .ARM.extab.text._ZNSt9exceptionD2Ev
                0x0000000000000000        0x0 /opt/gcc-arm/gcc-arm-none-eabi-6_2-2016q4/bin/../lib/gcc/arm-none-eabi/6.2.1/../../../../arm-none-eabi/lib/thumb/v7-m/libstdc++.a(eh_exception.o)
 .ARM.exidx.text._ZNSt9exceptionD2Ev
                0x0000000000000000        0x8 /opt/gcc-arm/gcc-arm-none-eabi-6_2-2016q4/bin/../lib/gcc/arm-none-eabi/6.2.1/../../../../arm-none-eabi/lib/thumb/v7-m/libstdc++.a(eh_exception.o)
 .ARM.extab.text._ZNSt13bad_exceptionD2Ev
                0x0000000000000000        0x0 /opt/gcc-arm/gcc-arm-none-eabi-6_2-2016q4/bin/../lib/gcc/arm-none-eabi/6.2.1/../../../../arm-none-eabi/lib/thumb/v7-m/libstdc++.a(eh_exception.o)
 .text._ZGTtNKSt9exception4whatEv
                0x0000000000000000        0x8 /opt/gcc-arm/gcc-arm-none-eabi-6_2-2016q4/bin/../lib/gcc/arm-none-eabi/6.2.1/../../../../arm-none-eabi/lib/thumb/v7-m/libstdc++.a(eh_exception.o)
 .ARM.extab.text._ZGTtNKSt9exception4whatEv
                0x0000000000000000        0x0 /opt/gcc-arm/gcc-arm-none-eabi-6_2-2016q4/bin/../lib/gcc/arm-none-eabi/6.2.1/../../../../arm-none-eabi/lib/thumb/v7-m/libstdc++.a(eh_exception.o)
 .ARM.exidx.text._ZGTtNKSt9exception4whatEv
                0x0000000000000000        0x8 /opt/gcc-arm/gcc-arm-none-eabi-6_2-2016q4/bin/../lib/gcc/arm-none-eabi/6.2.1/../../../../arm-none-eabi/lib/thumb/v7-m/libstdc++.a(eh_exception.o)
 .ARM.extab.text._ZGTtNKSt13bad_exception4whatEv
                0x0000000000000000        0x0 /opt/gcc-arm/gcc-arm-none-eabi-6_2-2016q4/bin/../lib/gcc/arm-none-eabi/6.2.1/../../../../arm-none-eabi/lib/thumb/v7-m/libstdc++.a(eh_exception.o)
 .text._ZNSt9exceptionD0Ev
                0x0000000000000000       0x10 /opt/gcc-arm/gcc-arm-none-eabi-6_2-2016q4/bin/../lib/gcc/arm-none-eabi/6.2.1/../../../../arm-none-eabi/lib/thumb/v7-m/libstdc++.a(eh_exception.o)
 .ARM.extab.text._ZNSt9exceptionD0Ev
                0x0000000000000000        0x0 /opt/gcc-arm/gcc-arm-none-eabi-6_2-2016q4/bin/../lib/gcc/arm-none-eabi/6.2.1/../../../../arm-none-eabi/lib/thumb/v7-m/libstdc++.a(eh_exception.o)
 .ARM.exidx.text._ZNSt9exceptionD0Ev
                0x0000000000000000        0x8 /opt/gcc-arm/gcc-arm-none-eabi-6_2-2016q4/bin/../lib/gcc/arm-none-eabi/6.2.1/../../../../arm-none-eabi/lib/thumb/v7-m/libstdc++.a(eh_exception.o)
 .ARM.extab.text._ZNSt13bad_exceptionD0Ev
                0x0000000000000000        0x0 /opt/gcc-arm/gcc-arm-none-eabi-6_2-2016q4/bin/../lib/gcc/arm-none-eabi/6.2.1/../../../../arm-none-eabi/lib/thumb/v7-m/libstdc++.a(eh_exception.o)
 .text._ZN10__cxxabiv115__forced_unwindD2Ev
                0x0000000000000000        0x4 /opt/gcc-arm/gcc-arm-none-eabi-6_2-2016q4/bin/../lib/gcc/arm-none-eabi/6.2.1/../../../../arm-none-eabi/lib/thumb/v7-m/libstdc++.a(eh_exception.o)
 .ARM.extab.text._ZN10__cxxabiv115__forced_unwindD2Ev
                0x0000000000000000        0x0 /opt/gcc-arm/gcc-arm-none-eabi-6_2-2016q4/bin/../lib/gcc/arm-none-eabi/6.2.1/../../../../arm-none-eabi/lib/thumb/v7-m/libstdc++.a(eh_exception.o)
 .ARM.exidx.text._ZN10__cxxabiv115__forced_unwindD2Ev
                0x0000000000000000        0x8 /opt/gcc-arm/gcc-arm-none-eabi-6_2-2016q4/bin/../lib/gcc/arm-none-eabi/6.2.1/../../../../arm-none-eabi/lib/thumb/v7-m/libstdc++.a(eh_exception.o)
 .text._ZN10__cxxabiv115__forced_unwindD0Ev
                0x0000000000000000       0x10 /opt/gcc-arm/gcc-arm-none-eabi-6_2-2016q4/bin/../lib/gcc/arm-none-eabi/6.2.1/../../../../arm-none-eabi/lib/thumb/v7-m/libstdc++.a(eh_exception.o)
 .ARM.extab.text._ZN10__cxxabiv115__forced_unwindD0Ev
                0x0000000000000000        0x0 /opt/gcc-arm/gcc-arm-none-eabi-6_2-2016q4/bin/../lib/gcc/arm-none-eabi/6.2.1/../../../../arm-none-eabi/lib/thumb/v7-m/libstdc++.a(eh_exception.o)
 .ARM.exidx.text._ZN10__cxxabiv115__forced_unwindD0Ev
                0x0000000000000000        0x8 /opt/gcc-arm/gcc-arm-none-eabi-6_2-2016q4/bin/../lib/gcc/arm-none-eabi/6.2.1/../../../../arm-none-eabi/lib/thumb/v7-m/libstdc++.a(eh_exception.o)
 .text._ZN10__cxxabiv119__foreign_exceptionD2Ev
                0x0000000000000000        0x4 /opt/gcc-arm/gcc-arm-none-eabi-6_2-2016q4/bin/../lib/gcc/arm-none-eabi/6.2.1/../../../../arm-none-eabi/lib/thumb/v7-m/libstdc++.a(eh_exception.o)
 .ARM.extab.text._ZN10__cxxabiv119__foreign_exceptionD2Ev
                0x0000000000000000        0x0 /opt/gcc-arm/gcc-arm-none-eabi-6_2-2016q4/bin/../lib/gcc/arm-none-eabi/6.2.1/../../../../arm-none-eabi/lib/thumb/v7-m/libstdc++.a(eh_exception.o)
 .ARM.exidx.text._ZN10__cxxabiv119__foreign_exceptionD2Ev
                0x0000000000000000        0x8 /opt/gcc-arm/gcc-arm-none-eabi-6_2-2016q4/bin/../lib/gcc/arm-none-eabi/6.2.1/../../../../arm-none-eabi/lib/thumb/v7-m/libstdc++.a(eh_exception.o)
 .text._ZN10__cxxabiv119__foreign_exceptionD0Ev
                0x0000000000000000       0x10 /opt/gcc-arm/gcc-arm-none-eabi-6_2-2016q4/bin/../lib/gcc/arm-none-eabi/6.2.1/../../../../arm-none-eabi/lib/thumb/v7-m/libstdc++.a(eh_exception.o)
 .ARM.extab.text._ZN10__cxxabiv119__foreign_exceptionD0Ev
                0x0000000000000000        0x0 /opt/gcc-arm/gcc-arm-none-eabi-6_2-2016q4/bin/../lib/gcc/arm-none-eabi/6.2.1/../../../../arm-none-eabi/lib/thumb/v7-m/libstdc++.a(eh_exception.o)
 .ARM.exidx.text._ZN10__cxxabiv119__foreign_exceptionD0Ev
                0x0000000000000000        0x8 /opt/gcc-arm/gcc-arm-none-eabi-6_2-2016q4/bin/../lib/gcc/arm-none-eabi/6.2.1/../../../../arm-none-eabi/lib/thumb/v7-m/libstdc++.a(eh_exception.o)
 .text._ZGTtNKSt9exceptionD1Ev
                0x0000000000000000        0x4 /opt/gcc-arm/gcc-arm-none-eabi-6_2-2016q4/bin/../lib/gcc/arm-none-eabi/6.2.1/../../../../arm-none-eabi/lib/thumb/v7-m/libstdc++.a(eh_exception.o)
 .ARM.extab.text._ZGTtNKSt9exceptionD1Ev
                0x0000000000000000        0x0 /opt/gcc-arm/gcc-arm-none-eabi-6_2-2016q4/bin/../lib/gcc/arm-none-eabi/6.2.1/../../../../arm-none-eabi/lib/thumb/v7-m/libstdc++.a(eh_exception.o)
 .ARM.exidx.text._ZGTtNKSt9exceptionD1Ev
                0x0000000000000000        0x8 /opt/gcc-arm/gcc-arm-none-eabi-6_2-2016q4/bin/../lib/gcc/arm-none-eabi/6.2.1/../../../../arm-none-eabi/lib/thumb/v7-m/libstdc++.a(eh_exception.o)
 .text._ZGTtNKSt13bad_exceptionD1Ev
                0x0000000000000000        0x4 /opt/gcc-arm/gcc-arm-none-eabi-6_2-2016q4/bin/../lib/gcc/arm-none-eabi/6.2.1/../../../../arm-none-eabi/lib/thumb/v7-m/libstdc++.a(eh_exception.o)
 .ARM.extab.text._ZGTtNKSt13bad_exceptionD1Ev
                0x0000000000000000        0x0 /opt/gcc-arm/gcc-arm-none-eabi-6_2-2016q4/bin/../lib/gcc/arm-none-eabi/6.2.1/../../../../arm-none-eabi/lib/thumb/v7-m/libstdc++.a(eh_exception.o)
 .ARM.exidx.text._ZGTtNKSt13bad_exceptionD1Ev
                0x0000000000000000        0x8 /opt/gcc-arm/gcc-arm-none-eabi-6_2-2016q4/bin/../lib/gcc/arm-none-eabi/6.2.1/../../../../arm-none-eabi/lib/thumb/v7-m/libstdc++.a(eh_exception.o)
 .rodata._ZGTtNKSt9exception4whatEv.str1.4
                0x0000000000000000        0xf /opt/gcc-arm/gcc-arm-none-eabi-6_2-2016q4/bin/../lib/gcc/arm-none-eabi/6.2.1/../../../../arm-none-eabi/lib/thumb/v7-m/libstdc++.a(eh_exception.o)
 .rodata._ZTVN10__cxxabiv115__forced_unwindE
                0x0000000000000000       0x14 /opt/gcc-arm/gcc-arm-none-eabi-6_2-2016q4/bin/../lib/gcc/arm-none-eabi/6.2.1/../../../../arm-none-eabi/lib/thumb/v7-m/libstdc++.a(eh_exception.o)
 .rodata._ZTVN10__cxxabiv119__foreign_exceptionE
                0x0000000000000000       0x14 /opt/gcc-arm/gcc-arm-none-eabi-6_2-2016q4/bin/../lib/gcc/arm-none-eabi/6.2.1/../../../../arm-none-eabi/lib/thumb/v7-m/libstdc++.a(eh_exception.o)
 .rodata._ZTVSt9exception
                0x0000000000000000       0x14 /opt/gcc-arm/gcc-arm-none-eabi-6_2-2016q4/bin/../lib/gcc/arm-none-eabi/6.2.1/../../../../arm-none-eabi/lib/thumb/v7-m/libstdc++.a(eh_exception.o)
 .text          0x0000000000000000        0x0 /opt/gcc-arm/gcc-arm-none-eabi-6_2-2016q4/bin/../lib/gcc/arm-none-eabi/6.2.1/../../../../arm-none-eabi/lib/thumb/v7-m/libstdc++.a(si_class_type_info.o)
 .data          0x0000000000000000        0x0 /opt/gcc-arm/gcc-arm-none-eabi-6_2-2016q4/bin/../lib/gcc/arm-none-eabi/6.2.1/../../../../arm-none-eabi/lib/thumb/v7-m/libstdc++.a(si_class_type_info.o)
 .bss           0x0000000000000000        0x0 /opt/gcc-arm/gcc-arm-none-eabi-6_2-2016q4/bin/../lib/gcc/arm-none-eabi/6.2.1/../../../../arm-none-eabi/lib/thumb/v7-m/libstdc++.a(si_class_type_info.o)
 .ARM.extab.text._ZN10__cxxabiv120__si_class_type_infoD2Ev
                0x0000000000000000        0x0 /opt/gcc-arm/gcc-arm-none-eabi-6_2-2016q4/bin/../lib/gcc/arm-none-eabi/6.2.1/../../../../arm-none-eabi/lib/thumb/v7-m/libstdc++.a(si_class_type_info.o)
 .ARM.extab.text._ZN10__cxxabiv120__si_class_type_infoD0Ev
                0x0000000000000000        0x0 /opt/gcc-arm/gcc-arm-none-eabi-6_2-2016q4/bin/../lib/gcc/arm-none-eabi/6.2.1/../../../../arm-none-eabi/lib/thumb/v7-m/libstdc++.a(si_class_type_info.o)
 .ARM.extab.text._ZNK10__cxxabiv120__si_class_type_info20__do_find_public_srcEiPKvPKNS_17__class_type_infoES2_
                0x0000000000000000        0x0 /opt/gcc-arm/gcc-arm-none-eabi-6_2-2016q4/bin/../lib/gcc/arm-none-eabi/6.2.1/../../../../arm-none-eabi/lib/thumb/v7-m/libstdc++.a(si_class_type_info.o)
 .ARM.extab.text._ZNK10__cxxabiv120__si_class_type_info12__do_dyncastEiNS_17__class_type_info10__sub_kindEPKS1_PKvS4_S6_RNS1_16__dyncast_resultE
                0x0000000000000000        0x0 /opt/gcc-arm/gcc-arm-none-eabi-6_2-2016q4/bin/../lib/gcc/arm-none-eabi/6.2.1/../../../../arm-none-eabi/lib/thumb/v7-m/libstdc++.a(si_class_type_info.o)
 .ARM.extab.text._ZNK10__cxxabiv120__si_class_type_info11__do_upcastEPKNS_17__class_type_infoEPKvRNS1_15__upcast_resultE
                0x0000000000000000        0x0 /opt/gcc-arm/gcc-arm-none-eabi-6_2-2016q4/bin/../lib/gcc/arm-none-eabi/6.2.1/../../../../arm-none-eabi/lib/thumb/v7-m/libstdc++.a(si_class_type_info.o)
 .text          0x0000000000000000        0x0 /opt/gcc-arm/gcc-arm-none-eabi-6_2-2016q4/bin/../lib/gcc/arm-none-eabi/6.2.1/../../../../arm-none-eabi/lib/thumb/v7-m/libstdc++.a(del_ops.o)
 .data          0x0000000000000000        0x0 /opt/gcc-arm/gcc-arm-none-eabi-6_2-2016q4/bin/../lib/gcc/arm-none-eabi/6.2.1/../../../../arm-none-eabi/lib/thumb/v7-m/libstdc++.a(del_ops.o)
 .bss           0x0000000000000000        0x0 /opt/gcc-arm/gcc-arm-none-eabi-6_2-2016q4/bin/../lib/gcc/arm-none-eabi/6.2.1/../../../../arm-none-eabi/lib/thumb/v7-m/libstdc++.a(del_ops.o)
 .ARM.extab.text._ZdlPvj
                0x0000000000000000        0x0 /opt/gcc-arm/gcc-arm-none-eabi-6_2-2016q4/bin/../lib/gcc/arm-none-eabi/6.2.1/../../../../arm-none-eabi/lib/thumb/v7-m/libstdc++.a(del_ops.o)
 .text          0x0000000000000000        0x0 /opt/gcc-arm/gcc-arm-none-eabi-6_2-2016q4/bin/../lib/gcc/arm-none-eabi/6.2.1/../../../../arm-none-eabi/lib/thumb/v7-m/libstdc++.a(eh_personality.o)
 .data          0x0000000000000000        0x0 /opt/gcc-arm/gcc-arm-none-eabi-6_2-2016q4/bin/../lib/gcc/arm-none-eabi/6.2.1/../../../../arm-none-eabi/lib/thumb/v7-m/libstdc++.a(eh_personality.o)
 .bss           0x0000000000000000        0x0 /opt/gcc-arm/gcc-arm-none-eabi-6_2-2016q4/bin/../lib/gcc/arm-none-eabi/6.2.1/../../../../arm-none-eabi/lib/thumb/v7-m/libstdc++.a(eh_personality.o)
 .ARM.extab.text._ZL28read_encoded_value_with_basehjPKhPj
                0x0000000000000000        0x0 /opt/gcc-arm/gcc-arm-none-eabi-6_2-2016q4/bin/../lib/gcc/arm-none-eabi/6.2.1/../../../../arm-none-eabi/lib/thumb/v7-m/libstdc++.a(eh_personality.o)
 .ARM.extab.text._ZL17parse_lsda_headerP15_Unwind_ContextPKhP16lsda_header_info
                0x0000000000000000        0x0 /opt/gcc-arm/gcc-arm-none-eabi-6_2-2016q4/bin/../lib/gcc/arm-none-eabi/6.2.1/../../../../arm-none-eabi/lib/thumb/v7-m/libstdc++.a(eh_personality.o)
 .text          0x0000000000000000        0x0 /opt/gcc-arm/gcc-arm-none-eabi-6_2-2016q4/bin/../lib/gcc/arm-none-eabi/6.2.1/../../../../arm-none-eabi/lib/thumb/v7-m/libstdc++.a(eh_terminate.o)
 .data          0x0000000000000000        0x0 /opt/gcc-arm/gcc-arm-none-eabi-6_2-2016q4/bin/../lib/gcc/arm-none-eabi/6.2.1/../../../../arm-none-eabi/lib/thumb/v7-m/libstdc++.a(eh_terminate.o)
 .bss           0x0000000000000000        0x0 /opt/gcc-arm/gcc-arm-none-eabi-6_2-2016q4/bin/../lib/gcc/arm-none-eabi/6.2.1/../../../../arm-none-eabi/lib/thumb/v7-m/libstdc++.a(eh_terminate.o)
 .ARM.extab.text._ZSt9terminatev
                0x0000000000000000        0x0 /opt/gcc-arm/gcc-arm-none-eabi-6_2-2016q4/bin/../lib/gcc/arm-none-eabi/6.2.1/../../../../arm-none-eabi/lib/thumb/v7-m/libstdc++.a(eh_terminate.o)
 .text._ZSt13set_terminatePFvvE
                0x0000000000000000       0x20 /opt/gcc-arm/gcc-arm-none-eabi-6_2-2016q4/bin/../lib/gcc/arm-none-eabi/6.2.1/../../../../arm-none-eabi/lib/thumb/v7-m/libstdc++.a(eh_terminate.o)
 .ARM.extab.text._ZSt13set_terminatePFvvE
                0x0000000000000000        0x0 /opt/gcc-arm/gcc-arm-none-eabi-6_2-2016q4/bin/../lib/gcc/arm-none-eabi/6.2.1/../../../../arm-none-eabi/lib/thumb/v7-m/libstdc++.a(eh_terminate.o)
 .ARM.exidx.text._ZSt13set_terminatePFvvE
                0x0000000000000000        0x8 /opt/gcc-arm/gcc-arm-none-eabi-6_2-2016q4/bin/../lib/gcc/arm-none-eabi/6.2.1/../../../../arm-none-eabi/lib/thumb/v7-m/libstdc++.a(eh_terminate.o)
 .ARM.extab.text._ZSt13get_terminatev
                0x0000000000000000        0x0 /opt/gcc-arm/gcc-arm-none-eabi-6_2-2016q4/bin/../lib/gcc/arm-none-eabi/6.2.1/../../../../arm-none-eabi/lib/thumb/v7-m/libstdc++.a(eh_terminate.o)
 .text._ZSt14set_unexpectedPFvvE
                0x0000000000000000       0x20 /opt/gcc-arm/gcc-arm-none-eabi-6_2-2016q4/bin/../lib/gcc/arm-none-eabi/6.2.1/../../../../arm-none-eabi/lib/thumb/v7-m/libstdc++.a(eh_terminate.o)
 .ARM.extab.text._ZSt14set_unexpectedPFvvE
                0x0000000000000000        0x0 /opt/gcc-arm/gcc-arm-none-eabi-6_2-2016q4/bin/../lib/gcc/arm-none-eabi/6.2.1/../../../../arm-none-eabi/lib/thumb/v7-m/libstdc++.a(eh_terminate.o)
 .ARM.exidx.text._ZSt14set_unexpectedPFvvE
                0x0000000000000000        0x8 /opt/gcc-arm/gcc-arm-none-eabi-6_2-2016q4/bin/../lib/gcc/arm-none-eabi/6.2.1/../../../../arm-none-eabi/lib/thumb/v7-m/libstdc++.a(eh_terminate.o)
 .ARM.extab.text._ZSt14get_unexpectedv
                0x0000000000000000        0x0 /opt/gcc-arm/gcc-arm-none-eabi-6_2-2016q4/bin/../lib/gcc/arm-none-eabi/6.2.1/../../../../arm-none-eabi/lib/thumb/v7-m/libstdc++.a(eh_terminate.o)
 .text          0x0000000000000000        0x0 /opt/gcc-arm/gcc-arm-none-eabi-6_2-2016q4/bin/../lib/gcc/arm-none-eabi/6.2.1/../../../../arm-none-eabi/lib/thumb/v7-m/libstdc++.a(tinfo.o)
 .data          0x0000000000000000        0x0 /opt/gcc-arm/gcc-arm-none-eabi-6_2-2016q4/bin/../lib/gcc/arm-none-eabi/6.2.1/../../../../arm-none-eabi/lib/thumb/v7-m/libstdc++.a(tinfo.o)
 .bss           0x0000000000000000        0x0 /opt/gcc-arm/gcc-arm-none-eabi-6_2-2016q4/bin/../lib/gcc/arm-none-eabi/6.2.1/../../../../arm-none-eabi/lib/thumb/v7-m/libstdc++.a(tinfo.o)
 .ARM.extab.text._ZNSt9type_infoD2Ev
                0x0000000000000000        0x0 /opt/gcc-arm/gcc-arm-none-eabi-6_2-2016q4/bin/../lib/gcc/arm-none-eabi/6.2.1/../../../../arm-none-eabi/lib/thumb/v7-m/libstdc++.a(tinfo.o)
 .ARM.extab.text._ZNKSt9type_info15__is_function_pEv
                0x0000000000000000        0x0 /opt/gcc-arm/gcc-arm-none-eabi-6_2-2016q4/bin/../lib/gcc/arm-none-eabi/6.2.1/../../../../arm-none-eabi/lib/thumb/v7-m/libstdc++.a(tinfo.o)
 .text._ZNKSt9type_info11__do_upcastEPKN10__cxxabiv117__class_type_infoEPPv
                0x0000000000000000        0x4 /opt/gcc-arm/gcc-arm-none-eabi-6_2-2016q4/bin/../lib/gcc/arm-none-eabi/6.2.1/../../../../arm-none-eabi/lib/thumb/v7-m/libstdc++.a(tinfo.o)
 .ARM.extab.text._ZNKSt9type_info11__do_upcastEPKN10__cxxabiv117__class_type_infoEPPv
                0x0000000000000000        0x0 /opt/gcc-arm/gcc-arm-none-eabi-6_2-2016q4/bin/../lib/gcc/arm-none-eabi/6.2.1/../../../../arm-none-eabi/lib/thumb/v7-m/libstdc++.a(tinfo.o)
 .ARM.exidx.text._ZNKSt9type_info11__do_upcastEPKN10__cxxabiv117__class_type_infoEPPv
                0x0000000000000000        0x8 /opt/gcc-arm/gcc-arm-none-eabi-6_2-2016q4/bin/../lib/gcc/arm-none-eabi/6.2.1/../../../../arm-none-eabi/lib/thumb/v7-m/libstdc++.a(tinfo.o)
 .text._ZNSt9type_infoD0Ev
                0x0000000000000000       0x10 /opt/gcc-arm/gcc-arm-none-eabi-6_2-2016q4/bin/../lib/gcc/arm-none-eabi/6.2.1/../../../../arm-none-eabi/lib/thumb/v7-m/libstdc++.a(tinfo.o)
 .ARM.extab.text._ZNSt9type_infoD0Ev
                0x0000000000000000        0x0 /opt/gcc-arm/gcc-arm-none-eabi-6_2-2016q4/bin/../lib/gcc/arm-none-eabi/6.2.1/../../../../arm-none-eabi/lib/thumb/v7-m/libstdc++.a(tinfo.o)
 .ARM.exidx.text._ZNSt9type_infoD0Ev
                0x0000000000000000        0x8 /opt/gcc-arm/gcc-arm-none-eabi-6_2-2016q4/bin/../lib/gcc/arm-none-eabi/6.2.1/../../../../arm-none-eabi/lib/thumb/v7-m/libstdc++.a(tinfo.o)
 .ARM.extab.text._ZNKSt9type_infoeqERKS_
                0x0000000000000000        0x0 /opt/gcc-arm/gcc-arm-none-eabi-6_2-2016q4/bin/../lib/gcc/arm-none-eabi/6.2.1/../../../../arm-none-eabi/lib/thumb/v7-m/libstdc++.a(tinfo.o)
 .text._ZNKSt9type_info10__do_catchEPKS_PPvj
                0x0000000000000000        0x4 /opt/gcc-arm/gcc-arm-none-eabi-6_2-2016q4/bin/../lib/gcc/arm-none-eabi/6.2.1/../../../../arm-none-eabi/lib/thumb/v7-m/libstdc++.a(tinfo.o)
 .ARM.extab.text._ZNKSt9type_info10__do_catchEPKS_PPvj
                0x0000000000000000        0x0 /opt/gcc-arm/gcc-arm-none-eabi-6_2-2016q4/bin/../lib/gcc/arm-none-eabi/6.2.1/../../../../arm-none-eabi/lib/thumb/v7-m/libstdc++.a(tinfo.o)
 .ARM.exidx.text._ZNKSt9type_info10__do_catchEPKS_PPvj
                0x0000000000000000        0x8 /opt/gcc-arm/gcc-arm-none-eabi-6_2-2016q4/bin/../lib/gcc/arm-none-eabi/6.2.1/../../../../arm-none-eabi/lib/thumb/v7-m/libstdc++.a(tinfo.o)
 .rodata._ZTVSt9type_info
                0x0000000000000000       0x20 /opt/gcc-arm/gcc-arm-none-eabi-6_2-2016q4/bin/../lib/gcc/arm-none-eabi/6.2.1/../../../../arm-none-eabi/lib/thumb/v7-m/libstdc++.a(tinfo.o)
 .text          0x0000000000000000        0x0 /opt/gcc-arm/gcc-arm-none-eabi-6_2-2016q4/bin/../lib/gcc/arm-none-eabi/6.2.1/../../../../arm-none-eabi/lib/thumb/v7-m/libstdc++.a(eh_term_handler.o)
 .data          0x0000000000000000        0x0 /opt/gcc-arm/gcc-arm-none-eabi-6_2-2016q4/bin/../lib/gcc/arm-none-eabi/6.2.1/../../../../arm-none-eabi/lib/thumb/v7-m/libstdc++.a(eh_term_handler.o)
 .bss           0x0000000000000000        0x0 /opt/gcc-arm/gcc-arm-none-eabi-6_2-2016q4/bin/../lib/gcc/arm-none-eabi/6.2.1/../../../../arm-none-eabi/lib/thumb/v7-m/libstdc++.a(eh_term_handler.o)
 .text          0x0000000000000000        0x0 /opt/gcc-arm/gcc-arm-none-eabi-6_2-2016q4/bin/../lib/gcc/arm-none-eabi/6.2.1/../../../../arm-none-eabi/lib/thumb/v7-m/libstdc++.a(eh_call.o)
 .data          0x0000000000000000        0x0 /opt/gcc-arm/gcc-arm-none-eabi-6_2-2016q4/bin/../lib/gcc/arm-none-eabi/6.2.1/../../../../arm-none-eabi/lib/thumb/v7-m/libstdc++.a(eh_call.o)
 .bss           0x0000000000000000        0x0 /opt/gcc-arm/gcc-arm-none-eabi-6_2-2016q4/bin/../lib/gcc/arm-none-eabi/6.2.1/../../../../arm-none-eabi/lib/thumb/v7-m/libstdc++.a(eh_call.o)
 .ARM.extab.text._ZN10__cxxabiv1L24__is_gxx_exception_classEPc
                0x0000000000000000        0x0 /opt/gcc-arm/gcc-arm-none-eabi-6_2-2016q4/bin/../lib/gcc/arm-none-eabi/6.2.1/../../../../arm-none-eabi/lib/thumb/v7-m/libstdc++.a(eh_call.o)
 .ARM.extab.text.__cxa_call_terminate
                0x0000000000000000        0x0 /opt/gcc-arm/gcc-arm-none-eabi-6_2-2016q4/bin/../lib/gcc/arm-none-eabi/6.2.1/../../../../arm-none-eabi/lib/thumb/v7-m/libstdc++.a(eh_call.o)
 .text          0x0000000000000000        0x0 /opt/gcc-arm/gcc-arm-none-eabi-6_2-2016q4/bin/../lib/gcc/arm-none-eabi/6.2.1/../../../../arm-none-eabi/lib/thumb/v7-m/libstdc++.a(eh_catch.o)
 .data          0x0000000000000000        0x0 /opt/gcc-arm/gcc-arm-none-eabi-6_2-2016q4/bin/../lib/gcc/arm-none-eabi/6.2.1/../../../../arm-none-eabi/lib/thumb/v7-m/libstdc++.a(eh_catch.o)
 .bss           0x0000000000000000        0x0 /opt/gcc-arm/gcc-arm-none-eabi-6_2-2016q4/bin/../lib/gcc/arm-none-eabi/6.2.1/../../../../arm-none-eabi/lib/thumb/v7-m/libstdc++.a(eh_catch.o)
 .text.__cxa_get_exception_ptr
                0x0000000000000000        0x4 /opt/gcc-arm/gcc-arm-none-eabi-6_2-2016q4/bin/../lib/gcc/arm-none-eabi/6.2.1/../../../../arm-none-eabi/lib/thumb/v7-m/libstdc++.a(eh_catch.o)
 .ARM.extab.text.__cxa_get_exception_ptr
                0x0000000000000000        0x0 /opt/gcc-arm/gcc-arm-none-eabi-6_2-2016q4/bin/../lib/gcc/arm-none-eabi/6.2.1/../../../../arm-none-eabi/lib/thumb/v7-m/libstdc++.a(eh_catch.o)
 .ARM.exidx.text.__cxa_get_exception_ptr
                0x0000000000000000        0x8 /opt/gcc-arm/gcc-arm-none-eabi-6_2-2016q4/bin/../lib/gcc/arm-none-eabi/6.2.1/../../../../arm-none-eabi/lib/thumb/v7-m/libstdc++.a(eh_catch.o)
 .ARM.extab.text.__cxa_end_catch
                0x0000000000000000        0x0 /opt/gcc-arm/gcc-arm-none-eabi-6_2-2016q4/bin/../lib/gcc/arm-none-eabi/6.2.1/../../../../arm-none-eabi/lib/thumb/v7-m/libstdc++.a(eh_catch.o)
 .text._ZSt18uncaught_exceptionv
                0x0000000000000000       0x10 /opt/gcc-arm/gcc-arm-none-eabi-6_2-2016q4/bin/../lib/gcc/arm-none-eabi/6.2.1/../../../../arm-none-eabi/lib/thumb/v7-m/libstdc++.a(eh_catch.o)
 .ARM.extab.text._ZSt18uncaught_exceptionv
                0x0000000000000000        0x0 /opt/gcc-arm/gcc-arm-none-eabi-6_2-2016q4/bin/../lib/gcc/arm-none-eabi/6.2.1/../../../../arm-none-eabi/lib/thumb/v7-m/libstdc++.a(eh_catch.o)
 .ARM.exidx.text._ZSt18uncaught_exceptionv
                0x0000000000000000        0x8 /opt/gcc-arm/gcc-arm-none-eabi-6_2-2016q4/bin/../lib/gcc/arm-none-eabi/6.2.1/../../../../arm-none-eabi/lib/thumb/v7-m/libstdc++.a(eh_catch.o)
 .text._ZSt19uncaught_exceptionsv
                0x0000000000000000        0xc /opt/gcc-arm/gcc-arm-none-eabi-6_2-2016q4/bin/../lib/gcc/arm-none-eabi/6.2.1/../../../../arm-none-eabi/lib/thumb/v7-m/libstdc++.a(eh_catch.o)
 .ARM.extab.text._ZSt19uncaught_exceptionsv
                0x0000000000000000        0x0 /opt/gcc-arm/gcc-arm-none-eabi-6_2-2016q4/bin/../lib/gcc/arm-none-eabi/6.2.1/../../../../arm-none-eabi/lib/thumb/v7-m/libstdc++.a(eh_catch.o)
 .ARM.exidx.text._ZSt19uncaught_exceptionsv
                0x0000000000000000        0x8 /opt/gcc-arm/gcc-arm-none-eabi-6_2-2016q4/bin/../lib/gcc/arm-none-eabi/6.2.1/../../../../arm-none-eabi/lib/thumb/v7-m/libstdc++.a(eh_catch.o)
 .text          0x0000000000000000        0x0 /opt/gcc-arm/gcc-arm-none-eabi-6_2-2016q4/bin/../lib/gcc/arm-none-eabi/6.2.1/../../../../arm-none-eabi/lib/thumb/v7-m/libstdc++.a(eh_unex_handler.o)
 .data          0x0000000000000000        0x0 /opt/gcc-arm/gcc-arm-none-eabi-6_2-2016q4/bin/../lib/gcc/arm-none-eabi/6.2.1/../../../../arm-none-eabi/lib/thumb/v7-m/libstdc++.a(eh_unex_handler.o)
 .bss           0x0000000000000000        0x0 /opt/gcc-arm/gcc-arm-none-eabi-6_2-2016q4/bin/../lib/gcc/arm-none-eabi/6.2.1/../../../../arm-none-eabi/lib/thumb/v7-m/libstdc++.a(eh_unex_handler.o)
 .text          0x0000000000000000        0x0 /opt/gcc-arm/gcc-arm-none-eabi-6_2-2016q4/bin/../lib/gcc/arm-none-eabi/6.2.1/../../../../arm-none-eabi/lib/thumb/v7-m/libstdc++.a(eh_alloc.o)
 .data          0x0000000000000000        0x0 /opt/gcc-arm/gcc-arm-none-eabi-6_2-2016q4/bin/../lib/gcc/arm-none-eabi/6.2.1/../../../../arm-none-eabi/lib/thumb/v7-m/libstdc++.a(eh_alloc.o)
 .bss           0x0000000000000000        0x0 /opt/gcc-arm/gcc-arm-none-eabi-6_2-2016q4/bin/../lib/gcc/arm-none-eabi/6.2.1/../../../../arm-none-eabi/lib/thumb/v7-m/libstdc++.a(eh_alloc.o)
 .ARM.extab.text._ZN12_GLOBAL__N_14pool4freeEPv.constprop.4
                0x0000000000000000        0x0 /opt/gcc-arm/gcc-arm-none-eabi-6_2-2016q4/bin/../lib/gcc/arm-none-eabi/6.2.1/../../../../arm-none-eabi/lib/thumb/v7-m/libstdc++.a(eh_alloc.o)
 .ARM.extab.text._ZN12_GLOBAL__N_14pool8allocateEj.constprop.5
                0x0000000000000000        0x0 /opt/gcc-arm/gcc-arm-none-eabi-6_2-2016q4/bin/../lib/gcc/arm-none-eabi/6.2.1/../../../../arm-none-eabi/lib/thumb/v7-m/libstdc++.a(eh_alloc.o)
 .text._ZN9__gnu_cxx9__freeresEv
                0x0000000000000000       0x18 /opt/gcc-arm/gcc-arm-none-eabi-6_2-2016q4/bin/../lib/gcc/arm-none-eabi/6.2.1/../../../../arm-none-eabi/lib/thumb/v7-m/libstdc++.a(eh_alloc.o)
 .ARM.extab.text._ZN9__gnu_cxx9__freeresEv
                0x0000000000000000        0x0 /opt/gcc-arm/gcc-arm-none-eabi-6_2-2016q4/bin/../lib/gcc/arm-none-eabi/6.2.1/../../../../arm-none-eabi/lib/thumb/v7-m/libstdc++.a(eh_alloc.o)
 .ARM.exidx.text._ZN9__gnu_cxx9__freeresEv
                0x0000000000000000        0x8 /opt/gcc-arm/gcc-arm-none-eabi-6_2-2016q4/bin/../lib/gcc/arm-none-eabi/6.2.1/../../../../arm-none-eabi/lib/thumb/v7-m/libstdc++.a(eh_alloc.o)
 .ARM.extab.text.__cxa_allocate_exception
                0x0000000000000000        0x0 /opt/gcc-arm/gcc-arm-none-eabi-6_2-2016q4/bin/../lib/gcc/arm-none-eabi/6.2.1/../../../../arm-none-eabi/lib/thumb/v7-m/libstdc++.a(eh_alloc.o)
 .ARM.extab.text.__cxa_free_exception
                0x0000000000000000        0x0 /opt/gcc-arm/gcc-arm-none-eabi-6_2-2016q4/bin/../lib/gcc/arm-none-eabi/6.2.1/../../../../arm-none-eabi/lib/thumb/v7-m/libstdc++.a(eh_alloc.o)
 .text.__cxa_allocate_dependent_exception
                0x0000000000000000       0x2c /opt/gcc-arm/gcc-arm-none-eabi-6_2-2016q4/bin/../lib/gcc/arm-none-eabi/6.2.1/../../../../arm-none-eabi/lib/thumb/v7-m/libstdc++.a(eh_alloc.o)
 .ARM.extab.text.__cxa_allocate_dependent_exception
                0x0000000000000000        0x0 /opt/gcc-arm/gcc-arm-none-eabi-6_2-2016q4/bin/../lib/gcc/arm-none-eabi/6.2.1/../../../../arm-none-eabi/lib/thumb/v7-m/libstdc++.a(eh_alloc.o)
 .ARM.exidx.text.__cxa_allocate_dependent_exception
                0x0000000000000000        0x8 /opt/gcc-arm/gcc-arm-none-eabi-6_2-2016q4/bin/../lib/gcc/arm-none-eabi/6.2.1/../../../../arm-none-eabi/lib/thumb/v7-m/libstdc++.a(eh_alloc.o)
 .text.__cxa_free_dependent_exception
                0x0000000000000000       0x20 /opt/gcc-arm/gcc-arm-none-eabi-6_2-2016q4/bin/../lib/gcc/arm-none-eabi/6.2.1/../../../../arm-none-eabi/lib/thumb/v7-m/libstdc++.a(eh_alloc.o)
 .ARM.extab.text.__cxa_free_dependent_exception
                0x0000000000000000        0x0 /opt/gcc-arm/gcc-arm-none-eabi-6_2-2016q4/bin/../lib/gcc/arm-none-eabi/6.2.1/../../../../arm-none-eabi/lib/thumb/v7-m/libstdc++.a(eh_alloc.o)
 .ARM.exidx.text.__cxa_free_dependent_exception
                0x0000000000000000        0x8 /opt/gcc-arm/gcc-arm-none-eabi-6_2-2016q4/bin/../lib/gcc/arm-none-eabi/6.2.1/../../../../arm-none-eabi/lib/thumb/v7-m/libstdc++.a(eh_alloc.o)
 .ARM.extab.text.startup._GLOBAL__sub_I__ZN9__gnu_cxx9__freeresEv
                0x0000000000000000        0x0 /opt/gcc-arm/gcc-arm-none-eabi-6_2-2016q4/bin/../lib/gcc/arm-none-eabi/6.2.1/../../../../arm-none-eabi/lib/thumb/v7-m/libstdc++.a(eh_alloc.o)
 .text          0x0000000000000000        0x0 /opt/gcc-arm/gcc-arm-none-eabi-6_2-2016q4/bin/../lib/gcc/arm-none-eabi/6.2.1/../../../../arm-none-eabi/lib/thumb/v7-m/libstdc++.a(eh_throw.o)
 .data          0x0000000000000000        0x0 /opt/gcc-arm/gcc-arm-none-eabi-6_2-2016q4/bin/../lib/gcc/arm-none-eabi/6.2.1/../../../../arm-none-eabi/lib/thumb/v7-m/libstdc++.a(eh_throw.o)
 .bss           0x0000000000000000        0x0 /opt/gcc-arm/gcc-arm-none-eabi-6_2-2016q4/bin/../lib/gcc/arm-none-eabi/6.2.1/../../../../arm-none-eabi/lib/thumb/v7-m/libstdc++.a(eh_throw.o)
 .ARM.extab.text._ZL23__gxx_exception_cleanup19_Unwind_Reason_CodeP21_Unwind_Control_Block
                0x0000000000000000        0x0 /opt/gcc-arm/gcc-arm-none-eabi-6_2-2016q4/bin/../lib/gcc/arm-none-eabi/6.2.1/../../../../arm-none-eabi/lib/thumb/v7-m/libstdc++.a(eh_throw.o)
 .ARM.extab.text.__cxa_throw
                0x0000000000000000        0x0 /opt/gcc-arm/gcc-arm-none-eabi-6_2-2016q4/bin/../lib/gcc/arm-none-eabi/6.2.1/../../../../arm-none-eabi/lib/thumb/v7-m/libstdc++.a(eh_throw.o)
 .ARM.extab.text.__cxa_rethrow
                0x0000000000000000        0x0 /opt/gcc-arm/gcc-arm-none-eabi-6_2-2016q4/bin/../lib/gcc/arm-none-eabi/6.2.1/../../../../arm-none-eabi/lib/thumb/v7-m/libstdc++.a(eh_throw.o)
 .text          0x0000000000000000        0x0 /opt/gcc-arm/gcc-arm-none-eabi-6_2-2016q4/bin/../lib/gcc/arm-none-eabi/6.2.1/../../../../arm-none-eabi/lib/thumb/v7-m/libm.a(lib_a-s_sin.o)
 .data          0x0000000000000000        0x0 /opt/gcc-arm/gcc-arm-none-eabi-6_2-2016q4/bin/../lib/gcc/arm-none-eabi/6.2.1/../../../../arm-none-eabi/lib/thumb/v7-m/libm.a(lib_a-s_sin.o)
 .bss           0x0000000000000000        0x0 /opt/gcc-arm/gcc-arm-none-eabi-6_2-2016q4/bin/../lib/gcc/arm-none-eabi/6.2.1/../../../../arm-none-eabi/lib/thumb/v7-m/libm.a(lib_a-s_sin.o)
 .text          0x0000000000000000        0x0 /opt/gcc-arm/gcc-arm-none-eabi-6_2-2016q4/bin/../lib/gcc/arm-none-eabi/6.2.1/../../../../arm-none-eabi/lib/thumb/v7-m/libm.a(lib_a-sf_atan.o)
 .data          0x0000000000000000        0x0 /opt/gcc-arm/gcc-arm-none-eabi-6_2-2016q4/bin/../lib/gcc/arm-none-eabi/6.2.1/../../../../arm-none-eabi/lib/thumb/v7-m/libm.a(lib_a-sf_atan.o)
 .bss           0x0000000000000000        0x0 /opt/gcc-arm/gcc-arm-none-eabi-6_2-2016q4/bin/../lib/gcc/arm-none-eabi/6.2.1/../../../../arm-none-eabi/lib/thumb/v7-m/libm.a(lib_a-sf_atan.o)
 .text          0x0000000000000000        0x0 /opt/gcc-arm/gcc-arm-none-eabi-6_2-2016q4/bin/../lib/gcc/arm-none-eabi/6.2.1/../../../../arm-none-eabi/lib/thumb/v7-m/libm.a(lib_a-sf_cos.o)
 .data          0x0000000000000000        0x0 /opt/gcc-arm/gcc-arm-none-eabi-6_2-2016q4/bin/../lib/gcc/arm-none-eabi/6.2.1/../../../../arm-none-eabi/lib/thumb/v7-m/libm.a(lib_a-sf_cos.o)
 .bss           0x0000000000000000        0x0 /opt/gcc-arm/gcc-arm-none-eabi-6_2-2016q4/bin/../lib/gcc/arm-none-eabi/6.2.1/../../../../arm-none-eabi/lib/thumb/v7-m/libm.a(lib_a-sf_cos.o)
 .text          0x0000000000000000        0x0 /opt/gcc-arm/gcc-arm-none-eabi-6_2-2016q4/bin/../lib/gcc/arm-none-eabi/6.2.1/../../../../arm-none-eabi/lib/thumb/v7-m/libm.a(lib_a-sf_fabs.o)
 .data          0x0000000000000000        0x0 /opt/gcc-arm/gcc-arm-none-eabi-6_2-2016q4/bin/../lib/gcc/arm-none-eabi/6.2.1/../../../../arm-none-eabi/lib/thumb/v7-m/libm.a(lib_a-sf_fabs.o)
 .bss           0x0000000000000000        0x0 /opt/gcc-arm/gcc-arm-none-eabi-6_2-2016q4/bin/../lib/gcc/arm-none-eabi/6.2.1/../../../../arm-none-eabi/lib/thumb/v7-m/libm.a(lib_a-sf_fabs.o)
 .text          0x0000000000000000        0x0 /opt/gcc-arm/gcc-arm-none-eabi-6_2-2016q4/bin/../lib/gcc/arm-none-eabi/6.2.1/../../../../arm-none-eabi/lib/thumb/v7-m/libm.a(lib_a-sf_sin.o)
 .data          0x0000000000000000        0x0 /opt/gcc-arm/gcc-arm-none-eabi-6_2-2016q4/bin/../lib/gcc/arm-none-eabi/6.2.1/../../../../arm-none-eabi/lib/thumb/v7-m/libm.a(lib_a-sf_sin.o)
 .bss           0x0000000000000000        0x0 /opt/gcc-arm/gcc-arm-none-eabi-6_2-2016q4/bin/../lib/gcc/arm-none-eabi/6.2.1/../../../../arm-none-eabi/lib/thumb/v7-m/libm.a(lib_a-sf_sin.o)
 .text          0x0000000000000000        0x0 /opt/gcc-arm/gcc-arm-none-eabi-6_2-2016q4/bin/../lib/gcc/arm-none-eabi/6.2.1/../../../../arm-none-eabi/lib/thumb/v7-m/libm.a(lib_a-w_sqrt.o)
 .data          0x0000000000000000        0x0 /opt/gcc-arm/gcc-arm-none-eabi-6_2-2016q4/bin/../lib/gcc/arm-none-eabi/6.2.1/../../../../arm-none-eabi/lib/thumb/v7-m/libm.a(lib_a-w_sqrt.o)
 .bss           0x0000000000000000        0x0 /opt/gcc-arm/gcc-arm-none-eabi-6_2-2016q4/bin/../lib/gcc/arm-none-eabi/6.2.1/../../../../arm-none-eabi/lib/thumb/v7-m/libm.a(lib_a-w_sqrt.o)
 .text          0x0000000000000000        0x0 /opt/gcc-arm/gcc-arm-none-eabi-6_2-2016q4/bin/../lib/gcc/arm-none-eabi/6.2.1/../../../../arm-none-eabi/lib/thumb/v7-m/libm.a(lib_a-wf_sqrt.o)
 .data          0x0000000000000000        0x0 /opt/gcc-arm/gcc-arm-none-eabi-6_2-2016q4/bin/../lib/gcc/arm-none-eabi/6.2.1/../../../../arm-none-eabi/lib/thumb/v7-m/libm.a(lib_a-wf_sqrt.o)
 .bss           0x0000000000000000        0x0 /opt/gcc-arm/gcc-arm-none-eabi-6_2-2016q4/bin/../lib/gcc/arm-none-eabi/6.2.1/../../../../arm-none-eabi/lib/thumb/v7-m/libm.a(lib_a-wf_sqrt.o)
 .text          0x0000000000000000        0x0 /opt/gcc-arm/gcc-arm-none-eabi-6_2-2016q4/bin/../lib/gcc/arm-none-eabi/6.2.1/../../../../arm-none-eabi/lib/thumb/v7-m/libm.a(lib_a-e_rem_pio2.o)
 .data          0x0000000000000000        0x0 /opt/gcc-arm/gcc-arm-none-eabi-6_2-2016q4/bin/../lib/gcc/arm-none-eabi/6.2.1/../../../../arm-none-eabi/lib/thumb/v7-m/libm.a(lib_a-e_rem_pio2.o)
 .bss           0x0000000000000000        0x0 /opt/gcc-arm/gcc-arm-none-eabi-6_2-2016q4/bin/../lib/gcc/arm-none-eabi/6.2.1/../../../../arm-none-eabi/lib/thumb/v7-m/libm.a(lib_a-e_rem_pio2.o)
 .text          0x0000000000000000        0x0 /opt/gcc-arm/gcc-arm-none-eabi-6_2-2016q4/bin/../lib/gcc/arm-none-eabi/6.2.1/../../../../arm-none-eabi/lib/thumb/v7-m/libm.a(lib_a-e_sqrt.o)
 .data          0x0000000000000000        0x0 /opt/gcc-arm/gcc-arm-none-eabi-6_2-2016q4/bin/../lib/gcc/arm-none-eabi/6.2.1/../../../../arm-none-eabi/lib/thumb/v7-m/libm.a(lib_a-e_sqrt.o)
 .bss           0x0000000000000000        0x0 /opt/gcc-arm/gcc-arm-none-eabi-6_2-2016q4/bin/../lib/gcc/arm-none-eabi/6.2.1/../../../../arm-none-eabi/lib/thumb/v7-m/libm.a(lib_a-e_sqrt.o)
 .text          0x0000000000000000        0x0 /opt/gcc-arm/gcc-arm-none-eabi-6_2-2016q4/bin/../lib/gcc/arm-none-eabi/6.2.1/../../../../arm-none-eabi/lib/thumb/v7-m/libm.a(lib_a-ef_rem_pio2.o)
 .data          0x0000000000000000        0x0 /opt/gcc-arm/gcc-arm-none-eabi-6_2-2016q4/bin/../lib/gcc/arm-none-eabi/6.2.1/../../../../arm-none-eabi/lib/thumb/v7-m/libm.a(lib_a-ef_rem_pio2.o)
 .bss           0x0000000000000000        0x0 /opt/gcc-arm/gcc-arm-none-eabi-6_2-2016q4/bin/../lib/gcc/arm-none-eabi/6.2.1/../../../../arm-none-eabi/lib/thumb/v7-m/libm.a(lib_a-ef_rem_pio2.o)
 .text          0x0000000000000000        0x0 /opt/gcc-arm/gcc-arm-none-eabi-6_2-2016q4/bin/../lib/gcc/arm-none-eabi/6.2.1/../../../../arm-none-eabi/lib/thumb/v7-m/libm.a(lib_a-ef_sqrt.o)
 .data          0x0000000000000000        0x0 /opt/gcc-arm/gcc-arm-none-eabi-6_2-2016q4/bin/../lib/gcc/arm-none-eabi/6.2.1/../../../../arm-none-eabi/lib/thumb/v7-m/libm.a(lib_a-ef_sqrt.o)
 .bss           0x0000000000000000        0x0 /opt/gcc-arm/gcc-arm-none-eabi-6_2-2016q4/bin/../lib/gcc/arm-none-eabi/6.2.1/../../../../arm-none-eabi/lib/thumb/v7-m/libm.a(lib_a-ef_sqrt.o)
 .text          0x0000000000000000        0x0 /opt/gcc-arm/gcc-arm-none-eabi-6_2-2016q4/bin/../lib/gcc/arm-none-eabi/6.2.1/../../../../arm-none-eabi/lib/thumb/v7-m/libm.a(lib_a-k_cos.o)
 .data          0x0000000000000000        0x0 /opt/gcc-arm/gcc-arm-none-eabi-6_2-2016q4/bin/../lib/gcc/arm-none-eabi/6.2.1/../../../../arm-none-eabi/lib/thumb/v7-m/libm.a(lib_a-k_cos.o)
 .bss           0x0000000000000000        0x0 /opt/gcc-arm/gcc-arm-none-eabi-6_2-2016q4/bin/../lib/gcc/arm-none-eabi/6.2.1/../../../../arm-none-eabi/lib/thumb/v7-m/libm.a(lib_a-k_cos.o)
 .text          0x0000000000000000        0x0 /opt/gcc-arm/gcc-arm-none-eabi-6_2-2016q4/bin/../lib/gcc/arm-none-eabi/6.2.1/../../../../arm-none-eabi/lib/thumb/v7-m/libm.a(lib_a-k_rem_pio2.o)
 .data          0x0000000000000000        0x0 /opt/gcc-arm/gcc-arm-none-eabi-6_2-2016q4/bin/../lib/gcc/arm-none-eabi/6.2.1/../../../../arm-none-eabi/lib/thumb/v7-m/libm.a(lib_a-k_rem_pio2.o)
 .bss           0x0000000000000000        0x0 /opt/gcc-arm/gcc-arm-none-eabi-6_2-2016q4/bin/../lib/gcc/arm-none-eabi/6.2.1/../../../../arm-none-eabi/lib/thumb/v7-m/libm.a(lib_a-k_rem_pio2.o)
 .text          0x0000000000000000        0x0 /opt/gcc-arm/gcc-arm-none-eabi-6_2-2016q4/bin/../lib/gcc/arm-none-eabi/6.2.1/../../../../arm-none-eabi/lib/thumb/v7-m/libm.a(lib_a-k_sin.o)
 .data          0x0000000000000000        0x0 /opt/gcc-arm/gcc-arm-none-eabi-6_2-2016q4/bin/../lib/gcc/arm-none-eabi/6.2.1/../../../../arm-none-eabi/lib/thumb/v7-m/libm.a(lib_a-k_sin.o)
 .bss           0x0000000000000000        0x0 /opt/gcc-arm/gcc-arm-none-eabi-6_2-2016q4/bin/../lib/gcc/arm-none-eabi/6.2.1/../../../../arm-none-eabi/lib/thumb/v7-m/libm.a(lib_a-k_sin.o)
 .text          0x0000000000000000        0x0 /opt/gcc-arm/gcc-arm-none-eabi-6_2-2016q4/bin/../lib/gcc/arm-none-eabi/6.2.1/../../../../arm-none-eabi/lib/thumb/v7-m/libm.a(lib_a-kf_cos.o)
 .data          0x0000000000000000        0x0 /opt/gcc-arm/gcc-arm-none-eabi-6_2-2016q4/bin/../lib/gcc/arm-none-eabi/6.2.1/../../../../arm-none-eabi/lib/thumb/v7-m/libm.a(lib_a-kf_cos.o)
 .bss           0x0000000000000000        0x0 /opt/gcc-arm/gcc-arm-none-eabi-6_2-2016q4/bin/../lib/gcc/arm-none-eabi/6.2.1/../../../../arm-none-eabi/lib/thumb/v7-m/libm.a(lib_a-kf_cos.o)
 .text          0x0000000000000000        0x0 /opt/gcc-arm/gcc-arm-none-eabi-6_2-2016q4/bin/../lib/gcc/arm-none-eabi/6.2.1/../../../../arm-none-eabi/lib/thumb/v7-m/libm.a(lib_a-kf_rem_pio2.o)
 .data          0x0000000000000000        0x0 /opt/gcc-arm/gcc-arm-none-eabi-6_2-2016q4/bin/../lib/gcc/arm-none-eabi/6.2.1/../../../../arm-none-eabi/lib/thumb/v7-m/libm.a(lib_a-kf_rem_pio2.o)
 .bss           0x0000000000000000        0x0 /opt/gcc-arm/gcc-arm-none-eabi-6_2-2016q4/bin/../lib/gcc/arm-none-eabi/6.2.1/../../../../arm-none-eabi/lib/thumb/v7-m/libm.a(lib_a-kf_rem_pio2.o)
 .text          0x0000000000000000        0x0 /opt/gcc-arm/gcc-arm-none-eabi-6_2-2016q4/bin/../lib/gcc/arm-none-eabi/6.2.1/../../../../arm-none-eabi/lib/thumb/v7-m/libm.a(lib_a-kf_sin.o)
 .data          0x0000000000000000        0x0 /opt/gcc-arm/gcc-arm-none-eabi-6_2-2016q4/bin/../lib/gcc/arm-none-eabi/6.2.1/../../../../arm-none-eabi/lib/thumb/v7-m/libm.a(lib_a-kf_sin.o)
 .bss           0x0000000000000000        0x0 /opt/gcc-arm/gcc-arm-none-eabi-6_2-2016q4/bin/../lib/gcc/arm-none-eabi/6.2.1/../../../../arm-none-eabi/lib/thumb/v7-m/libm.a(lib_a-kf_sin.o)
 .text          0x0000000000000000        0x0 /opt/gcc-arm/gcc-arm-none-eabi-6_2-2016q4/bin/../lib/gcc/arm-none-eabi/6.2.1/../../../../arm-none-eabi/lib/thumb/v7-m/libm.a(lib_a-s_fabs.o)
 .data          0x0000000000000000        0x0 /opt/gcc-arm/gcc-arm-none-eabi-6_2-2016q4/bin/../lib/gcc/arm-none-eabi/6.2.1/../../../../arm-none-eabi/lib/thumb/v7-m/libm.a(lib_a-s_fabs.o)
 .bss           0x0000000000000000        0x0 /opt/gcc-arm/gcc-arm-none-eabi-6_2-2016q4/bin/../lib/gcc/arm-none-eabi/6.2.1/../../../../arm-none-eabi/lib/thumb/v7-m/libm.a(lib_a-s_fabs.o)
 .text          0x0000000000000000        0x0 /opt/gcc-arm/gcc-arm-none-eabi-6_2-2016q4/bin/../lib/gcc/arm-none-eabi/6.2.1/../../../../arm-none-eabi/lib/thumb/v7-m/libm.a(lib_a-s_floor.o)
 .data          0x0000000000000000        0x0 /opt/gcc-arm/gcc-arm-none-eabi-6_2-2016q4/bin/../lib/gcc/arm-none-eabi/6.2.1/../../../../arm-none-eabi/lib/thumb/v7-m/libm.a(lib_a-s_floor.o)
 .bss           0x0000000000000000        0x0 /opt/gcc-arm/gcc-arm-none-eabi-6_2-2016q4/bin/../lib/gcc/arm-none-eabi/6.2.1/../../../../arm-none-eabi/lib/thumb/v7-m/libm.a(lib_a-s_floor.o)
 .text          0x0000000000000000        0x0 /opt/gcc-arm/gcc-arm-none-eabi-6_2-2016q4/bin/../lib/gcc/arm-none-eabi/6.2.1/../../../../arm-none-eabi/lib/thumb/v7-m/libm.a(lib_a-s_lib_ver.o)
 .data          0x0000000000000000        0x0 /opt/gcc-arm/gcc-arm-none-eabi-6_2-2016q4/bin/../lib/gcc/arm-none-eabi/6.2.1/../../../../arm-none-eabi/lib/thumb/v7-m/libm.a(lib_a-s_lib_ver.o)
 .bss           0x0000000000000000        0x0 /opt/gcc-arm/gcc-arm-none-eabi-6_2-2016q4/bin/../lib/gcc/arm-none-eabi/6.2.1/../../../../arm-none-eabi/lib/thumb/v7-m/libm.a(lib_a-s_lib_ver.o)
 .text          0x0000000000000000        0x0 /opt/gcc-arm/gcc-arm-none-eabi-6_2-2016q4/bin/../lib/gcc/arm-none-eabi/6.2.1/../../../../arm-none-eabi/lib/thumb/v7-m/libm.a(lib_a-s_matherr.o)
 .data          0x0000000000000000        0x0 /opt/gcc-arm/gcc-arm-none-eabi-6_2-2016q4/bin/../lib/gcc/arm-none-eabi/6.2.1/../../../../arm-none-eabi/lib/thumb/v7-m/libm.a(lib_a-s_matherr.o)
 .bss           0x0000000000000000        0x0 /opt/gcc-arm/gcc-arm-none-eabi-6_2-2016q4/bin/../lib/gcc/arm-none-eabi/6.2.1/../../../../arm-none-eabi/lib/thumb/v7-m/libm.a(lib_a-s_matherr.o)
 .text          0x0000000000000000        0x0 /opt/gcc-arm/gcc-arm-none-eabi-6_2-2016q4/bin/../lib/gcc/arm-none-eabi/6.2.1/../../../../arm-none-eabi/lib/thumb/v7-m/libm.a(lib_a-s_scalbn.o)
 .data          0x0000000000000000        0x0 /opt/gcc-arm/gcc-arm-none-eabi-6_2-2016q4/bin/../lib/gcc/arm-none-eabi/6.2.1/../../../../arm-none-eabi/lib/thumb/v7-m/libm.a(lib_a-s_scalbn.o)
 .bss           0x0000000000000000        0x0 /opt/gcc-arm/gcc-arm-none-eabi-6_2-2016q4/bin/../lib/gcc/arm-none-eabi/6.2.1/../../../../arm-none-eabi/lib/thumb/v7-m/libm.a(lib_a-s_scalbn.o)
 .text          0x0000000000000000        0x0 /opt/gcc-arm/gcc-arm-none-eabi-6_2-2016q4/bin/../lib/gcc/arm-none-eabi/6.2.1/../../../../arm-none-eabi/lib/thumb/v7-m/libm.a(lib_a-sf_floor.o)
 .data          0x0000000000000000        0x0 /opt/gcc-arm/gcc-arm-none-eabi-6_2-2016q4/bin/../lib/gcc/arm-none-eabi/6.2.1/../../../../arm-none-eabi/lib/thumb/v7-m/libm.a(lib_a-sf_floor.o)
 .bss           0x0000000000000000        0x0 /opt/gcc-arm/gcc-arm-none-eabi-6_2-2016q4/bin/../lib/gcc/arm-none-eabi/6.2.1/../../../../arm-none-eabi/lib/thumb/v7-m/libm.a(lib_a-sf_floor.o)
 .text          0x0000000000000000        0x0 /opt/gcc-arm/gcc-arm-none-eabi-6_2-2016q4/bin/../lib/gcc/arm-none-eabi/6.2.1/../../../../arm-none-eabi/lib/thumb/v7-m/libm.a(lib_a-sf_scalbn.o)
 .data          0x0000000000000000        0x0 /opt/gcc-arm/gcc-arm-none-eabi-6_2-2016q4/bin/../lib/gcc/arm-none-eabi/6.2.1/../../../../arm-none-eabi/lib/thumb/v7-m/libm.a(lib_a-sf_scalbn.o)
 .bss           0x0000000000000000        0x0 /opt/gcc-arm/gcc-arm-none-eabi-6_2-2016q4/bin/../lib/gcc/arm-none-eabi/6.2.1/../../../../arm-none-eabi/lib/thumb/v7-m/libm.a(lib_a-sf_scalbn.o)
 .text          0x0000000000000000        0x0 /opt/gcc-arm/gcc-arm-none-eabi-6_2-2016q4/bin/../lib/gcc/arm-none-eabi/6.2.1/../../../../arm-none-eabi/lib/thumb/v7-m/libm.a(lib_a-s_copysign.o)
 .data          0x0000000000000000        0x0 /opt/gcc-arm/gcc-arm-none-eabi-6_2-2016q4/bin/../lib/gcc/arm-none-eabi/6.2.1/../../../../arm-none-eabi/lib/thumb/v7-m/libm.a(lib_a-s_copysign.o)
 .bss           0x0000000000000000        0x0 /opt/gcc-arm/gcc-arm-none-eabi-6_2-2016q4/bin/../lib/gcc/arm-none-eabi/6.2.1/../../../../arm-none-eabi/lib/thumb/v7-m/libm.a(lib_a-s_copysign.o)
 .text          0x0000000000000000        0x0 /opt/gcc-arm/gcc-arm-none-eabi-6_2-2016q4/bin/../lib/gcc/arm-none-eabi/6.2.1/../../../../arm-none-eabi/lib/thumb/v7-m/libm.a(lib_a-sf_copysign.o)
 .data          0x0000000000000000        0x0 /opt/gcc-arm/gcc-arm-none-eabi-6_2-2016q4/bin/../lib/gcc/arm-none-eabi/6.2.1/../../../../arm-none-eabi/lib/thumb/v7-m/libm.a(lib_a-sf_copysign.o)
 .bss           0x0000000000000000        0x0 /opt/gcc-arm/gcc-arm-none-eabi-6_2-2016q4/bin/../lib/gcc/arm-none-eabi/6.2.1/../../../../arm-none-eabi/lib/thumb/v7-m/libm.a(lib_a-sf_copysign.o)
 .data          0x0000000000000000        0x0 /opt/gcc-arm/gcc-arm-none-eabi-6_2-2016q4/bin/../lib/gcc/arm-none-eabi/6.2.1/thumb/v7-m/libgcc.a(_arm_addsubdf3.o)
 .bss           0x0000000000000000        0x0 /opt/gcc-arm/gcc-arm-none-eabi-6_2-2016q4/bin/../lib/gcc/arm-none-eabi/6.2.1/thumb/v7-m/libgcc.a(_arm_addsubdf3.o)
 .data          0x0000000000000000        0x0 /opt/gcc-arm/gcc-arm-none-eabi-6_2-2016q4/bin/../lib/gcc/arm-none-eabi/6.2.1/thumb/v7-m/libgcc.a(_arm_muldivdf3.o)
 .bss           0x0000000000000000        0x0 /opt/gcc-arm/gcc-arm-none-eabi-6_2-2016q4/bin/../lib/gcc/arm-none-eabi/6.2.1/thumb/v7-m/libgcc.a(_arm_muldivdf3.o)
 .data          0x0000000000000000        0x0 /opt/gcc-arm/gcc-arm-none-eabi-6_2-2016q4/bin/../lib/gcc/arm-none-eabi/6.2.1/thumb/v7-m/libgcc.a(_arm_cmpdf2.o)
 .bss           0x0000000000000000        0x0 /opt/gcc-arm/gcc-arm-none-eabi-6_2-2016q4/bin/../lib/gcc/arm-none-eabi/6.2.1/thumb/v7-m/libgcc.a(_arm_cmpdf2.o)
 .data          0x0000000000000000        0x0 /opt/gcc-arm/gcc-arm-none-eabi-6_2-2016q4/bin/../lib/gcc/arm-none-eabi/6.2.1/thumb/v7-m/libgcc.a(_arm_unorddf2.o)
 .bss           0x0000000000000000        0x0 /opt/gcc-arm/gcc-arm-none-eabi-6_2-2016q4/bin/../lib/gcc/arm-none-eabi/6.2.1/thumb/v7-m/libgcc.a(_arm_unorddf2.o)
 .data          0x0000000000000000        0x0 /opt/gcc-arm/gcc-arm-none-eabi-6_2-2016q4/bin/../lib/gcc/arm-none-eabi/6.2.1/thumb/v7-m/libgcc.a(_arm_fixdfsi.o)
 .bss           0x0000000000000000        0x0 /opt/gcc-arm/gcc-arm-none-eabi-6_2-2016q4/bin/../lib/gcc/arm-none-eabi/6.2.1/thumb/v7-m/libgcc.a(_arm_fixdfsi.o)
 .data          0x0000000000000000        0x0 /opt/gcc-arm/gcc-arm-none-eabi-6_2-2016q4/bin/../lib/gcc/arm-none-eabi/6.2.1/thumb/v7-m/libgcc.a(_arm_truncdfsf2.o)
 .bss           0x0000000000000000        0x0 /opt/gcc-arm/gcc-arm-none-eabi-6_2-2016q4/bin/../lib/gcc/arm-none-eabi/6.2.1/thumb/v7-m/libgcc.a(_arm_truncdfsf2.o)
 .data          0x0000000000000000        0x0 /opt/gcc-arm/gcc-arm-none-eabi-6_2-2016q4/bin/../lib/gcc/arm-none-eabi/6.2.1/thumb/v7-m/libgcc.a(_arm_addsubsf3.o)
 .bss           0x0000000000000000        0x0 /opt/gcc-arm/gcc-arm-none-eabi-6_2-2016q4/bin/../lib/gcc/arm-none-eabi/6.2.1/thumb/v7-m/libgcc.a(_arm_addsubsf3.o)
 .data          0x0000000000000000        0x0 /opt/gcc-arm/gcc-arm-none-eabi-6_2-2016q4/bin/../lib/gcc/arm-none-eabi/6.2.1/thumb/v7-m/libgcc.a(_arm_muldivsf3.o)
 .bss           0x0000000000000000        0x0 /opt/gcc-arm/gcc-arm-none-eabi-6_2-2016q4/bin/../lib/gcc/arm-none-eabi/6.2.1/thumb/v7-m/libgcc.a(_arm_muldivsf3.o)
 .data          0x0000000000000000        0x0 /opt/gcc-arm/gcc-arm-none-eabi-6_2-2016q4/bin/../lib/gcc/arm-none-eabi/6.2.1/thumb/v7-m/libgcc.a(_arm_cmpsf2.o)
 .bss           0x0000000000000000        0x0 /opt/gcc-arm/gcc-arm-none-eabi-6_2-2016q4/bin/../lib/gcc/arm-none-eabi/6.2.1/thumb/v7-m/libgcc.a(_arm_cmpsf2.o)
 .data          0x0000000000000000        0x0 /opt/gcc-arm/gcc-arm-none-eabi-6_2-2016q4/bin/../lib/gcc/arm-none-eabi/6.2.1/thumb/v7-m/libgcc.a(_arm_unordsf2.o)
 .bss           0x0000000000000000        0x0 /opt/gcc-arm/gcc-arm-none-eabi-6_2-2016q4/bin/../lib/gcc/arm-none-eabi/6.2.1/thumb/v7-m/libgcc.a(_arm_unordsf2.o)
 .data          0x0000000000000000        0x0 /opt/gcc-arm/gcc-arm-none-eabi-6_2-2016q4/bin/../lib/gcc/arm-none-eabi/6.2.1/thumb/v7-m/libgcc.a(_arm_fixsfsi.o)
 .bss           0x0000000000000000        0x0 /opt/gcc-arm/gcc-arm-none-eabi-6_2-2016q4/bin/../lib/gcc/arm-none-eabi/6.2.1/thumb/v7-m/libgcc.a(_arm_fixsfsi.o)
 .data          0x0000000000000000        0x0 /opt/gcc-arm/gcc-arm-none-eabi-6_2-2016q4/bin/../lib/gcc/arm-none-eabi/6.2.1/thumb/v7-m/libgcc.a(unwind-arm.o)
 .bss           0x0000000000000000        0x0 /opt/gcc-arm/gcc-arm-none-eabi-6_2-2016q4/bin/../lib/gcc/arm-none-eabi/6.2.1/thumb/v7-m/libgcc.a(unwind-arm.o)
 .ARM.extab     0x0000000000000000        0x0 /opt/gcc-arm/gcc-arm-none-eabi-6_2-2016q4/bin/../lib/gcc/arm-none-eabi/6.2.1/thumb/v7-m/libgcc.a(unwind-arm.o)
 .data          0x0000000000000000        0x0 /opt/gcc-arm/gcc-arm-none-eabi-6_2-2016q4/bin/../lib/gcc/arm-none-eabi/6.2.1/thumb/v7-m/libgcc.a(libunwind.o)
 .bss           0x0000000000000000        0x0 /opt/gcc-arm/gcc-arm-none-eabi-6_2-2016q4/bin/../lib/gcc/arm-none-eabi/6.2.1/thumb/v7-m/libgcc.a(libunwind.o)
 .data          0x0000000000000000        0x0 /opt/gcc-arm/gcc-arm-none-eabi-6_2-2016q4/bin/../lib/gcc/arm-none-eabi/6.2.1/thumb/v7-m/libgcc.a(pr-support.o)
 .bss           0x0000000000000000        0x0 /opt/gcc-arm/gcc-arm-none-eabi-6_2-2016q4/bin/../lib/gcc/arm-none-eabi/6.2.1/thumb/v7-m/libgcc.a(pr-support.o)
 .text          0x0000000000000000        0x0 /opt/gcc-arm/gcc-arm-none-eabi-6_2-2016q4/bin/../lib/gcc/arm-none-eabi/6.2.1/../../../../arm-none-eabi/lib/thumb/v7-m/libg.a(lib_a-errno.o)
 .data          0x0000000000000000        0x0 /opt/gcc-arm/gcc-arm-none-eabi-6_2-2016q4/bin/../lib/gcc/arm-none-eabi/6.2.1/../../../../arm-none-eabi/lib/thumb/v7-m/libg.a(lib_a-errno.o)
 .bss           0x0000000000000000        0x0 /opt/gcc-arm/gcc-arm-none-eabi-6_2-2016q4/bin/../lib/gcc/arm-none-eabi/6.2.1/../../../../arm-none-eabi/lib/thumb/v7-m/libg.a(lib_a-errno.o)
 .text          0x0000000000000000        0x0 /opt/gcc-arm/gcc-arm-none-eabi-6_2-2016q4/bin/../lib/gcc/arm-none-eabi/6.2.1/../../../../arm-none-eabi/lib/thumb/v7-m/libg.a(lib_a-impure.o)
 .data          0x0000000000000000        0x0 /opt/gcc-arm/gcc-arm-none-eabi-6_2-2016q4/bin/../lib/gcc/arm-none-eabi/6.2.1/../../../../arm-none-eabi/lib/thumb/v7-m/libg.a(lib_a-impure.o)
 .bss           0x0000000000000000        0x0 /opt/gcc-arm/gcc-arm-none-eabi-6_2-2016q4/bin/../lib/gcc/arm-none-eabi/6.2.1/../../../../arm-none-eabi/lib/thumb/v7-m/libg.a(lib_a-impure.o)
 .rodata._global_impure_ptr
                0x0000000000000000        0x4 /opt/gcc-arm/gcc-arm-none-eabi-6_2-2016q4/bin/../lib/gcc/arm-none-eabi/6.2.1/../../../../arm-none-eabi/lib/thumb/v7-m/libg.a(lib_a-impure.o)
 .text          0x0000000000000000        0x0 /opt/gcc-arm/gcc-arm-none-eabi-6_2-2016q4/bin/../lib/gcc/arm-none-eabi/6.2.1/../../../../arm-none-eabi/lib/thumb/v7-m/libg.a(lib_a-init.o)
 .data          0x0000000000000000        0x0 /opt/gcc-arm/gcc-arm-none-eabi-6_2-2016q4/bin/../lib/gcc/arm-none-eabi/6.2.1/../../../../arm-none-eabi/lib/thumb/v7-m/libg.a(lib_a-init.o)
 .bss           0x0000000000000000        0x0 /opt/gcc-arm/gcc-arm-none-eabi-6_2-2016q4/bin/../lib/gcc/arm-none-eabi/6.2.1/../../../../arm-none-eabi/lib/thumb/v7-m/libg.a(lib_a-init.o)
 .text          0x0000000000000000        0x0 /opt/gcc-arm/gcc-arm-none-eabi-6_2-2016q4/bin/../lib/gcc/arm-none-eabi/6.2.1/../../../../arm-none-eabi/lib/thumb/v7-m/libg.a(lib_a-malloc.o)
 .data          0x0000000000000000        0x0 /opt/gcc-arm/gcc-arm-none-eabi-6_2-2016q4/bin/../lib/gcc/arm-none-eabi/6.2.1/../../../../arm-none-eabi/lib/thumb/v7-m/libg.a(lib_a-malloc.o)
 .bss           0x0000000000000000        0x0 /opt/gcc-arm/gcc-arm-none-eabi-6_2-2016q4/bin/../lib/gcc/arm-none-eabi/6.2.1/../../../../arm-none-eabi/lib/thumb/v7-m/libg.a(lib_a-malloc.o)
 .text          0x0000000000000000        0x0 /opt/gcc-arm/gcc-arm-none-eabi-6_2-2016q4/bin/../lib/gcc/arm-none-eabi/6.2.1/../../../../arm-none-eabi/lib/thumb/v7-m/libg.a(lib_a-mallocr.o)
 .data          0x0000000000000000        0x0 /opt/gcc-arm/gcc-arm-none-eabi-6_2-2016q4/bin/../lib/gcc/arm-none-eabi/6.2.1/../../../../arm-none-eabi/lib/thumb/v7-m/libg.a(lib_a-mallocr.o)
 .bss           0x0000000000000000        0x0 /opt/gcc-arm/gcc-arm-none-eabi-6_2-2016q4/bin/../lib/gcc/arm-none-eabi/6.2.1/../../../../arm-none-eabi/lib/thumb/v7-m/libg.a(lib_a-mallocr.o)
 .data          0x0000000000000000        0x0 /opt/gcc-arm/gcc-arm-none-eabi-6_2-2016q4/bin/../lib/gcc/arm-none-eabi/6.2.1/../../../../arm-none-eabi/lib/thumb/v7-m/libg.a(lib_a-memcpy.o)
 .bss           0x0000000000000000        0x0 /opt/gcc-arm/gcc-arm-none-eabi-6_2-2016q4/bin/../lib/gcc/arm-none-eabi/6.2.1/../../../../arm-none-eabi/lib/thumb/v7-m/libg.a(lib_a-memcpy.o)
 .text          0x0000000000000000        0x0 /opt/gcc-arm/gcc-arm-none-eabi-6_2-2016q4/bin/../lib/gcc/arm-none-eabi/6.2.1/../../../../arm-none-eabi/lib/thumb/v7-m/libg.a(lib_a-memset.o)
 .data          0x0000000000000000        0x0 /opt/gcc-arm/gcc-arm-none-eabi-6_2-2016q4/bin/../lib/gcc/arm-none-eabi/6.2.1/../../../../arm-none-eabi/lib/thumb/v7-m/libg.a(lib_a-memset.o)
 .bss           0x0000000000000000        0x0 /opt/gcc-arm/gcc-arm-none-eabi-6_2-2016q4/bin/../lib/gcc/arm-none-eabi/6.2.1/../../../../arm-none-eabi/lib/thumb/v7-m/libg.a(lib_a-memset.o)
 .text          0x0000000000000000        0x0 /opt/gcc-arm/gcc-arm-none-eabi-6_2-2016q4/bin/../lib/gcc/arm-none-eabi/6.2.1/../../../../arm-none-eabi/lib/thumb/v7-m/libg.a(lib_a-mlock.o)
 .data          0x0000000000000000        0x0 /opt/gcc-arm/gcc-arm-none-eabi-6_2-2016q4/bin/../lib/gcc/arm-none-eabi/6.2.1/../../../../arm-none-eabi/lib/thumb/v7-m/libg.a(lib_a-mlock.o)
 .bss           0x0000000000000000        0x0 /opt/gcc-arm/gcc-arm-none-eabi-6_2-2016q4/bin/../lib/gcc/arm-none-eabi/6.2.1/../../../../arm-none-eabi/lib/thumb/v7-m/libg.a(lib_a-mlock.o)
 .text          0x0000000000000000        0x0 /opt/gcc-arm/gcc-arm-none-eabi-6_2-2016q4/bin/../lib/gcc/arm-none-eabi/6.2.1/../../../../arm-none-eabi/lib/thumb/v7-m/libg.a(lib_a-realloc.o)
 .data          0x0000000000000000        0x0 /opt/gcc-arm/gcc-arm-none-eabi-6_2-2016q4/bin/../lib/gcc/arm-none-eabi/6.2.1/../../../../arm-none-eabi/lib/thumb/v7-m/libg.a(lib_a-realloc.o)
 .bss           0x0000000000000000        0x0 /opt/gcc-arm/gcc-arm-none-eabi-6_2-2016q4/bin/../lib/gcc/arm-none-eabi/6.2.1/../../../../arm-none-eabi/lib/thumb/v7-m/libg.a(lib_a-realloc.o)
 .text          0x0000000000000000        0x0 /opt/gcc-arm/gcc-arm-none-eabi-6_2-2016q4/bin/../lib/gcc/arm-none-eabi/6.2.1/../../../../arm-none-eabi/lib/thumb/v7-m/libg.a(lib_a-reallocr.o)
 .data          0x0000000000000000        0x0 /opt/gcc-arm/gcc-arm-none-eabi-6_2-2016q4/bin/../lib/gcc/arm-none-eabi/6.2.1/../../../../arm-none-eabi/lib/thumb/v7-m/libg.a(lib_a-reallocr.o)
 .bss           0x0000000000000000        0x0 /opt/gcc-arm/gcc-arm-none-eabi-6_2-2016q4/bin/../lib/gcc/arm-none-eabi/6.2.1/../../../../arm-none-eabi/lib/thumb/v7-m/libg.a(lib_a-reallocr.o)
 .text          0x0000000000000000        0x0 /opt/gcc-arm/gcc-arm-none-eabi-6_2-2016q4/bin/../lib/gcc/arm-none-eabi/6.2.1/../../../../arm-none-eabi/lib/thumb/v7-m/libg.a(lib_a-sbrkr.o)
 .data          0x0000000000000000        0x0 /opt/gcc-arm/gcc-arm-none-eabi-6_2-2016q4/bin/../lib/gcc/arm-none-eabi/6.2.1/../../../../arm-none-eabi/lib/thumb/v7-m/libg.a(lib_a-sbrkr.o)
 .bss           0x0000000000000000        0x0 /opt/gcc-arm/gcc-arm-none-eabi-6_2-2016q4/bin/../lib/gcc/arm-none-eabi/6.2.1/../../../../arm-none-eabi/lib/thumb/v7-m/libg.a(lib_a-sbrkr.o)
 .data          0x0000000000000000        0x0 /opt/gcc-arm/gcc-arm-none-eabi-6_2-2016q4/bin/../lib/gcc/arm-none-eabi/6.2.1/../../../../arm-none-eabi/lib/thumb/v7-m/libg.a(lib_a-strcmp.o)
 .bss           0x0000000000000000        0x0 /opt/gcc-arm/gcc-arm-none-eabi-6_2-2016q4/bin/../lib/gcc/arm-none-eabi/6.2.1/../../../../arm-none-eabi/lib/thumb/v7-m/libg.a(lib_a-strcmp.o)
 .text          0x0000000000000000        0x0 /opt/gcc-arm/gcc-arm-none-eabi-6_2-2016q4/bin/../lib/gcc/arm-none-eabi/6.2.1/../../../../arm-none-eabi/lib/thumb/v7-m/libg.a(lib_a-strlen-stub.o)
 .data          0x0000000000000000        0x0 /opt/gcc-arm/gcc-arm-none-eabi-6_2-2016q4/bin/../lib/gcc/arm-none-eabi/6.2.1/../../../../arm-none-eabi/lib/thumb/v7-m/libg.a(lib_a-strlen-stub.o)
 .bss           0x0000000000000000        0x0 /opt/gcc-arm/gcc-arm-none-eabi-6_2-2016q4/bin/../lib/gcc/arm-none-eabi/6.2.1/../../../../arm-none-eabi/lib/thumb/v7-m/libg.a(lib_a-strlen-stub.o)
 .text          0x0000000000000000        0x0 /opt/gcc-arm/gcc-arm-none-eabi-6_2-2016q4/bin/../lib/gcc/arm-none-eabi/6.2.1/../../../../arm-none-eabi/lib/thumb/v7-m/libg.a(lib_a-freer.o)
 .data          0x0000000000000000        0x0 /opt/gcc-arm/gcc-arm-none-eabi-6_2-2016q4/bin/../lib/gcc/arm-none-eabi/6.2.1/../../../../arm-none-eabi/lib/thumb/v7-m/libg.a(lib_a-freer.o)
 .bss           0x0000000000000000        0x0 /opt/gcc-arm/gcc-arm-none-eabi-6_2-2016q4/bin/../lib/gcc/arm-none-eabi/6.2.1/../../../../arm-none-eabi/lib/thumb/v7-m/libg.a(lib_a-freer.o)
 .text          0x0000000000000000        0x0 /opt/gcc-arm/gcc-arm-none-eabi-6_2-2016q4/bin/../lib/gcc/arm-none-eabi/6.2.1/../../../../arm-none-eabi/lib/thumb/v7-m/libg.a(lib_a-memmove.o)
 .data          0x0000000000000000        0x0 /opt/gcc-arm/gcc-arm-none-eabi-6_2-2016q4/bin/../lib/gcc/arm-none-eabi/6.2.1/../../../../arm-none-eabi/lib/thumb/v7-m/libg.a(lib_a-memmove.o)
 .bss           0x0000000000000000        0x0 /opt/gcc-arm/gcc-arm-none-eabi-6_2-2016q4/bin/../lib/gcc/arm-none-eabi/6.2.1/../../../../arm-none-eabi/lib/thumb/v7-m/libg.a(lib_a-memmove.o)
 .text          0x0000000000000000        0x0 /opt/gcc-arm/gcc-arm-none-eabi-6_2-2016q4/bin/../lib/gcc/arm-none-eabi/6.2.1/../../../../arm-none-eabi/lib/thumb/v7-m/libg.a(lib_a-reent.o)
 .data          0x0000000000000000        0x0 /opt/gcc-arm/gcc-arm-none-eabi-6_2-2016q4/bin/../lib/gcc/arm-none-eabi/6.2.1/../../../../arm-none-eabi/lib/thumb/v7-m/libg.a(lib_a-reent.o)
 .bss           0x0000000000000000        0x0 /opt/gcc-arm/gcc-arm-none-eabi-6_2-2016q4/bin/../lib/gcc/arm-none-eabi/6.2.1/../../../../arm-none-eabi/lib/thumb/v7-m/libg.a(lib_a-reent.o)
 .text.cleanup_glue
                0x0000000000000000       0x1c /opt/gcc-arm/gcc-arm-none-eabi-6_2-2016q4/bin/../lib/gcc/arm-none-eabi/6.2.1/../../../../arm-none-eabi/lib/thumb/v7-m/libg.a(lib_a-reent.o)
 .text._reclaim_reent
                0x0000000000000000       0x88 /opt/gcc-arm/gcc-arm-none-eabi-6_2-2016q4/bin/../lib/gcc/arm-none-eabi/6.2.1/../../../../arm-none-eabi/lib/thumb/v7-m/libg.a(lib_a-reent.o)

Memory Configuration

Name             Origin             Length             Attributes
RAM1             0x0000000020000000 0x0000000000005000 xrw
RAM5             0x0000000068000000 0x0000000000000000 xrw
ROM              0x0000000008000000 0x0000000000020000 xr
*default*        0x0000000000000000 0xffffffffffffffff

Linker script and memory map

LOAD ./src/f1/startup_stm32f103xb.o
LOAD ./lib/CMSIS/CM3/DeviceSupport/ST/STM32F10x/system_stm32f10x.o
LOAD ./src/led.o
LOAD ./src/encoder.o
LOAD ./src/stm32_time.o
LOAD ./lib/STM32F10x_StdPeriph_Driver/src/stm32f10x_adc.o
LOAD ./lib/STM32F10x_StdPeriph_Driver/src/stm32f10x_bkp.o
LOAD ./lib/STM32F10x_StdPeriph_Driver/src/stm32f10x_can.o
LOAD ./lib/STM32F10x_StdPeriph_Driver/src/stm32f10x_cec.o
LOAD ./lib/STM32F10x_StdPeriph_Driver/src/stm32f10x_crc.o
LOAD ./lib/STM32F10x_StdPeriph_Driver/src/stm32f10x_dac.o
LOAD ./lib/STM32F10x_StdPeriph_Driver/src/stm32f10x_dma.o
LOAD ./lib/STM32F10x_StdPeriph_Driver/src/stm32f10x_exti.o
LOAD ./lib/STM32F10x_StdPeriph_Driver/src/stm32f10x_flash.o
LOAD ./lib/STM32F10x_StdPeriph_Driver/src/stm32f10x_fsmc.o
LOAD ./lib/STM32F10x_StdPeriph_Driver/src/stm32f10x_gpio.o
LOAD ./lib/STM32F10x_StdPeriph_Driver/src/stm32f10x_i2c.o
LOAD ./lib/STM32F10x_StdPeriph_Driver/src/stm32f10x_iwdg.o
LOAD ./lib/STM32F10x_StdPeriph_Driver/src/stm32f10x_pwr.o
LOAD ./lib/STM32F10x_StdPeriph_Driver/src/stm32f10x_rcc.o
LOAD ./lib/STM32F10x_StdPeriph_Driver/src/stm32f10x_spi.o
LOAD ./lib/STM32F10x_StdPeriph_Driver/src/stm32f10x_usart.o
LOAD ./lib/STM32F10x_StdPeriph_Driver/src/stm32f10x_tim.o
LOAD ./lib/STM32F10x_StdPeriph_Driver/src/stm32f10x_sdio.o
LOAD ./lib/STM32F10x_StdPeriph_Driver/src/stm32f10x_wwdg.o
LOAD ./lib/STM32F10x_StdPeriph_Driver/src/stm32f10x_dbgmcu.o
LOAD ./lib/STM32F10x_StdPeriph_Driver/src/misc.o
LOAD ./src/main.o
LOAD ./src/motor.o
LOAD ./src/servo.o
LOAD ./src/DCMotor.o
LOAD ./src/motorSettings.o
LOAD ./src/LibraryHacks.o
LOAD ./lib/ros_lib/duration.o
LOAD ./lib/ros_lib/time.o
LOAD /opt/gcc-arm/gcc-arm-none-eabi-6_2-2016q4/bin/../lib/gcc/arm-none-eabi/6.2.1/../../../../arm-none-eabi/lib/thumb/v7-m/libstdc++.a
LOAD /opt/gcc-arm/gcc-arm-none-eabi-6_2-2016q4/bin/../lib/gcc/arm-none-eabi/6.2.1/../../../../arm-none-eabi/lib/thumb/v7-m/libm.a
START GROUP
LOAD /opt/gcc-arm/gcc-arm-none-eabi-6_2-2016q4/bin/../lib/gcc/arm-none-eabi/6.2.1/thumb/v7-m/libgcc.a
LOAD /opt/gcc-arm/gcc-arm-none-eabi-6_2-2016q4/bin/../lib/gcc/arm-none-eabi/6.2.1/../../../../arm-none-eabi/lib/thumb/v7-m/libg.a
LOAD /opt/gcc-arm/gcc-arm-none-eabi-6_2-2016q4/bin/../lib/gcc/arm-none-eabi/6.2.1/../../../../arm-none-eabi/lib/thumb/v7-m/libc.a
END GROUP
                0x0000000020005000                _estack = (ORIGIN (RAM1) + LENGTH (RAM1))

.text           0x0000000008000000     0xbef8
                0x0000000008000000                . = ALIGN (0x4)
 *(.isr_vector)
 .isr_vector    0x0000000008000000      0x10c ./src/f1/startup_stm32f103xb.o
                0x0000000008000000                g_pfnVectors
                0x000000000800010c                . = ALIGN (0x4)
 *(.text .text.*)
 .text.Reset_Handler
                0x000000000800010c       0x48 ./src/f1/startup_stm32f103xb.o
                0x000000000800010c                Reset_Handler
 .text.Default_Handler
                0x0000000008000154        0x2 ./src/f1/startup_stm32f103xb.o
                0x0000000008000154                RTC_Alarm_IRQHandler
                0x0000000008000154                DebugMon_Handler
                0x0000000008000154                TIM1_CC_IRQHandler
                0x0000000008000154                PVD_IRQHandler
                0x0000000008000154                PendSV_Handler
                0x0000000008000154                NMI_Handler
                0x0000000008000154                EXTI3_IRQHandler
                0x0000000008000154                EXTI0_IRQHandler
                0x0000000008000154                I2C2_EV_IRQHandler
                0x0000000008000154                UsageFault_Handler
                0x0000000008000154                ADC1_2_IRQHandler
                0x0000000008000154                SPI1_IRQHandler
                0x0000000008000154                TAMPER_IRQHandler
                0x0000000008000154                DMA1_Channel4_IRQHandler
                0x0000000008000154                USART3_IRQHandler
                0x0000000008000154                RTC_IRQHandler
                0x0000000008000154                DMA1_Channel7_IRQHandler
                0x0000000008000154                CAN1_RX1_IRQHandler
                0x0000000008000154                TIM4_IRQHandler
                0x0000000008000154                I2C1_EV_IRQHandler
                0x0000000008000154                DMA1_Channel6_IRQHandler
                0x0000000008000154                TIM3_IRQHandler
                0x0000000008000154                RCC_IRQHandler
                0x0000000008000154                TIM1_TRG_COM_IRQHandler
                0x0000000008000154                DMA1_Channel1_IRQHandler
                0x0000000008000154                Default_Handler
                0x0000000008000154                EXTI15_10_IRQHandler
                0x0000000008000154                EXTI9_5_IRQHandler
                0x0000000008000154                SPI2_IRQHandler
                0x0000000008000154                MemManage_Handler
                0x0000000008000154                SVC_Handler
                0x0000000008000154                DMA1_Channel5_IRQHandler
                0x0000000008000154                EXTI4_IRQHandler
                0x0000000008000154                USB_LP_CAN1_RX0_IRQHandler
                0x0000000008000154                USB_HP_CAN1_TX_IRQHandler
                0x0000000008000154                DMA1_Channel3_IRQHandler
                0x0000000008000154                TIM1_UP_IRQHandler
                0x0000000008000154                WWDG_IRQHandler
                0x0000000008000154                TIM2_IRQHandler
                0x0000000008000154                TIM1_BRK_IRQHandler
                0x0000000008000154                EXTI1_IRQHandler
                0x0000000008000154                USART2_IRQHandler
                0x0000000008000154                I2C2_ER_IRQHandler
                0x0000000008000154                DMA1_Channel2_IRQHandler
                0x0000000008000154                CAN1_SCE_IRQHandler
                0x0000000008000154                FLASH_IRQHandler
                0x0000000008000154                BusFault_Handler
                0x0000000008000154                I2C1_ER_IRQHandler
                0x0000000008000154                USBWakeUp_IRQHandler
 *fill*         0x0000000008000156        0x2 
 .text          0x0000000008000158      0x154 ./lib/CMSIS/CM3/DeviceSupport/ST/STM32F10x/system_stm32f10x.o
                0x0000000008000158                SystemInit
                0x0000000008000248                SystemCoreClockUpdate
 .text          0x00000000080002ac      0x130 ./src/led.o
                0x00000000080002ac                LED_Init
                0x000000000800031c                led_set
                0x0000000008000332                DEBUG_Init
                0x0000000008000358                debug_toggle
                0x0000000008000380                SHUTDOWN_Init
 .text          0x00000000080003dc       0x74 ./src/encoder.o
                0x00000000080003dc                I2C1_Init
 .text          0x0000000008000450      0x130 ./src/stm32_time.o
                0x0000000008000450                SysTick_Init
                0x0000000008000488                SysTick_Handler
                0x000000000800049c                delay
                0x00000000080004c0                udelay
                0x00000000080004d4                millis
                0x00000000080004e8                micros
                0x00000000080004f4                RCC_Configuration
 .text          0x0000000008000580       0xf4 ./lib/STM32F10x_StdPeriph_Driver/src/stm32f10x_exti.o
                0x0000000008000580                EXTI_DeInit
                0x000000000800059c                EXTI_Init
                0x0000000008000610                EXTI_StructInit
                0x000000000800061e                EXTI_GenerateSWInterrupt
                0x000000000800062c                EXTI_GetFlagStatus
                0x0000000008000640                EXTI_ClearFlag
                0x000000000800064c                EXTI_GetITStatus
                0x0000000008000668                EXTI_ClearITPendingBit
 .text          0x0000000008000674      0x4dc ./lib/STM32F10x_StdPeriph_Driver/src/stm32f10x_flash.o
                0x0000000008000674                FLASH_SetLatency
                0x0000000008000688                FLASH_HalfCycleAccessCmd
                0x00000000080006a0                FLASH_PrefetchBufferCmd
                0x00000000080006b8                FLASH_UnlockBank1
                0x00000000080006d0                FLASH_Unlock
                0x00000000080006d4                FLASH_LockBank1
                0x00000000080006e4                FLASH_Lock
                0x00000000080006e8                FLASH_GetUserOptionByte
                0x00000000080006f4                FLASH_GetWriteProtectionOptionByte
                0x0000000008000700                FLASH_GetReadOutProtectionStatus
                0x0000000008000710                FLASH_GetPrefetchBufferStatus
                0x0000000008000720                FLASH_ITConfig
                0x0000000008000738                FLASH_GetFlagStatus
                0x0000000008000758                FLASH_ClearFlag
                0x0000000008000764                FLASH_GetStatus
                0x000000000800078c                FLASH_GetBank1Status
                0x00000000080007b4                FLASH_WaitForLastBank1Operation
                0x00000000080007d6                FLASH_EraseAllBank1Pages
                0x0000000008000810                FLASH_EraseAllPages
                0x0000000008000814                FLASH_UserOptionByteConfig
                0x0000000008000870                FLASH_ReadOutProtection
                0x0000000008000904                FLASH_EnableWriteProtection
                0x00000000080009b0                FLASH_ProgramOptionByteData
                0x00000000080009fc                FLASH_ProgramHalfWord
                0x0000000008000a34                FLASH_ProgramWord
                0x0000000008000a8c                FLASH_EraseOptionBytes
                0x0000000008000b0c                FLASH_ErasePage
                0x0000000008000b4c                FLASH_WaitForLastOperation
 .text          0x0000000008000b50      0x288 ./lib/STM32F10x_StdPeriph_Driver/src/stm32f10x_gpio.o
                0x0000000008000b50                GPIO_DeInit
                0x0000000008000c08                GPIO_AFIODeInit
                0x0000000008000c1e                GPIO_Init
                0x0000000008000cc2                GPIO_StructInit
                0x0000000008000cd2                GPIO_ReadInputDataBit
                0x0000000008000cde                GPIO_ReadInputData
                0x0000000008000ce4                GPIO_ReadOutputDataBit
                0x0000000008000cf0                GPIO_ReadOutputData
                0x0000000008000cf6                GPIO_SetBits
                0x0000000008000cfa                GPIO_ResetBits
                0x0000000008000cfe                GPIO_WriteBit
                0x0000000008000d08                GPIO_Write
                0x0000000008000d0c                GPIO_PinLockConfig
                0x0000000008000d1c                GPIO_EventOutputConfig
                0x0000000008000d38                GPIO_EventOutputCmd
                0x0000000008000d44                GPIO_PinRemapConfig
                0x0000000008000da4                GPIO_EXTILineConfig
                0x0000000008000dce                GPIO_ETH_MediaInterfaceConfig
 .text          0x0000000008000dd8      0x39c ./lib/STM32F10x_StdPeriph_Driver/src/stm32f10x_i2c.o
                0x0000000008000dd8                I2C_DeInit
                0x0000000008000e0c                I2C_Init
                0x0000000008000ee0                I2C_StructInit
                0x0000000008000efc                I2C_Cmd
                0x0000000008000f14                I2C_DMACmd
                0x0000000008000f2c                I2C_DMALastTransferCmd
                0x0000000008000f44                I2C_GenerateSTART
                0x0000000008000f5c                I2C_GenerateSTOP
                0x0000000008000f74                I2C_AcknowledgeConfig
                0x0000000008000f8c                I2C_OwnAddress2Config
                0x0000000008000f9e                I2C_DualAddressCmd
                0x0000000008000fb6                I2C_GeneralCallCmd
                0x0000000008000fce                I2C_ITConfig
                0x0000000008000fe0                I2C_SendData
                0x0000000008000fe4                I2C_ReceiveData
                0x0000000008000fea                I2C_Send7bitAddress
                0x0000000008000ffc                I2C_ReadRegister
                0x0000000008001014                I2C_SoftwareResetCmd
                0x000000000800102c                I2C_SMBusAlertConfig
                0x0000000008001048                I2C_TransmitPEC
                0x0000000008001060                I2C_PECPositionConfig
                0x000000000800107c                I2C_NACKPositionConfig
                0x0000000008001080                I2C_CalculatePEC
                0x0000000008001098                I2C_GetPEC
                0x00000000080010a0                I2C_ARPCmd
                0x00000000080010b8                I2C_StretchClockCmd
                0x00000000080010d0                I2C_FastModeDutyCycleConfig
                0x00000000080010ec                I2C_CheckEvent
                0x0000000008001104                I2C_GetLastEvent
                0x0000000008001114                I2C_GetFlagStatus
                0x0000000008001148                I2C_ClearFlag
                0x0000000008001150                I2C_GetITStatus
                0x000000000800116c                I2C_ClearITPendingBit
 .text          0x0000000008001174      0x348 ./lib/STM32F10x_StdPeriph_Driver/src/stm32f10x_rcc.o
                0x0000000008001174                RCC_DeInit
                0x00000000080011b4                RCC_HSEConfig
                0x00000000080011ec                RCC_AdjustHSICalibrationValue
                0x0000000008001200                RCC_HSICmd
                0x000000000800120c                RCC_PLLConfig
                0x0000000008001220                RCC_PLLCmd
                0x000000000800122c                RCC_SYSCLKConfig
                0x0000000008001240                RCC_GetSYSCLKSource
                0x0000000008001250                RCC_HCLKConfig
                0x0000000008001264                RCC_PCLK1Config
                0x0000000008001278                RCC_PCLK2Config
                0x000000000800128c                RCC_ITConfig
                0x00000000080012a4                RCC_USBCLKConfig
                0x00000000080012b0                RCC_ADCCLKConfig
                0x00000000080012c4                RCC_LSEConfig
                0x00000000080012e4                RCC_LSICmd
                0x00000000080012f0                RCC_RTCCLKConfig
                0x0000000008001300                RCC_RTCCLKCmd
                0x000000000800130c                RCC_GetClocksFreq
                0x0000000008001398                RCC_AHBPeriphClockCmd
                0x00000000080013b0                RCC_APB2PeriphClockCmd
                0x00000000080013c8                RCC_APB1PeriphClockCmd
                0x00000000080013e0                RCC_APB2PeriphResetCmd
                0x00000000080013f8                RCC_APB1PeriphResetCmd
                0x0000000008001410                RCC_BackupResetCmd
                0x000000000800141c                RCC_ClockSecuritySystemCmd
                0x0000000008001428                RCC_MCOConfig
                0x0000000008001434                RCC_GetFlagStatus
                0x000000000800145c                RCC_WaitForHSEStartUp
                0x000000000800148c                RCC_ClearFlag
                0x000000000800149c                RCC_GetITStatus
                0x00000000080014b0                RCC_ClearITPendingBit
 .text          0x00000000080014bc      0x3a0 ./lib/STM32F10x_StdPeriph_Driver/src/stm32f10x_usart.o
                0x00000000080014bc                USART_DeInit
                0x0000000008001558                USART_Init
                0x0000000008001604                USART_StructInit
                0x000000000800161a                USART_ClockInit
                0x000000000800163a                USART_ClockStructInit
                0x0000000008001646                USART_Cmd
                0x000000000800165e                USART_ITConfig
                0x000000000800168e                USART_DMACmd
                0x00000000080016a0                USART_SetAddress
                0x00000000080016b6                USART_WakeUpConfig
                0x00000000080016cc                USART_ReceiverWakeUpCmd
                0x00000000080016e4                USART_LINBreakDetectLengthConfig
                0x00000000080016fa                USART_LINCmd
                0x0000000008001712                USART_SendData
                0x000000000800171a                USART_ReceiveData
                0x0000000008001722                USART_SendBreak
                0x000000000800172e                USART_SetGuardTime
                0x0000000008001740                USART_SetPrescaler
                0x0000000008001752                USART_SmartCardCmd
                0x000000000800176a                USART_SmartCardNACKCmd
                0x0000000008001782                USART_HalfDuplexCmd
                0x000000000800179a                USART_OverSampling8Cmd
                0x00000000080017b2                USART_OneBitMethodCmd
                0x00000000080017ca                USART_IrDAConfig
                0x00000000080017e0                USART_IrDACmd
                0x00000000080017f8                USART_GetFlagStatus
                0x0000000008001804                USART_ClearFlag
                0x000000000800180c                USART_GetITStatus
                0x000000000800184c                USART_ClearITPendingBit
 .text          0x000000000800185c      0xc78 ./lib/STM32F10x_StdPeriph_Driver/src/stm32f10x_tim.o
                0x0000000008001940                TIM_DeInit
                0x0000000008001b08                TIM_TimeBaseInit
                0x0000000008001b9c                TIM_OC1Init
                0x0000000008001c24                TIM_OC2Init
                0x0000000008001ca4                TIM_OC3Init
                0x0000000008001d20                TIM_OC4Init
                0x0000000008001d88                TIM_BDTRConfig
                0x0000000008001daa                TIM_TimeBaseStructInit
                0x0000000008001dbc                TIM_OCStructInit
                0x0000000008001dd0                TIM_ICStructInit
                0x0000000008001de0                TIM_BDTRStructInit
                0x0000000008001df2                TIM_Cmd
                0x0000000008001e0a                TIM_CtrlPWMOutputs
                0x0000000008001e26                TIM_GenerateEvent
                0x0000000008001e2a                TIM_DMAConfig
                0x0000000008001e32                TIM_DMACmd
                0x0000000008001e44                TIM_ITConfig
                0x0000000008001e48                TIM_InternalClockConfig
                0x0000000008001e56                TIM_ITRxExternalClockConfig
                0x0000000008001e70                TIM_TIxExternalClockConfig
                0x0000000008001ea4                TIM_ETRConfig
                0x0000000008001eb8                TIM_ETRClockMode1Config
                0x0000000008001ed0                TIM_ETRClockMode2Config
                0x0000000008001ee2                TIM_PrescalerConfig
                0x0000000008001ee8                TIM_CounterModeConfig
                0x0000000008001ef8                TIM_SelectInputTrigger
                0x0000000008001f08                TIM_EncoderInterfaceConfig
                0x0000000008001f46                TIM_ForcedOC1Config
                0x0000000008001f56                TIM_ForcedOC2Config
                0x0000000008001f6a                TIM_ForcedOC3Config
                0x0000000008001f7a                TIM_ForcedOC4Config
                0x0000000008001f8e                TIM_ARRPreloadConfig
                0x0000000008001fa6                TIM_SelectCOM
                0x0000000008001fbe                TIM_SelectCCDMA
                0x0000000008001fd6                TIM_CCPreloadControl
                0x0000000008001fee                TIM_OC1PreloadConfig
                0x0000000008001ffe                TIM_OC2PreloadConfig
                0x0000000008002012                TIM_OC3PreloadConfig
                0x0000000008002022                TIM_OC4PreloadConfig
                0x0000000008002036                TIM_OC1FastConfig
                0x0000000008002046                TIM_OC2FastConfig
                0x000000000800205a                TIM_OC3FastConfig
                0x000000000800206a                TIM_OC4FastConfig
                0x000000000800207e                TIM_ClearOC1Ref
                0x000000000800208e                TIM_ClearOC2Ref
                0x000000000800209e                TIM_ClearOC3Ref
                0x00000000080020ae                TIM_ClearOC4Ref
                0x00000000080020be                TIM_OC1PolarityConfig
                0x00000000080020ce                TIM_OC1NPolarityConfig
                0x00000000080020de                TIM_OC2PolarityConfig
                0x00000000080020f2                TIM_OC2NPolarityConfig
                0x0000000008002106                TIM_OC3PolarityConfig
                0x000000000800211a                TIM_OC3NPolarityConfig
                0x000000000800212e                TIM_OC4PolarityConfig
                0x0000000008002142                TIM_CCxCmd
                0x0000000008002160                TIM_CCxNCmd
                0x000000000800217e                TIM_SelectOCxM
                0x00000000080021c0                TIM_UpdateDisableConfig
                0x00000000080021d8                TIM_UpdateRequestConfig
                0x00000000080021f0                TIM_SelectHallSensor
                0x0000000008002208                TIM_SelectOnePulseMode
                0x000000000800221e                TIM_SelectOutputTrigger
                0x0000000008002234                TIM_SelectSlaveMode
                0x000000000800224a                TIM_SelectMasterSlaveMode
                0x0000000008002260                TIM_SetCounter
                0x0000000008002264                TIM_SetAutoreload
                0x0000000008002268                TIM_SetCompare1
                0x000000000800226c                TIM_SetCompare2
                0x0000000008002270                TIM_SetCompare3
                0x0000000008002274                TIM_SetCompare4
                0x000000000800227a                TIM_SetIC1Prescaler
                0x0000000008002290                TIM_SetIC2Prescaler
                0x00000000080022aa                TIM_PWMIConfig
                0x000000000800230a                TIM_SetIC3Prescaler
                0x0000000008002320                TIM_SetIC4Prescaler
                0x000000000800233a                TIM_ICInit
                0x0000000008002464                TIM_SetClockDivision
                0x000000000800247a                TIM_GetCapture1
                0x0000000008002480                TIM_GetCapture2
                0x0000000008002486                TIM_GetCapture3
                0x000000000800248c                TIM_GetCapture4
                0x0000000008002494                TIM_GetCounter
                0x000000000800249a                TIM_GetPrescaler
                0x00000000080024a0                TIM_GetFlagStatus
                0x00000000080024ac                TIM_ClearFlag
                0x00000000080024b4                TIM_GetITStatus
                0x00000000080024ca                TIM_ClearITPendingBit
 .text          0x00000000080024d4       0xb4 ./lib/STM32F10x_StdPeriph_Driver/src/misc.o
                0x00000000080024d4                NVIC_PriorityGroupConfig
                0x00000000080024e8                NVIC_Init
                0x0000000008002544                NVIC_SetVectorTable
                0x0000000008002558                NVIC_SystemLPConfig
                0x0000000008002570                SysTick_CLKSourceConfig
 .text          0x0000000008002588      0x38c ./src/main.o
                0x0000000008002588                motor_cb(roberto_msgs::MotorState const&)
                0x00000000080027f8                USART1_IRQHandler
                0x00000000080028a4                EXTI2_IRQHandler
                0x00000000080028c8                HardFault_Handler
                0x00000000080028e0                hard_fault_handler_c
                0x0000000008002910                assert_failed(unsigned char*, unsigned long)
 .text._ZNK8std_msgs4Time9serializeEPh
                0x0000000008002914       0x28 ./src/main.o
                0x0000000008002914                std_msgs::Time::serialize(unsigned char*) const
 .text._ZN8std_msgs4Time11deserializeEPh
                0x000000000800293c       0x3c ./src/main.o
                0x000000000800293c                std_msgs::Time::deserialize(unsigned char*)
 .text._ZN8std_msgs4Time7getTypeEv
                0x0000000008002978        0x8 ./src/main.o
                0x0000000008002978                std_msgs::Time::getType()
 .text._ZN8std_msgs4Time6getMD5Ev
                0x0000000008002980        0x8 ./src/main.o
                0x0000000008002980                std_msgs::Time::getMD5()
 .text._ZN14rosserial_msgs9TopicInfo11deserializeEPh
                0x0000000008002988       0x96 ./src/main.o
                0x0000000008002988                rosserial_msgs::TopicInfo::deserialize(unsigned char*)
 *fill*         0x0000000008002a1e        0x2 
 .text._ZN14rosserial_msgs9TopicInfo7getTypeEv
                0x0000000008002a20        0x8 ./src/main.o
                0x0000000008002a20                rosserial_msgs::TopicInfo::getType()
 .text._ZN14rosserial_msgs9TopicInfo6getMD5Ev
                0x0000000008002a28        0x8 ./src/main.o
                0x0000000008002a28                rosserial_msgs::TopicInfo::getMD5()
 .text._ZN14rosserial_msgs3Log11deserializeEPh
                0x0000000008002a30       0x2c ./src/main.o
                0x0000000008002a30                rosserial_msgs::Log::deserialize(unsigned char*)
 .text._ZN14rosserial_msgs3Log7getTypeEv
                0x0000000008002a5c        0x8 ./src/main.o
                0x0000000008002a5c                rosserial_msgs::Log::getType()
 .text._ZN14rosserial_msgs3Log6getMD5Ev
                0x0000000008002a64        0x8 ./src/main.o
                0x0000000008002a64                rosserial_msgs::Log::getMD5()
 .text._ZN14rosserial_msgs20RequestParamResponse7getTypeEv
                0x0000000008002a6c        0x8 ./src/main.o
                0x0000000008002a6c                rosserial_msgs::RequestParamResponse::getType()
 .text._ZN14rosserial_msgs20RequestParamResponse6getMD5Ev
                0x0000000008002a74        0x8 ./src/main.o
                0x0000000008002a74                rosserial_msgs::RequestParamResponse::getMD5()
 .text._ZN8std_msgs19MultiArrayDimension11deserializeEPh
                0x0000000008002a7c       0x62 ./src/main.o
                0x0000000008002a7c                std_msgs::MultiArrayDimension::deserialize(unsigned char*)
 *fill*         0x0000000008002ade        0x2 
 .text._ZN8std_msgs19MultiArrayDimension7getTypeEv
                0x0000000008002ae0        0x8 ./src/main.o
                0x0000000008002ae0                std_msgs::MultiArrayDimension::getType()
 .text._ZN8std_msgs19MultiArrayDimension6getMD5Ev
                0x0000000008002ae8        0x8 ./src/main.o
                0x0000000008002ae8                std_msgs::MultiArrayDimension::getMD5()
 .text._ZNK8std_msgs16MultiArrayLayout9serializeEPh
                0x0000000008002af0       0x4a ./src/main.o
                0x0000000008002af0                std_msgs::MultiArrayLayout::serialize(unsigned char*) const
 *fill*         0x0000000008002b3a        0x2 
 .text._ZN8std_msgs16MultiArrayLayout7getTypeEv
                0x0000000008002b3c        0x8 ./src/main.o
                0x0000000008002b3c                std_msgs::MultiArrayLayout::getType()
 .text._ZN8std_msgs16MultiArrayLayout6getMD5Ev
                0x0000000008002b44        0x8 ./src/main.o
                0x0000000008002b44                std_msgs::MultiArrayLayout::getMD5()
 .text._ZNK8std_msgs17Float32MultiArray9serializeEPh
                0x0000000008002b4c       0x56 ./src/main.o
                0x0000000008002b4c                std_msgs::Float32MultiArray::serialize(unsigned char*) const
 *fill*         0x0000000008002ba2        0x2 
 .text._ZN8std_msgs17Float32MultiArray7getTypeEv
                0x0000000008002ba4        0x8 ./src/main.o
                0x0000000008002ba4                std_msgs::Float32MultiArray::getType()
 .text._ZN8std_msgs17Float32MultiArray6getMD5Ev
                0x0000000008002bac        0x8 ./src/main.o
                0x0000000008002bac                std_msgs::Float32MultiArray::getMD5()
 .text._ZN8std_msgs6Header11deserializeEPh
                0x0000000008002bb4       0x7e ./src/main.o
                0x0000000008002bb4                std_msgs::Header::deserialize(unsigned char*)
 *fill*         0x0000000008002c32        0x2 
 .text._ZN8std_msgs6Header7getTypeEv
                0x0000000008002c34        0x8 ./src/main.o
                0x0000000008002c34                std_msgs::Header::getType()
 .text._ZN8std_msgs6Header6getMD5Ev
                0x0000000008002c3c        0x8 ./src/main.o
                0x0000000008002c3c                std_msgs::Header::getMD5()
 .text._ZN12roberto_msgs10MotorState7getTypeEv
                0x0000000008002c44        0x8 ./src/main.o
                0x0000000008002c44                roberto_msgs::MotorState::getType()
 .text._ZN12roberto_msgs10MotorState6getMD5Ev
                0x0000000008002c4c        0x8 ./src/main.o
                0x0000000008002c4c                roberto_msgs::MotorState::getMD5()
 .text._ZN3ros11NodeHandle_I13STM32HardwareLi25ELi25ELi1024ELi1024EE9connectedEv
                0x0000000008002c54        0x6 ./src/main.o
                0x0000000008002c54                ros::NodeHandle_<STM32Hardware, 25, 25, 1024, 1024>::connected()
 .text._ZN3ros10SubscriberIN12roberto_msgs10MotorStateEE15getEndpointTypeEv
                0x0000000008002c5a        0x4 ./src/main.o
                0x0000000008002c5a                ros::Subscriber<roberto_msgs::MotorState>::getEndpointType()
 *fill*         0x0000000008002c5e        0x2 
 .text._ZN3ros10SubscriberIN12roberto_msgs10MotorStateEE10getMsgTypeEv
                0x0000000008002c60        0x8 ./src/main.o
                0x0000000008002c60                ros::Subscriber<roberto_msgs::MotorState>::getMsgType()
 .text._ZN3ros10SubscriberIN12roberto_msgs10MotorStateEE9getMsgMD5Ev
                0x0000000008002c68        0x8 ./src/main.o
                0x0000000008002c68                ros::Subscriber<roberto_msgs::MotorState>::getMsgMD5()
 .text._ZNK8std_msgs6Header9serializeEPh
                0x0000000008002c70       0x58 ./src/main.o
                0x0000000008002c70                std_msgs::Header::serialize(unsigned char*) const
 .text._ZNK8std_msgs19MultiArrayDimension9serializeEPh
                0x0000000008002cc8       0x48 ./src/main.o
                0x0000000008002cc8                std_msgs::MultiArrayDimension::serialize(unsigned char*) const
 .text._ZNK14rosserial_msgs20RequestParamResponse9serializeEPh
                0x0000000008002d10       0xd4 ./src/main.o
                0x0000000008002d10                rosserial_msgs::RequestParamResponse::serialize(unsigned char*) const
 .text._ZNK14rosserial_msgs3Log9serializeEPh
                0x0000000008002de4       0x24 ./src/main.o
                0x0000000008002de4                rosserial_msgs::Log::serialize(unsigned char*) const
 .text._ZNK14rosserial_msgs9TopicInfo9serializeEPh
                0x0000000008002e08       0x76 ./src/main.o
                0x0000000008002e08                rosserial_msgs::TopicInfo::serialize(unsigned char*) const
 .text._ZN14rosserial_msgs20RequestParamResponse11deserializeEPh
                0x0000000008002e7e      0x102 ./src/main.o
                0x0000000008002e7e                rosserial_msgs::RequestParamResponse::deserialize(unsigned char*)
 .text._ZN8std_msgs16MultiArrayLayout11deserializeEPh
                0x0000000008002f80       0x78 ./src/main.o
                0x0000000008002f80                std_msgs::MultiArrayLayout::deserialize(unsigned char*)
 .text._ZN8std_msgs17Float32MultiArray11deserializeEPh
                0x0000000008002ff8       0x68 ./src/main.o
                0x0000000008002ff8                std_msgs::Float32MultiArray::deserialize(unsigned char*)
 .text._ZN3ros11NodeHandle_I13STM32HardwareLi25ELi25ELi1024ELi1024EE7publishEiPKNS_3MsgE
                0x0000000008003060      0x118 ./src/main.o
                0x0000000008003060                ros::NodeHandle_<STM32Hardware, 25, 25, 1024, 1024>::publish(int, ros::Msg const*)
 .text._ZN3ros3Msg19serializeAvrFloat64EPhf
                0x0000000008003178       0x4a ./src/main.o
                0x0000000008003178                ros::Msg::serializeAvrFloat64(unsigned char*, float)
 .text._ZNK12roberto_msgs10MotorState9serializeEPh
                0x00000000080031c2       0x40 ./src/main.o
                0x00000000080031c2                roberto_msgs::MotorState::serialize(unsigned char*) const
 .text._ZN3ros3Msg21deserializeAvrFloat64EPKhPf
                0x0000000008003202       0x50 ./src/main.o
                0x0000000008003202                ros::Msg::deserializeAvrFloat64(unsigned char const*, float*)
 .text._ZN12roberto_msgs10MotorState11deserializeEPh
                0x0000000008003252       0x48 ./src/main.o
                0x0000000008003252                roberto_msgs::MotorState::deserialize(unsigned char*)
 .text._ZN3ros10SubscriberIN12roberto_msgs10MotorStateEE8callbackEPh
                0x000000000800329a       0x18 ./src/main.o
                0x000000000800329a                ros::Subscriber<roberto_msgs::MotorState>::callback(unsigned char*)
 .text._ZN3ros9Publisher7publishEPKNS_3MsgE
                0x00000000080032b2       0x14 ./src/main.o
                0x00000000080032b2                ros::Publisher::publish(ros::Msg const*)
 *fill*         0x00000000080032c6        0x2 
 .text._ZN15UsartWithBufferC2Ei
                0x00000000080032c8       0xc0 ./src/main.o
                0x00000000080032c8                UsartWithBuffer::UsartWithBuffer(int)
                0x00000000080032c8                UsartWithBuffer::UsartWithBuffer(int)
 .text._ZN3ros11NodeHandle_I13STM32HardwareLi25ELi25ELi1024ELi1024EE15requestSyncTimeEv
                0x0000000008003388       0x28 ./src/main.o
                0x0000000008003388                ros::NodeHandle_<STM32Hardware, 25, 25, 1024, 1024>::requestSyncTime()
 .text._ZN3ros11NodeHandle_I13STM32HardwareLi25ELi25ELi1024ELi1024EE15negotiateTopicsEv
                0x00000000080033b0       0xbc ./src/main.o
                0x00000000080033b0                ros::NodeHandle_<STM32Hardware, 25, 25, 1024, 1024>::negotiateTopics()
 .text._ZN3ros11NodeHandle_I13STM32HardwareLi25ELi25ELi1024ELi1024EE8syncTimeEPh
                0x000000000800346c       0x80 ./src/main.o
                0x000000000800346c                ros::NodeHandle_<STM32Hardware, 25, 25, 1024, 1024>::syncTime(unsigned char*)
 .text._ZN3ros11NodeHandle_I13STM32HardwareLi25ELi25ELi1024ELi1024EE8spinOnceEv
                0x00000000080034ec      0x224 ./src/main.o
                0x00000000080034ec                ros::NodeHandle_<STM32Hardware, 25, 25, 1024, 1024>::spinOnce()
 .text.startup  0x0000000008003710      0xa04 ./src/main.o
                0x0000000008003710                main
 .text          0x0000000008004114       0x5c ./src/motor.o
                0x0000000008004114                motor::createMotor(motorSettings*)
                0x0000000008004154                motor::motor(motorSettings*)
                0x0000000008004154                motor::motor(motorSettings*)
                0x0000000008004160                motor::~motor()
                0x0000000008004160                motor::~motor()
                0x0000000008004162                motor::~motor()
 .text          0x0000000008004170      0x250 ./src/servo.o
                0x0000000008004170                servo::setReference(float)
                0x000000000800417e                servo::getReference()
                0x0000000008004188                servo::motorName()
                0x000000000800418e                servo::~servo()
                0x000000000800418e                servo::~servo()
                0x00000000080041a4                servo::~servo()
                0x00000000080041b6                servo::motorInit()
                0x00000000080042f0                servo::servo(motorSettings*)
                0x00000000080042f0                servo::servo(motorSettings*)
                0x0000000008004304                servo::filterUpdate(float)
                0x000000000800435c                servo::update(float, bool, bool)
 .text._ZN5servo9motorTypeEv
                0x00000000080043c0        0x4 ./src/servo.o
                0x00000000080043c0                servo::motorType()
 .text          0x00000000080043c4      0x470 ./src/DCMotor.o
                0x00000000080043c4                DCMotor::setReference(float)
                0x00000000080043c8                DCMotor::getReference()
                0x00000000080043cc                DCMotor::motorName()
                0x00000000080043d2                DCMotor::~DCMotor()
                0x00000000080043d2                DCMotor::~DCMotor()
                0x00000000080043e8                DCMotor::~DCMotor()
                0x00000000080043fa                DCMotor::motorInit()
                0x0000000008004578                DCMotor::DCMotor(motorSettings*)
                0x0000000008004578                DCMotor::DCMotor(motorSettings*)
                0x000000000800458c                DCMotor::setSpeed(int, bool)
                0x000000000800464c                DCMotor::initEncoder(unsigned short)
                0x0000000008004650                DCMotor::readEncoder()
                0x0000000008004748                DCMotor::updateRegulator(float, float, float)
                0x00000000080047d8                DCMotor::update(float, bool, bool)
 .text._ZN7DCMotor9motorTypeEv
                0x0000000008004834        0x4 ./src/DCMotor.o
                0x0000000008004834                DCMotor::motorType()
 .text          0x0000000008004838       0x46 ./src/motorSettings.o
                0x0000000008004838                motorSettings::motorSettings()
                0x0000000008004838                motorSettings::motorSettings()
                0x000000000800483e                motorSettings::motorSettings(int, char const*, TIM_TypeDef*, int)
                0x000000000800483e                motorSettings::motorSettings(int, char const*, TIM_TypeDef*, int)
                0x000000000800484a                motorSettings::setDCPins(int, GPIO_TypeDef*, int, GPIO_TypeDef*, int, GPIO_TypeDef*, int, GPIO_TypeDef*, int, GPIO_TypeDef*)
                0x000000000800486e                motorSettings::setRegulator(float, float, float, float, float)
 *fill*         0x000000000800487e        0x2 
 .text          0x0000000008004880       0x7c ./src/LibraryHacks.o
                0x0000000008004880                __gnu_cxx::__verbose_terminate_handler()
                0x0000000008004882                __cxa_pure_virtual
                0x0000000008004884                operator new(unsigned int)
                0x0000000008004888                operator new(unsigned int, void*)
                0x000000000800488c                operator new[](unsigned int)
                0x0000000008004890                operator new[](unsigned int, void*)
                0x0000000008004894                operator delete(void*)
                0x0000000008004898                operator delete[](void*)
                0x000000000800489c                __wrap___aeabi_unwind_cpp_pr0
                0x000000000800489e                __wrap___aeabi_unwind_cpp_pr1
                0x00000000080048a0                __wrap___aeabi_unwind_cpp_pr2
                0x00000000080048a2                _sbrk
                0x00000000080048c0                abort
                0x00000000080048c2                _init
                0x00000000080048e0                _fini
 .text          0x00000000080048fc       0x74 ./lib/ros_lib/time.o
                0x00000000080048fc                ros::normalizeSecNSec(unsigned long&, unsigned long&)
                0x0000000008004918                ros::Time::fromNSec(long)
                0x0000000008004938                ros::Time::operator+=(ros::Duration const&)
                0x0000000008004954                ros::Time::operator-=(ros::Duration const&)
 .text._ZNK10__cxxabiv117__class_type_info11__do_upcastEPKS0_PPv
                0x0000000008004970       0x38 /opt/gcc-arm/gcc-arm-none-eabi-6_2-2016q4/bin/../lib/gcc/arm-none-eabi/6.2.1/../../../../arm-none-eabi/lib/thumb/v7-m/libstdc++.a(class_type_info.o)
                0x0000000008004970                __cxxabiv1::__class_type_info::__do_upcast(__cxxabiv1::__class_type_info const*, void**) const
 .text._ZNK10__cxxabiv117__class_type_info20__do_find_public_srcEiPKvPKS0_S2_
                0x00000000080049a8        0xc /opt/gcc-arm/gcc-arm-none-eabi-6_2-2016q4/bin/../lib/gcc/arm-none-eabi/6.2.1/../../../../arm-none-eabi/lib/thumb/v7-m/libstdc++.a(class_type_info.o)
                0x00000000080049a8                __cxxabiv1::__class_type_info::__do_find_public_src(int, void const*, __cxxabiv1::__class_type_info const*, void const*) const
 .text._ZN10__cxxabiv117__class_type_infoD2Ev
                0x00000000080049b4       0x14 /opt/gcc-arm/gcc-arm-none-eabi-6_2-2016q4/bin/../lib/gcc/arm-none-eabi/6.2.1/../../../../arm-none-eabi/lib/thumb/v7-m/libstdc++.a(class_type_info.o)
                0x00000000080049b4                __cxxabiv1::__class_type_info::~__class_type_info()
                0x00000000080049b4                __cxxabiv1::__class_type_info::~__class_type_info()
 .text._ZN10__cxxabiv117__class_type_infoD0Ev
                0x00000000080049c8       0x1c /opt/gcc-arm/gcc-arm-none-eabi-6_2-2016q4/bin/../lib/gcc/arm-none-eabi/6.2.1/../../../../arm-none-eabi/lib/thumb/v7-m/libstdc++.a(class_type_info.o)
                0x00000000080049c8                __cxxabiv1::__class_type_info::~__class_type_info()
 .text._ZNK10__cxxabiv117__class_type_info11__do_upcastEPKS0_PKvRNS0_15__upcast_resultE
                0x00000000080049e4       0x18 /opt/gcc-arm/gcc-arm-none-eabi-6_2-2016q4/bin/../lib/gcc/arm-none-eabi/6.2.1/../../../../arm-none-eabi/lib/thumb/v7-m/libstdc++.a(class_type_info.o)
                0x00000000080049e4                __cxxabiv1::__class_type_info::__do_upcast(__cxxabiv1::__class_type_info const*, void const*, __cxxabiv1::__class_type_info::__upcast_result&) const
 .text._ZNK10__cxxabiv117__class_type_info10__do_catchEPKSt9type_infoPPvj
                0x00000000080049fc       0x2c /opt/gcc-arm/gcc-arm-none-eabi-6_2-2016q4/bin/../lib/gcc/arm-none-eabi/6.2.1/../../../../arm-none-eabi/lib/thumb/v7-m/libstdc++.a(class_type_info.o)
                0x00000000080049fc                __cxxabiv1::__class_type_info::__do_catch(std::type_info const*, void**, unsigned int) const
 .text._ZNK10__cxxabiv117__class_type_info12__do_dyncastEiNS0_10__sub_kindEPKS0_PKvS3_S5_RNS0_16__dyncast_resultE
                0x0000000008004a28       0x40 /opt/gcc-arm/gcc-arm-none-eabi-6_2-2016q4/bin/../lib/gcc/arm-none-eabi/6.2.1/../../../../arm-none-eabi/lib/thumb/v7-m/libstdc++.a(class_type_info.o)
                0x0000000008004a28                __cxxabiv1::__class_type_info::__do_dyncast(int, __cxxabiv1::__class_type_info::__sub_kind, __cxxabiv1::__class_type_info const*, void const*, __cxxabiv1::__class_type_info const*, void const*, __cxxabiv1::__class_type_info::__dyncast_result&) const
 .text.__cxa_end_cleanup
                0x0000000008004a68        0xc /opt/gcc-arm/gcc-arm-none-eabi-6_2-2016q4/bin/../lib/gcc/arm-none-eabi/6.2.1/../../../../arm-none-eabi/lib/thumb/v7-m/libstdc++.a(eh_arm.o)
                0x0000000008004a68                __cxa_end_cleanup
 .text.__cxa_type_match
                0x0000000008004a74       0xb8 /opt/gcc-arm/gcc-arm-none-eabi-6_2-2016q4/bin/../lib/gcc/arm-none-eabi/6.2.1/../../../../arm-none-eabi/lib/thumb/v7-m/libstdc++.a(eh_arm.o)
                0x0000000008004a74                __cxa_type_match
 .text.__cxa_begin_cleanup
                0x0000000008004b2c       0x64 /opt/gcc-arm/gcc-arm-none-eabi-6_2-2016q4/bin/../lib/gcc/arm-none-eabi/6.2.1/../../../../arm-none-eabi/lib/thumb/v7-m/libstdc++.a(eh_arm.o)
                0x0000000008004b2c                __cxa_begin_cleanup
 .text.__gnu_end_cleanup
                0x0000000008004b90       0x70 /opt/gcc-arm/gcc-arm-none-eabi-6_2-2016q4/bin/../lib/gcc/arm-none-eabi/6.2.1/../../../../arm-none-eabi/lib/thumb/v7-m/libstdc++.a(eh_arm.o)
                0x0000000008004b90                __gnu_end_cleanup
 .text.__cxa_get_globals_fast
                0x0000000008004c00        0x8 /opt/gcc-arm/gcc-arm-none-eabi-6_2-2016q4/bin/../lib/gcc/arm-none-eabi/6.2.1/../../../../arm-none-eabi/lib/thumb/v7-m/libstdc++.a(eh_globals.o)
                0x0000000008004c00                __cxa_get_globals_fast
 .text.__cxa_get_globals
                0x0000000008004c08        0x8 /opt/gcc-arm/gcc-arm-none-eabi-6_2-2016q4/bin/../lib/gcc/arm-none-eabi/6.2.1/../../../../arm-none-eabi/lib/thumb/v7-m/libstdc++.a(eh_globals.o)
                0x0000000008004c08                __cxa_get_globals
 .text._ZNSt13bad_exceptionD2Ev
                0x0000000008004c10        0x4 /opt/gcc-arm/gcc-arm-none-eabi-6_2-2016q4/bin/../lib/gcc/arm-none-eabi/6.2.1/../../../../arm-none-eabi/lib/thumb/v7-m/libstdc++.a(eh_exception.o)
                0x0000000008004c10                std::bad_exception::~bad_exception()
                0x0000000008004c10                std::bad_exception::~bad_exception()
 .text._ZGTtNKSt13bad_exception4whatEv
                0x0000000008004c14        0x8 /opt/gcc-arm/gcc-arm-none-eabi-6_2-2016q4/bin/../lib/gcc/arm-none-eabi/6.2.1/../../../../arm-none-eabi/lib/thumb/v7-m/libstdc++.a(eh_exception.o)
                0x0000000008004c14                transaction clone for std::bad_exception::what() const
                0x0000000008004c14                std::bad_exception::what() const
 .text._ZNSt13bad_exceptionD0Ev
                0x0000000008004c1c       0x10 /opt/gcc-arm/gcc-arm-none-eabi-6_2-2016q4/bin/../lib/gcc/arm-none-eabi/6.2.1/../../../../arm-none-eabi/lib/thumb/v7-m/libstdc++.a(eh_exception.o)
                0x0000000008004c1c                std::bad_exception::~bad_exception()
 .text._ZN10__cxxabiv120__si_class_type_infoD2Ev
                0x0000000008004c2c       0x14 /opt/gcc-arm/gcc-arm-none-eabi-6_2-2016q4/bin/../lib/gcc/arm-none-eabi/6.2.1/../../../../arm-none-eabi/lib/thumb/v7-m/libstdc++.a(si_class_type_info.o)
                0x0000000008004c2c                __cxxabiv1::__si_class_type_info::~__si_class_type_info()
                0x0000000008004c2c                __cxxabiv1::__si_class_type_info::~__si_class_type_info()
 .text._ZN10__cxxabiv120__si_class_type_infoD0Ev
                0x0000000008004c40       0x1c /opt/gcc-arm/gcc-arm-none-eabi-6_2-2016q4/bin/../lib/gcc/arm-none-eabi/6.2.1/../../../../arm-none-eabi/lib/thumb/v7-m/libstdc++.a(si_class_type_info.o)
                0x0000000008004c40                __cxxabiv1::__si_class_type_info::~__si_class_type_info()
 .text._ZNK10__cxxabiv120__si_class_type_info20__do_find_public_srcEiPKvPKNS_17__class_type_infoES2_
                0x0000000008004c5c       0x3c /opt/gcc-arm/gcc-arm-none-eabi-6_2-2016q4/bin/../lib/gcc/arm-none-eabi/6.2.1/../../../../arm-none-eabi/lib/thumb/v7-m/libstdc++.a(si_class_type_info.o)
                0x0000000008004c5c                __cxxabiv1::__si_class_type_info::__do_find_public_src(int, void const*, __cxxabiv1::__class_type_info const*, void const*) const
 .text._ZNK10__cxxabiv120__si_class_type_info12__do_dyncastEiNS_17__class_type_info10__sub_kindEPKS1_PKvS4_S6_RNS1_16__dyncast_resultE
                0x0000000008004c98       0x98 /opt/gcc-arm/gcc-arm-none-eabi-6_2-2016q4/bin/../lib/gcc/arm-none-eabi/6.2.1/../../../../arm-none-eabi/lib/thumb/v7-m/libstdc++.a(si_class_type_info.o)
                0x0000000008004c98                __cxxabiv1::__si_class_type_info::__do_dyncast(int, __cxxabiv1::__class_type_info::__sub_kind, __cxxabiv1::__class_type_info const*, void const*, __cxxabiv1::__class_type_info const*, void const*, __cxxabiv1::__class_type_info::__dyncast_result&) const
 .text._ZNK10__cxxabiv120__si_class_type_info11__do_upcastEPKNS_17__class_type_infoEPKvRNS1_15__upcast_resultE
                0x0000000008004d30       0x2c /opt/gcc-arm/gcc-arm-none-eabi-6_2-2016q4/bin/../lib/gcc/arm-none-eabi/6.2.1/../../../../arm-none-eabi/lib/thumb/v7-m/libstdc++.a(si_class_type_info.o)
                0x0000000008004d30                __cxxabiv1::__si_class_type_info::__do_upcast(__cxxabiv1::__class_type_info const*, void const*, __cxxabiv1::__class_type_info::__upcast_result&) const
 .text._ZdlPvj  0x0000000008004d5c        0x4 /opt/gcc-arm/gcc-arm-none-eabi-6_2-2016q4/bin/../lib/gcc/arm-none-eabi/6.2.1/../../../../arm-none-eabi/lib/thumb/v7-m/libstdc++.a(del_ops.o)
                0x0000000008004d5c                operator delete(void*, unsigned int)
 .text._ZL28read_encoded_value_with_basehjPKhPj
                0x0000000008004d60       0xc0 /opt/gcc-arm/gcc-arm-none-eabi-6_2-2016q4/bin/../lib/gcc/arm-none-eabi/6.2.1/../../../../arm-none-eabi/lib/thumb/v7-m/libstdc++.a(eh_personality.o)
 .text._ZL21base_of_encoded_valuehP15_Unwind_Context
                0x0000000008004e20       0x40 /opt/gcc-arm/gcc-arm-none-eabi-6_2-2016q4/bin/../lib/gcc/arm-none-eabi/6.2.1/../../../../arm-none-eabi/lib/thumb/v7-m/libstdc++.a(eh_personality.o)
 .text._ZL17parse_lsda_headerP15_Unwind_ContextPKhP16lsda_header_info
                0x0000000008004e60       0x94 /opt/gcc-arm/gcc-arm-none-eabi-6_2-2016q4/bin/../lib/gcc/arm-none-eabi/6.2.1/../../../../arm-none-eabi/lib/thumb/v7-m/libstdc++.a(eh_personality.o)
 .text.__gxx_personality_v0
                0x0000000008004ef4      0x4bc /opt/gcc-arm/gcc-arm-none-eabi-6_2-2016q4/bin/../lib/gcc/arm-none-eabi/6.2.1/../../../../arm-none-eabi/lib/thumb/v7-m/libstdc++.a(eh_personality.o)
                0x0000000008004ef4                __gxx_personality_v0
 .text._ZN10__cxxabiv111__terminateEPFvvE
                0x00000000080053b0       0x28 /opt/gcc-arm/gcc-arm-none-eabi-6_2-2016q4/bin/../lib/gcc/arm-none-eabi/6.2.1/../../../../arm-none-eabi/lib/thumb/v7-m/libstdc++.a(eh_terminate.o)
                0x00000000080053b0                __cxxabiv1::__terminate(void (*)())
 .text._ZSt9terminatev
                0x00000000080053d8       0x14 /opt/gcc-arm/gcc-arm-none-eabi-6_2-2016q4/bin/../lib/gcc/arm-none-eabi/6.2.1/../../../../arm-none-eabi/lib/thumb/v7-m/libstdc++.a(eh_terminate.o)
                0x00000000080053d8                std::terminate()
 .text._ZN10__cxxabiv112__unexpectedEPFvvE
                0x00000000080053ec        0x8 /opt/gcc-arm/gcc-arm-none-eabi-6_2-2016q4/bin/../lib/gcc/arm-none-eabi/6.2.1/../../../../arm-none-eabi/lib/thumb/v7-m/libstdc++.a(eh_terminate.o)
                0x00000000080053ec                __cxxabiv1::__unexpected(void (*)())
 .text._ZSt10unexpectedv
                0x00000000080053f4       0x14 /opt/gcc-arm/gcc-arm-none-eabi-6_2-2016q4/bin/../lib/gcc/arm-none-eabi/6.2.1/../../../../arm-none-eabi/lib/thumb/v7-m/libstdc++.a(eh_terminate.o)
                0x00000000080053f4                std::unexpected()
 .text._ZSt13get_terminatev
                0x0000000008005408       0x10 /opt/gcc-arm/gcc-arm-none-eabi-6_2-2016q4/bin/../lib/gcc/arm-none-eabi/6.2.1/../../../../arm-none-eabi/lib/thumb/v7-m/libstdc++.a(eh_terminate.o)
                0x0000000008005408                std::get_terminate()
 .text._ZSt14get_unexpectedv
                0x0000000008005418       0x10 /opt/gcc-arm/gcc-arm-none-eabi-6_2-2016q4/bin/../lib/gcc/arm-none-eabi/6.2.1/../../../../arm-none-eabi/lib/thumb/v7-m/libstdc++.a(eh_terminate.o)
                0x0000000008005418                std::get_unexpected()
 .text._ZNSt9type_infoD2Ev
                0x0000000008005428        0x4 /opt/gcc-arm/gcc-arm-none-eabi-6_2-2016q4/bin/../lib/gcc/arm-none-eabi/6.2.1/../../../../arm-none-eabi/lib/thumb/v7-m/libstdc++.a(tinfo.o)
                0x0000000008005428                std::type_info::~type_info()
                0x0000000008005428                std::type_info::~type_info()
 .text._ZNKSt9type_info15__is_function_pEv
                0x000000000800542c        0x4 /opt/gcc-arm/gcc-arm-none-eabi-6_2-2016q4/bin/../lib/gcc/arm-none-eabi/6.2.1/../../../../arm-none-eabi/lib/thumb/v7-m/libstdc++.a(tinfo.o)
                0x000000000800542c                std::type_info::__is_function_p() const
                0x000000000800542c                std::type_info::__is_pointer_p() const
 .text._ZNKSt9type_infoeqERKS_
                0x0000000008005430       0x2c /opt/gcc-arm/gcc-arm-none-eabi-6_2-2016q4/bin/../lib/gcc/arm-none-eabi/6.2.1/../../../../arm-none-eabi/lib/thumb/v7-m/libstdc++.a(tinfo.o)
                0x0000000008005430                std::type_info::operator==(std::type_info const&) const
 .text._ZN10__cxxabiv1L24__is_gxx_exception_classEPc
                0x000000000800545c       0x3c /opt/gcc-arm/gcc-arm-none-eabi-6_2-2016q4/bin/../lib/gcc/arm-none-eabi/6.2.1/../../../../arm-none-eabi/lib/thumb/v7-m/libstdc++.a(eh_call.o)
 .text.__cxa_call_terminate
                0x0000000008005498       0x20 /opt/gcc-arm/gcc-arm-none-eabi-6_2-2016q4/bin/../lib/gcc/arm-none-eabi/6.2.1/../../../../arm-none-eabi/lib/thumb/v7-m/libstdc++.a(eh_call.o)
                0x0000000008005498                __cxa_call_terminate
 .text.__cxa_call_unexpected
                0x00000000080054b8       0xe4 /opt/gcc-arm/gcc-arm-none-eabi-6_2-2016q4/bin/../lib/gcc/arm-none-eabi/6.2.1/../../../../arm-none-eabi/lib/thumb/v7-m/libstdc++.a(eh_call.o)
                0x00000000080054b8                __cxa_call_unexpected
 .text.__cxa_begin_catch
                0x000000000800559c       0x80 /opt/gcc-arm/gcc-arm-none-eabi-6_2-2016q4/bin/../lib/gcc/arm-none-eabi/6.2.1/../../../../arm-none-eabi/lib/thumb/v7-m/libstdc++.a(eh_catch.o)
                0x000000000800559c                __cxa_begin_catch
 .text.__cxa_end_catch
                0x000000000800561c       0x8c /opt/gcc-arm/gcc-arm-none-eabi-6_2-2016q4/bin/../lib/gcc/arm-none-eabi/6.2.1/../../../../arm-none-eabi/lib/thumb/v7-m/libstdc++.a(eh_catch.o)
                0x000000000800561c                __cxa_end_catch
 .text._ZN12_GLOBAL__N_14pool4freeEPv.constprop.4
                0x00000000080056a8       0x7c /opt/gcc-arm/gcc-arm-none-eabi-6_2-2016q4/bin/../lib/gcc/arm-none-eabi/6.2.1/../../../../arm-none-eabi/lib/thumb/v7-m/libstdc++.a(eh_alloc.o)
 .text._ZN12_GLOBAL__N_14pool8allocateEj.constprop.5
                0x0000000008005724       0x68 /opt/gcc-arm/gcc-arm-none-eabi-6_2-2016q4/bin/../lib/gcc/arm-none-eabi/6.2.1/../../../../arm-none-eabi/lib/thumb/v7-m/libstdc++.a(eh_alloc.o)
 .text.__cxa_allocate_exception
                0x000000000800578c       0x30 /opt/gcc-arm/gcc-arm-none-eabi-6_2-2016q4/bin/../lib/gcc/arm-none-eabi/6.2.1/../../../../arm-none-eabi/lib/thumb/v7-m/libstdc++.a(eh_alloc.o)
                0x000000000800578c                __cxa_allocate_exception
 .text.__cxa_free_exception
                0x00000000080057bc       0x20 /opt/gcc-arm/gcc-arm-none-eabi-6_2-2016q4/bin/../lib/gcc/arm-none-eabi/6.2.1/../../../../arm-none-eabi/lib/thumb/v7-m/libstdc++.a(eh_alloc.o)
                0x00000000080057bc                __cxa_free_exception
 .text.startup._GLOBAL__sub_I__ZN9__gnu_cxx9__freeresEv
                0x00000000080057dc       0x28 /opt/gcc-arm/gcc-arm-none-eabi-6_2-2016q4/bin/../lib/gcc/arm-none-eabi/6.2.1/../../../../arm-none-eabi/lib/thumb/v7-m/libstdc++.a(eh_alloc.o)
 .text._ZL23__gxx_exception_cleanup19_Unwind_Reason_CodeP21_Unwind_Control_Block
                0x0000000008005804       0x44 /opt/gcc-arm/gcc-arm-none-eabi-6_2-2016q4/bin/../lib/gcc/arm-none-eabi/6.2.1/../../../../arm-none-eabi/lib/thumb/v7-m/libstdc++.a(eh_throw.o)
 .text.__cxa_throw
                0x0000000008005848       0x80 /opt/gcc-arm/gcc-arm-none-eabi-6_2-2016q4/bin/../lib/gcc/arm-none-eabi/6.2.1/../../../../arm-none-eabi/lib/thumb/v7-m/libstdc++.a(eh_throw.o)
                0x0000000008005848                __cxa_throw
 .text.__cxa_rethrow
                0x00000000080058c8       0x70 /opt/gcc-arm/gcc-arm-none-eabi-6_2-2016q4/bin/../lib/gcc/arm-none-eabi/6.2.1/../../../../arm-none-eabi/lib/thumb/v7-m/libstdc++.a(eh_throw.o)
                0x00000000080058c8                __cxa_rethrow
 .text.sin      0x0000000008005938       0x90 /opt/gcc-arm/gcc-arm-none-eabi-6_2-2016q4/bin/../lib/gcc/arm-none-eabi/6.2.1/../../../../arm-none-eabi/lib/thumb/v7-m/libm.a(lib_a-s_sin.o)
                0x0000000008005938                sin
 .text.atanf    0x00000000080059c8      0x22c /opt/gcc-arm/gcc-arm-none-eabi-6_2-2016q4/bin/../lib/gcc/arm-none-eabi/6.2.1/../../../../arm-none-eabi/lib/thumb/v7-m/libm.a(lib_a-sf_atan.o)
                0x00000000080059c8                atanf
 .text.cosf     0x0000000008005bf4       0x78 /opt/gcc-arm/gcc-arm-none-eabi-6_2-2016q4/bin/../lib/gcc/arm-none-eabi/6.2.1/../../../../arm-none-eabi/lib/thumb/v7-m/libm.a(lib_a-sf_cos.o)
                0x0000000008005bf4                cosf
 .text.fabsf    0x0000000008005c6c        0x8 /opt/gcc-arm/gcc-arm-none-eabi-6_2-2016q4/bin/../lib/gcc/arm-none-eabi/6.2.1/../../../../arm-none-eabi/lib/thumb/v7-m/libm.a(lib_a-sf_fabs.o)
                0x0000000008005c6c                fabsf
 .text.sinf     0x0000000008005c74       0x7c /opt/gcc-arm/gcc-arm-none-eabi-6_2-2016q4/bin/../lib/gcc/arm-none-eabi/6.2.1/../../../../arm-none-eabi/lib/thumb/v7-m/libm.a(lib_a-sf_sin.o)
                0x0000000008005c74                sinf
 .text.sqrt     0x0000000008005cf0       0xbc /opt/gcc-arm/gcc-arm-none-eabi-6_2-2016q4/bin/../lib/gcc/arm-none-eabi/6.2.1/../../../../arm-none-eabi/lib/thumb/v7-m/libm.a(lib_a-w_sqrt.o)
                0x0000000008005cf0                sqrt
 .text.sqrtf    0x0000000008005dac       0xa0 /opt/gcc-arm/gcc-arm-none-eabi-6_2-2016q4/bin/../lib/gcc/arm-none-eabi/6.2.1/../../../../arm-none-eabi/lib/thumb/v7-m/libm.a(lib_a-wf_sqrt.o)
                0x0000000008005dac                sqrtf
 *fill*         0x0000000008005e4c        0x4 
 .text.__ieee754_rem_pio2
                0x0000000008005e50      0x42c /opt/gcc-arm/gcc-arm-none-eabi-6_2-2016q4/bin/../lib/gcc/arm-none-eabi/6.2.1/../../../../arm-none-eabi/lib/thumb/v7-m/libm.a(lib_a-e_rem_pio2.o)
                0x0000000008005e50                __ieee754_rem_pio2
 .text.__ieee754_sqrt
                0x000000000800627c      0x178 /opt/gcc-arm/gcc-arm-none-eabi-6_2-2016q4/bin/../lib/gcc/arm-none-eabi/6.2.1/../../../../arm-none-eabi/lib/thumb/v7-m/libm.a(lib_a-e_sqrt.o)
                0x000000000800627c                __ieee754_sqrt
 .text.__ieee754_rem_pio2f
                0x00000000080063f4      0x2dc /opt/gcc-arm/gcc-arm-none-eabi-6_2-2016q4/bin/../lib/gcc/arm-none-eabi/6.2.1/../../../../arm-none-eabi/lib/thumb/v7-m/libm.a(lib_a-ef_rem_pio2.o)
                0x00000000080063f4                __ieee754_rem_pio2f
 .text.__ieee754_sqrtf
                0x00000000080066d0       0xa8 /opt/gcc-arm/gcc-arm-none-eabi-6_2-2016q4/bin/../lib/gcc/arm-none-eabi/6.2.1/../../../../arm-none-eabi/lib/thumb/v7-m/libm.a(lib_a-ef_sqrt.o)
                0x00000000080066d0                __ieee754_sqrtf
 .text.__kernel_cos
                0x0000000008006778      0x248 /opt/gcc-arm/gcc-arm-none-eabi-6_2-2016q4/bin/../lib/gcc/arm-none-eabi/6.2.1/../../../../arm-none-eabi/lib/thumb/v7-m/libm.a(lib_a-k_cos.o)
                0x0000000008006778                __kernel_cos
 .text.__kernel_rem_pio2
                0x00000000080069c0      0x88c /opt/gcc-arm/gcc-arm-none-eabi-6_2-2016q4/bin/../lib/gcc/arm-none-eabi/6.2.1/../../../../arm-none-eabi/lib/thumb/v7-m/libm.a(lib_a-k_rem_pio2.o)
                0x00000000080069c0                __kernel_rem_pio2
 *fill*         0x000000000800724c        0x4 
 .text.__kernel_sin
                0x0000000008007250      0x16c /opt/gcc-arm/gcc-arm-none-eabi-6_2-2016q4/bin/../lib/gcc/arm-none-eabi/6.2.1/../../../../arm-none-eabi/lib/thumb/v7-m/libm.a(lib_a-k_sin.o)
                0x0000000008007250                __kernel_sin
 .text.__kernel_cosf
                0x00000000080073bc      0x188 /opt/gcc-arm/gcc-arm-none-eabi-6_2-2016q4/bin/../lib/gcc/arm-none-eabi/6.2.1/../../../../arm-none-eabi/lib/thumb/v7-m/libm.a(lib_a-kf_cos.o)
                0x00000000080073bc                __kernel_cosf
 .text.__kernel_rem_pio2f
                0x0000000008007544      0x708 /opt/gcc-arm/gcc-arm-none-eabi-6_2-2016q4/bin/../lib/gcc/arm-none-eabi/6.2.1/../../../../arm-none-eabi/lib/thumb/v7-m/libm.a(lib_a-kf_rem_pio2.o)
                0x0000000008007544                __kernel_rem_pio2f
 .text.__kernel_sinf
                0x0000000008007c4c       0xec /opt/gcc-arm/gcc-arm-none-eabi-6_2-2016q4/bin/../lib/gcc/arm-none-eabi/6.2.1/../../../../arm-none-eabi/lib/thumb/v7-m/libm.a(lib_a-kf_sin.o)
                0x0000000008007c4c                __kernel_sinf
 .text.fabs     0x0000000008007d38        0x8 /opt/gcc-arm/gcc-arm-none-eabi-6_2-2016q4/bin/../lib/gcc/arm-none-eabi/6.2.1/../../../../arm-none-eabi/lib/thumb/v7-m/libm.a(lib_a-s_fabs.o)
                0x0000000008007d38                fabs
 .text.floor    0x0000000008007d40      0x118 /opt/gcc-arm/gcc-arm-none-eabi-6_2-2016q4/bin/../lib/gcc/arm-none-eabi/6.2.1/../../../../arm-none-eabi/lib/thumb/v7-m/libm.a(lib_a-s_floor.o)
                0x0000000008007d40                floor
 .text.matherr  0x0000000008007e58        0x4 /opt/gcc-arm/gcc-arm-none-eabi-6_2-2016q4/bin/../lib/gcc/arm-none-eabi/6.2.1/../../../../arm-none-eabi/lib/thumb/v7-m/libm.a(lib_a-s_matherr.o)
                0x0000000008007e58                matherr
 *fill*         0x0000000008007e5c        0x4 
 .text.scalbn   0x0000000008007e60       0xe4 /opt/gcc-arm/gcc-arm-none-eabi-6_2-2016q4/bin/../lib/gcc/arm-none-eabi/6.2.1/../../../../arm-none-eabi/lib/thumb/v7-m/libm.a(lib_a-s_scalbn.o)
                0x0000000008007e60                scalbn
 .text.floorf   0x0000000008007f44       0x8c /opt/gcc-arm/gcc-arm-none-eabi-6_2-2016q4/bin/../lib/gcc/arm-none-eabi/6.2.1/../../../../arm-none-eabi/lib/thumb/v7-m/libm.a(lib_a-sf_floor.o)
                0x0000000008007f44                floorf
 .text.scalbnf  0x0000000008007fd0       0xb0 /opt/gcc-arm/gcc-arm-none-eabi-6_2-2016q4/bin/../lib/gcc/arm-none-eabi/6.2.1/../../../../arm-none-eabi/lib/thumb/v7-m/libm.a(lib_a-sf_scalbn.o)
                0x0000000008007fd0                scalbnf
 .text.copysign
                0x0000000008008080       0x10 /opt/gcc-arm/gcc-arm-none-eabi-6_2-2016q4/bin/../lib/gcc/arm-none-eabi/6.2.1/../../../../arm-none-eabi/lib/thumb/v7-m/libm.a(lib_a-s_copysign.o)
                0x0000000008008080                copysign
 .text.copysignf
                0x0000000008008090        0xc /opt/gcc-arm/gcc-arm-none-eabi-6_2-2016q4/bin/../lib/gcc/arm-none-eabi/6.2.1/../../../../arm-none-eabi/lib/thumb/v7-m/libm.a(lib_a-sf_copysign.o)
                0x0000000008008090                copysignf
 .text          0x000000000800809c      0x370 /opt/gcc-arm/gcc-arm-none-eabi-6_2-2016q4/bin/../lib/gcc/arm-none-eabi/6.2.1/thumb/v7-m/libgcc.a(_arm_addsubdf3.o)
                0x000000000800809c                __aeabi_drsub
                0x00000000080080a4                __aeabi_dsub
                0x00000000080080a4                __subdf3
                0x00000000080080a8                __adddf3
                0x00000000080080a8                __aeabi_dadd
                0x0000000008008320                __aeabi_ui2d
                0x0000000008008320                __floatunsidf
                0x0000000008008340                __floatsidf
                0x0000000008008340                __aeabi_i2d
                0x0000000008008364                __extendsfdf2
                0x0000000008008364                __aeabi_f2d
                0x00000000080083a0                __aeabi_ul2d
                0x00000000080083a0                __floatundidf
                0x00000000080083b0                __floatdidf
                0x00000000080083b0                __aeabi_l2d
 .text          0x000000000800840c      0x424 /opt/gcc-arm/gcc-arm-none-eabi-6_2-2016q4/bin/../lib/gcc/arm-none-eabi/6.2.1/thumb/v7-m/libgcc.a(_arm_muldivdf3.o)
                0x000000000800840c                __aeabi_dmul
                0x000000000800840c                __muldf3
                0x0000000008008660                __aeabi_ddiv
                0x0000000008008660                __divdf3
 .text          0x0000000008008830      0x110 /opt/gcc-arm/gcc-arm-none-eabi-6_2-2016q4/bin/../lib/gcc/arm-none-eabi/6.2.1/thumb/v7-m/libgcc.a(_arm_cmpdf2.o)
                0x0000000008008830                __gtdf2
                0x0000000008008830                __gedf2
                0x0000000008008838                __ltdf2
                0x0000000008008838                __ledf2
                0x0000000008008840                __cmpdf2
                0x0000000008008840                __eqdf2
                0x0000000008008840                __nedf2
                0x00000000080088bc                __aeabi_cdrcmple
                0x00000000080088cc                __aeabi_cdcmple
                0x00000000080088cc                __aeabi_cdcmpeq
                0x00000000080088dc                __aeabi_dcmpeq
                0x00000000080088f0                __aeabi_dcmplt
                0x0000000008008904                __aeabi_dcmple
                0x0000000008008918                __aeabi_dcmpge
                0x000000000800892c                __aeabi_dcmpgt
 .text          0x0000000008008940       0x2c /opt/gcc-arm/gcc-arm-none-eabi-6_2-2016q4/bin/../lib/gcc/arm-none-eabi/6.2.1/thumb/v7-m/libgcc.a(_arm_unorddf2.o)
                0x0000000008008940                __aeabi_dcmpun
                0x0000000008008940                __unorddf2
 .text          0x000000000800896c       0x50 /opt/gcc-arm/gcc-arm-none-eabi-6_2-2016q4/bin/../lib/gcc/arm-none-eabi/6.2.1/thumb/v7-m/libgcc.a(_arm_fixdfsi.o)
                0x000000000800896c                __fixdfsi
                0x000000000800896c                __aeabi_d2iz
 .text          0x00000000080089bc       0xa0 /opt/gcc-arm/gcc-arm-none-eabi-6_2-2016q4/bin/../lib/gcc/arm-none-eabi/6.2.1/thumb/v7-m/libgcc.a(_arm_truncdfsf2.o)
                0x00000000080089bc                __aeabi_d2f
                0x00000000080089bc                __truncdfsf2
 .text          0x0000000008008a5c      0x21c /opt/gcc-arm/gcc-arm-none-eabi-6_2-2016q4/bin/../lib/gcc/arm-none-eabi/6.2.1/thumb/v7-m/libgcc.a(_arm_addsubsf3.o)
                0x0000000008008a5c                __aeabi_frsub
                0x0000000008008a64                __subsf3
                0x0000000008008a64                __aeabi_fsub
                0x0000000008008a68                __aeabi_fadd
                0x0000000008008a68                __addsf3
                0x0000000008008bc8                __aeabi_ui2f
                0x0000000008008bc8                __floatunsisf
                0x0000000008008bd0                __aeabi_i2f
                0x0000000008008bd0                __floatsisf
                0x0000000008008bec                __floatundisf
                0x0000000008008bec                __aeabi_ul2f
                0x0000000008008bfc                __floatdisf
                0x0000000008008bfc                __aeabi_l2f
 .text          0x0000000008008c78      0x2a0 /opt/gcc-arm/gcc-arm-none-eabi-6_2-2016q4/bin/../lib/gcc/arm-none-eabi/6.2.1/thumb/v7-m/libgcc.a(_arm_muldivsf3.o)
                0x0000000008008c78                __mulsf3
                0x0000000008008c78                __aeabi_fmul
                0x0000000008008de0                __divsf3
                0x0000000008008de0                __aeabi_fdiv
 .text          0x0000000008008f18       0xec /opt/gcc-arm/gcc-arm-none-eabi-6_2-2016q4/bin/../lib/gcc/arm-none-eabi/6.2.1/thumb/v7-m/libgcc.a(_arm_cmpsf2.o)
                0x0000000008008f18                __gtsf2
                0x0000000008008f18                __gesf2
                0x0000000008008f20                __lesf2
                0x0000000008008f20                __ltsf2
                0x0000000008008f28                __nesf2
                0x0000000008008f28                __eqsf2
                0x0000000008008f28                __cmpsf2
                0x0000000008008f88                __aeabi_cfrcmple
                0x0000000008008f90                __aeabi_cfcmple
                0x0000000008008f90                __aeabi_cfcmpeq
                0x0000000008008fa0                __aeabi_fcmpeq
                0x0000000008008fb4                __aeabi_fcmplt
                0x0000000008008fc8                __aeabi_fcmple
                0x0000000008008fdc                __aeabi_fcmpge
                0x0000000008008ff0                __aeabi_fcmpgt
 .text          0x0000000008009004       0x2c /opt/gcc-arm/gcc-arm-none-eabi-6_2-2016q4/bin/../lib/gcc/arm-none-eabi/6.2.1/thumb/v7-m/libgcc.a(_arm_unordsf2.o)
                0x0000000008009004                __aeabi_fcmpun
                0x0000000008009004                __unordsf2
 .text          0x0000000008009030       0x4c /opt/gcc-arm/gcc-arm-none-eabi-6_2-2016q4/bin/../lib/gcc/arm-none-eabi/6.2.1/thumb/v7-m/libgcc.a(_arm_fixsfsi.o)
                0x0000000008009030                __fixsfsi
                0x0000000008009030                __aeabi_f2iz
 .text          0x000000000800907c      0x9dc /opt/gcc-arm/gcc-arm-none-eabi-6_2-2016q4/bin/../lib/gcc/arm-none-eabi/6.2.1/thumb/v7-m/libgcc.a(unwind-arm.o)
                0x0000000008009340                _Unwind_GetCFA
                0x0000000008009344                __gnu_Unwind_RaiseException
                0x00000000080093a4                __gnu_Unwind_ForcedUnwind
                0x00000000080093b8                __gnu_Unwind_Resume
                0x00000000080093fc                __gnu_Unwind_Resume_or_Rethrow
                0x0000000008009410                _Unwind_Complete
                0x0000000008009414                _Unwind_DeleteException
                0x0000000008009420                _Unwind_VRS_Get
                0x000000000800946c                _Unwind_VRS_Set
                0x00000000080094bc                __gnu_Unwind_Backtrace
                0x0000000008009800                __aeabi_unwind_cpp_pr0
                0x0000000008009804                __aeabi_unwind_cpp_pr1
                0x0000000008009808                __aeabi_unwind_cpp_pr2
                0x000000000800980c                _Unwind_VRS_Pop
 .text          0x0000000008009a58      0x1ac /opt/gcc-arm/gcc-arm-none-eabi-6_2-2016q4/bin/../lib/gcc/arm-none-eabi/6.2.1/thumb/v7-m/libgcc.a(libunwind.o)
                0x0000000008009a58                __restore_core_regs
                0x0000000008009a58                restore_core_regs
                0x0000000008009a70                __gnu_Unwind_Restore_VFP
                0x0000000008009a78                __gnu_Unwind_Save_VFP
                0x0000000008009a80                __gnu_Unwind_Restore_VFP_D
                0x0000000008009a88                __gnu_Unwind_Save_VFP_D
                0x0000000008009a90                __gnu_Unwind_Restore_VFP_D_16_to_31
                0x0000000008009a98                __gnu_Unwind_Save_VFP_D_16_to_31
                0x0000000008009aa0                __gnu_Unwind_Restore_WMMXD
                0x0000000008009ae4                __gnu_Unwind_Save_WMMXD
                0x0000000008009b28                __gnu_Unwind_Restore_WMMXC
                0x0000000008009b3c                __gnu_Unwind_Save_WMMXC
                0x0000000008009b50                ___Unwind_RaiseException
                0x0000000008009b50                _Unwind_RaiseException
                0x0000000008009b74                ___Unwind_Resume
                0x0000000008009b74                _Unwind_Resume
                0x0000000008009b98                _Unwind_Resume_or_Rethrow
                0x0000000008009b98                ___Unwind_Resume_or_Rethrow
                0x0000000008009bbc                ___Unwind_ForcedUnwind
                0x0000000008009bbc                _Unwind_ForcedUnwind
                0x0000000008009be0                _Unwind_Backtrace
                0x0000000008009be0                ___Unwind_Backtrace
 .text          0x0000000008009c04      0x384 /opt/gcc-arm/gcc-arm-none-eabi-6_2-2016q4/bin/../lib/gcc/arm-none-eabi/6.2.1/thumb/v7-m/libgcc.a(pr-support.o)
                0x0000000008009c5c                __gnu_unwind_execute
                0x0000000008009f2c                __gnu_unwind_frame
                0x0000000008009f58                _Unwind_GetRegionStart
                0x0000000008009f64                _Unwind_GetLanguageSpecificData
                0x0000000008009f78                _Unwind_GetTextRelBase
                0x0000000008009f80                _Unwind_GetDataRelBase
 .text.__errno  0x0000000008009f88        0xc /opt/gcc-arm/gcc-arm-none-eabi-6_2-2016q4/bin/../lib/gcc/arm-none-eabi/6.2.1/../../../../arm-none-eabi/lib/thumb/v7-m/libg.a(lib_a-errno.o)
                0x0000000008009f88                __errno
 .text.__libc_init_array
                0x0000000008009f94       0x50 /opt/gcc-arm/gcc-arm-none-eabi-6_2-2016q4/bin/../lib/gcc/arm-none-eabi/6.2.1/../../../../arm-none-eabi/lib/thumb/v7-m/libg.a(lib_a-init.o)
                0x0000000008009f94                __libc_init_array
 .text.malloc   0x0000000008009fe4       0x10 /opt/gcc-arm/gcc-arm-none-eabi-6_2-2016q4/bin/../lib/gcc/arm-none-eabi/6.2.1/../../../../arm-none-eabi/lib/thumb/v7-m/libg.a(lib_a-malloc.o)
                0x0000000008009fe4                malloc
 .text.free     0x0000000008009ff4       0x10 /opt/gcc-arm/gcc-arm-none-eabi-6_2-2016q4/bin/../lib/gcc/arm-none-eabi/6.2.1/../../../../arm-none-eabi/lib/thumb/v7-m/libg.a(lib_a-malloc.o)
                0x0000000008009ff4                free
 .text._malloc_r
                0x000000000800a004      0x544 /opt/gcc-arm/gcc-arm-none-eabi-6_2-2016q4/bin/../lib/gcc/arm-none-eabi/6.2.1/../../../../arm-none-eabi/lib/thumb/v7-m/libg.a(lib_a-mallocr.o)
                0x000000000800a004                _malloc_r
 .text          0x000000000800a548       0xec /opt/gcc-arm/gcc-arm-none-eabi-6_2-2016q4/bin/../lib/gcc/arm-none-eabi/6.2.1/../../../../arm-none-eabi/lib/thumb/v7-m/libg.a(lib_a-memcpy.o)
                0x000000000800a548                memcpy
 .text.memset   0x000000000800a634       0x9c /opt/gcc-arm/gcc-arm-none-eabi-6_2-2016q4/bin/../lib/gcc/arm-none-eabi/6.2.1/../../../../arm-none-eabi/lib/thumb/v7-m/libg.a(lib_a-memset.o)
                0x000000000800a634                memset
 .text.__malloc_lock
                0x000000000800a6d0        0x4 /opt/gcc-arm/gcc-arm-none-eabi-6_2-2016q4/bin/../lib/gcc/arm-none-eabi/6.2.1/../../../../arm-none-eabi/lib/thumb/v7-m/libg.a(lib_a-mlock.o)
                0x000000000800a6d0                __malloc_lock
 .text.__malloc_unlock
                0x000000000800a6d4        0x4 /opt/gcc-arm/gcc-arm-none-eabi-6_2-2016q4/bin/../lib/gcc/arm-none-eabi/6.2.1/../../../../arm-none-eabi/lib/thumb/v7-m/libg.a(lib_a-mlock.o)
                0x000000000800a6d4                __malloc_unlock
 .text.realloc  0x000000000800a6d8       0x10 /opt/gcc-arm/gcc-arm-none-eabi-6_2-2016q4/bin/../lib/gcc/arm-none-eabi/6.2.1/../../../../arm-none-eabi/lib/thumb/v7-m/libg.a(lib_a-realloc.o)
                0x000000000800a6d8                realloc
 .text._realloc_r
                0x000000000800a6e8      0x36c /opt/gcc-arm/gcc-arm-none-eabi-6_2-2016q4/bin/../lib/gcc/arm-none-eabi/6.2.1/../../../../arm-none-eabi/lib/thumb/v7-m/libg.a(lib_a-reallocr.o)
                0x000000000800a6e8                _realloc_r
 .text._sbrk_r  0x000000000800aa54       0x24 /opt/gcc-arm/gcc-arm-none-eabi-6_2-2016q4/bin/../lib/gcc/arm-none-eabi/6.2.1/../../../../arm-none-eabi/lib/thumb/v7-m/libg.a(lib_a-sbrkr.o)
                0x000000000800aa54                _sbrk_r
 .text          0x000000000800aa78      0x1bc /opt/gcc-arm/gcc-arm-none-eabi-6_2-2016q4/bin/../lib/gcc/arm-none-eabi/6.2.1/../../../../arm-none-eabi/lib/thumb/v7-m/libg.a(lib_a-strcmp.o)
                0x000000000800aa78                strcmp
 .text.strlen   0x000000000800ac34       0x5c /opt/gcc-arm/gcc-arm-none-eabi-6_2-2016q4/bin/../lib/gcc/arm-none-eabi/6.2.1/../../../../arm-none-eabi/lib/thumb/v7-m/libg.a(lib_a-strlen-stub.o)
                0x000000000800ac34                strlen
 .text._malloc_trim_r
                0x000000000800ac90       0xa0 /opt/gcc-arm/gcc-arm-none-eabi-6_2-2016q4/bin/../lib/gcc/arm-none-eabi/6.2.1/../../../../arm-none-eabi/lib/thumb/v7-m/libg.a(lib_a-freer.o)
                0x000000000800ac90                _malloc_trim_r
 .text._free_r  0x000000000800ad30      0x1cc /opt/gcc-arm/gcc-arm-none-eabi-6_2-2016q4/bin/../lib/gcc/arm-none-eabi/6.2.1/../../../../arm-none-eabi/lib/thumb/v7-m/libg.a(lib_a-freer.o)
                0x000000000800ad30                _free_r
 .text.memmove  0x000000000800aefc       0xc8 /opt/gcc-arm/gcc-arm-none-eabi-6_2-2016q4/bin/../lib/gcc/arm-none-eabi/6.2.1/../../../../arm-none-eabi/lib/thumb/v7-m/libg.a(lib_a-memmove.o)
                0x000000000800aefc                memmove
 *(.init)
 *(.fini)
 *(.gnu.linkonce.t.*)
 *(.glue_7)
 .glue_7        0x000000000800afc4        0x0 linker stubs
 *(.glue_7t)
 .glue_7t       0x000000000800afc4        0x0 linker stubs
 *(.vfp11_veneer)
 .vfp11_veneer  0x000000000800afc4        0x0 linker stubs
 *(.janus_2cc_veneer)
 *(.v4_bx)
 .v4_bx         0x000000000800afc4        0x0 linker stubs
 *(.gcc_except_table)
 *(.rodata .rodata.*)
 .rodata._ZTSN3ros3MsgE
                0x000000000800afc4        0xb ./src/main.o
                0x000000000800afc4                typeinfo name for ros::Msg
 *fill*         0x000000000800afcf        0x1 
 .rodata._ZTIN3ros3MsgE
                0x000000000800afd0        0x8 ./src/main.o
                0x000000000800afd0                typeinfo for ros::Msg
 .rodata._ZTSN8std_msgs4TimeE
                0x000000000800afd8       0x11 ./src/main.o
                0x000000000800afd8                typeinfo name for std_msgs::Time
 *fill*         0x000000000800afe9        0x3 
 .rodata._ZTIN8std_msgs4TimeE
                0x000000000800afec        0xc ./src/main.o
                0x000000000800afec                typeinfo for std_msgs::Time
 .rodata._ZTSN14rosserial_msgs9TopicInfoE
                0x000000000800aff8       0x1d ./src/main.o
                0x000000000800aff8                typeinfo name for rosserial_msgs::TopicInfo
 *fill*         0x000000000800b015        0x3 
 .rodata._ZTIN14rosserial_msgs9TopicInfoE
                0x000000000800b018        0xc ./src/main.o
                0x000000000800b018                typeinfo for rosserial_msgs::TopicInfo
 .rodata._ZTSN14rosserial_msgs3LogE
                0x000000000800b024       0x17 ./src/main.o
                0x000000000800b024                typeinfo name for rosserial_msgs::Log
 *fill*         0x000000000800b03b        0x1 
 .rodata._ZTIN14rosserial_msgs3LogE
                0x000000000800b03c        0xc ./src/main.o
                0x000000000800b03c                typeinfo for rosserial_msgs::Log
 .rodata._ZTSN14rosserial_msgs20RequestParamResponseE
                0x000000000800b048       0x29 ./src/main.o
                0x000000000800b048                typeinfo name for rosserial_msgs::RequestParamResponse
 *fill*         0x000000000800b071        0x3 
 .rodata._ZTIN14rosserial_msgs20RequestParamResponseE
                0x000000000800b074        0xc ./src/main.o
                0x000000000800b074                typeinfo for rosserial_msgs::RequestParamResponse
 .rodata._ZTSN3ros15NodeHandleBase_E
                0x000000000800b080       0x18 ./src/main.o
                0x000000000800b080                typeinfo name for ros::NodeHandleBase_
 .rodata._ZTIN3ros15NodeHandleBase_E
                0x000000000800b098        0x8 ./src/main.o
                0x000000000800b098                typeinfo for ros::NodeHandleBase_
 .rodata._ZTSN3ros11Subscriber_E
                0x000000000800b0a0       0x14 ./src/main.o
                0x000000000800b0a0                typeinfo name for ros::Subscriber_
 .rodata._ZTIN3ros11Subscriber_E
                0x000000000800b0b4        0x8 ./src/main.o
                0x000000000800b0b4                typeinfo for ros::Subscriber_
 .rodata._ZTSN8std_msgs19MultiArrayDimensionE
                0x000000000800b0bc       0x21 ./src/main.o
                0x000000000800b0bc                typeinfo name for std_msgs::MultiArrayDimension
 *fill*         0x000000000800b0dd        0x3 
 .rodata._ZTIN8std_msgs19MultiArrayDimensionE
                0x000000000800b0e0        0xc ./src/main.o
                0x000000000800b0e0                typeinfo for std_msgs::MultiArrayDimension
 .rodata._ZTSN8std_msgs16MultiArrayLayoutE
                0x000000000800b0ec       0x1e ./src/main.o
                0x000000000800b0ec                typeinfo name for std_msgs::MultiArrayLayout
 *fill*         0x000000000800b10a        0x2 
 .rodata._ZTIN8std_msgs16MultiArrayLayoutE
                0x000000000800b10c        0xc ./src/main.o
                0x000000000800b10c                typeinfo for std_msgs::MultiArrayLayout
 .rodata._ZTSN8std_msgs17Float32MultiArrayE
                0x000000000800b118       0x1f ./src/main.o
                0x000000000800b118                typeinfo name for std_msgs::Float32MultiArray
 *fill*         0x000000000800b137        0x1 
 .rodata._ZTIN8std_msgs17Float32MultiArrayE
                0x000000000800b138        0xc ./src/main.o
                0x000000000800b138                typeinfo for std_msgs::Float32MultiArray
 .rodata._ZTSN8std_msgs6HeaderE
                0x000000000800b144       0x13 ./src/main.o
                0x000000000800b144                typeinfo name for std_msgs::Header
 *fill*         0x000000000800b157        0x1 
 .rodata._ZTIN8std_msgs6HeaderE
                0x000000000800b158        0xc ./src/main.o
                0x000000000800b158                typeinfo for std_msgs::Header
 .rodata._ZTSN12roberto_msgs10MotorStateE
                0x000000000800b164       0x1d ./src/main.o
                0x000000000800b164                typeinfo name for roberto_msgs::MotorState
 *fill*         0x000000000800b181        0x3 
 .rodata._ZTIN12roberto_msgs10MotorStateE
                0x000000000800b184        0xc ./src/main.o
                0x000000000800b184                typeinfo for roberto_msgs::MotorState
 .rodata._ZTSN3ros11NodeHandle_I13STM32HardwareLi25ELi25ELi1024ELi1024EEE
                0x000000000800b190       0x3d ./src/main.o
                0x000000000800b190                typeinfo name for ros::NodeHandle_<STM32Hardware, 25, 25, 1024, 1024>
 *fill*         0x000000000800b1cd        0x3 
 .rodata._ZTIN3ros11NodeHandle_I13STM32HardwareLi25ELi25ELi1024ELi1024EEE
                0x000000000800b1d0        0xc ./src/main.o
                0x000000000800b1d0                typeinfo for ros::NodeHandle_<STM32Hardware, 25, 25, 1024, 1024>
 .rodata._ZTSN3ros10SubscriberIN12roberto_msgs10MotorStateEEE
                0x000000000800b1dc       0x31 ./src/main.o
                0x000000000800b1dc                typeinfo name for ros::Subscriber<roberto_msgs::MotorState>
 *fill*         0x000000000800b20d        0x3 
 .rodata._ZTIN3ros10SubscriberIN12roberto_msgs10MotorStateEEE
                0x000000000800b210        0xc ./src/main.o
                0x000000000800b210                typeinfo for ros::Subscriber<roberto_msgs::MotorState>
 .rodata._ZTVN8std_msgs4TimeE
                0x000000000800b21c       0x18 ./src/main.o
                0x000000000800b21c                vtable for std_msgs::Time
 .rodata._ZTVN14rosserial_msgs9TopicInfoE
                0x000000000800b234       0x18 ./src/main.o
                0x000000000800b234                vtable for rosserial_msgs::TopicInfo
 .rodata._ZTVN14rosserial_msgs3LogE
                0x000000000800b24c       0x18 ./src/main.o
                0x000000000800b24c                vtable for rosserial_msgs::Log
 .rodata._ZTVN14rosserial_msgs20RequestParamResponseE
                0x000000000800b264       0x18 ./src/main.o
                0x000000000800b264                vtable for rosserial_msgs::RequestParamResponse
 .rodata._ZTVN8std_msgs19MultiArrayDimensionE
                0x000000000800b27c       0x18 ./src/main.o
                0x000000000800b27c                vtable for std_msgs::MultiArrayDimension
 .rodata._ZTVN8std_msgs16MultiArrayLayoutE
                0x000000000800b294       0x18 ./src/main.o
                0x000000000800b294                vtable for std_msgs::MultiArrayLayout
 .rodata._ZTVN8std_msgs17Float32MultiArrayE
                0x000000000800b2ac       0x18 ./src/main.o
                0x000000000800b2ac                vtable for std_msgs::Float32MultiArray
 .rodata._ZTVN8std_msgs6HeaderE
                0x000000000800b2c4       0x18 ./src/main.o
                0x000000000800b2c4                vtable for std_msgs::Header
 .rodata._ZTVN12roberto_msgs10MotorStateE
                0x000000000800b2dc       0x18 ./src/main.o
                0x000000000800b2dc                vtable for roberto_msgs::MotorState
 .rodata._ZTVN3ros11NodeHandle_I13STM32HardwareLi25ELi25ELi1024ELi1024EEE
                0x000000000800b2f4       0x14 ./src/main.o
                0x000000000800b2f4                vtable for ros::NodeHandle_<STM32Hardware, 25, 25, 1024, 1024>
 .rodata._ZTVN3ros10SubscriberIN12roberto_msgs10MotorStateEEE
                0x000000000800b308       0x18 ./src/main.o
                0x000000000800b308                vtable for ros::Subscriber<roberto_msgs::MotorState>
 .rodata        0x000000000800b320       0x2c ./src/main.o
 .rodata._ZN12roberto_msgs10MotorState6getMD5Ev.str1.1
                0x000000000800b34c       0x21 ./src/main.o
 .rodata._ZN12roberto_msgs10MotorState7getTypeEv.str1.1
                0x000000000800b36d       0x18 ./src/main.o
 .rodata._ZN14rosserial_msgs20RequestParamResponse6getMD5Ev.str1.1
                0x000000000800b385       0x21 ./src/main.o
 .rodata._ZN14rosserial_msgs3Log6getMD5Ev.str1.1
                0x000000000800b3a6       0x21 ./src/main.o
 .rodata._ZN14rosserial_msgs3Log7getTypeEv.str1.1
                0x000000000800b3c7       0x13 ./src/main.o
 .rodata._ZN14rosserial_msgs9TopicInfo6getMD5Ev.str1.1
                0x000000000800b3da       0x21 ./src/main.o
 .rodata._ZN14rosserial_msgs9TopicInfo7getTypeEv.str1.1
                0x000000000800b3fb       0x19 ./src/main.o
 .rodata._ZN3ros11NodeHandle_I13STM32HardwareLi25ELi25ELi1024ELi1024EE15negotiateTopicsEv.str1.1
                0x000000000800b414       0x19 ./src/main.o
                                          0x1 (size before relaxing)
 .rodata._ZN3ros11NodeHandle_I13STM32HardwareLi25ELi25ELi1024ELi1024EE7publishEiPKNS_3MsgE.str1.1
                0x000000000800b414       0x39 ./src/main.o
 .rodata._ZN8std_msgs16MultiArrayLayout6getMD5Ev.str1.1
                0x000000000800b44d       0x21 ./src/main.o
 .rodata._ZN8std_msgs16MultiArrayLayout7getTypeEv.str1.1
                0x000000000800b46e       0x1a ./src/main.o
 .rodata._ZN8std_msgs17Float32MultiArray6getMD5Ev.str1.1
                0x000000000800b488       0x21 ./src/main.o
 .rodata._ZN8std_msgs17Float32MultiArray7getTypeEv.str1.1
                0x000000000800b4a9       0x1b ./src/main.o
 .rodata._ZN8std_msgs19MultiArrayDimension6getMD5Ev.str1.1
                0x000000000800b4c4       0x21 ./src/main.o
 .rodata._ZN8std_msgs19MultiArrayDimension7getTypeEv.str1.1
                0x000000000800b4e5       0x1d ./src/main.o
 .rodata._ZN8std_msgs4Time6getMD5Ev.str1.1
                0x000000000800b502       0x21 ./src/main.o
 .rodata._ZN8std_msgs4Time7getTypeEv.str1.1
                0x000000000800b523        0xe ./src/main.o
 .rodata._ZN8std_msgs6Header6getMD5Ev.str1.1
                0x000000000800b531       0x21 ./src/main.o
 .rodata._ZN8std_msgs6Header7getTypeEv.str1.1
                0x000000000800b552       0x10 ./src/main.o
 .rodata.str1.1
                0x000000000800b562       0x5a ./src/main.o
 .rodata        0x000000000800b5bc       0x38 ./src/motor.o
                0x000000000800b5bc                vtable for motor
                0x000000000800b5e4                typeinfo name for motor
                0x000000000800b5ec                typeinfo for motor
 .rodata        0x000000000800b5f4       0x54 ./src/servo.o
                0x000000000800b5f4                vtable for servo
                0x000000000800b634                typeinfo name for servo
                0x000000000800b63c                typeinfo for servo
 .rodata        0x000000000800b648       0x40 ./src/DCMotor.o
                0x000000000800b648                vtable for DCMotor
                0x000000000800b670                typeinfo name for DCMotor
                0x000000000800b67c                typeinfo for DCMotor
 .rodata._ZTIN10__cxxabiv117__class_type_infoE
                0x000000000800b688        0xc /opt/gcc-arm/gcc-arm-none-eabi-6_2-2016q4/bin/../lib/gcc/arm-none-eabi/6.2.1/../../../../arm-none-eabi/lib/thumb/v7-m/libstdc++.a(class_type_info.o)
                0x000000000800b688                typeinfo for __cxxabiv1::__class_type_info
 .rodata._ZTSN10__cxxabiv117__class_type_infoE
                0x000000000800b694       0x22 /opt/gcc-arm/gcc-arm-none-eabi-6_2-2016q4/bin/../lib/gcc/arm-none-eabi/6.2.1/../../../../arm-none-eabi/lib/thumb/v7-m/libstdc++.a(class_type_info.o)
                0x000000000800b694                typeinfo name for __cxxabiv1::__class_type_info
 *fill*         0x000000000800b6b6        0x2 
 .rodata._ZTVN10__cxxabiv117__class_type_infoE
                0x000000000800b6b8       0x2c /opt/gcc-arm/gcc-arm-none-eabi-6_2-2016q4/bin/../lib/gcc/arm-none-eabi/6.2.1/../../../../arm-none-eabi/lib/thumb/v7-m/libstdc++.a(class_type_info.o)
                0x000000000800b6b8                vtable for __cxxabiv1::__class_type_info
 .rodata._ZGTtNKSt13bad_exception4whatEv.str1.4
                0x000000000800b6e4       0x13 /opt/gcc-arm/gcc-arm-none-eabi-6_2-2016q4/bin/../lib/gcc/arm-none-eabi/6.2.1/../../../../arm-none-eabi/lib/thumb/v7-m/libstdc++.a(eh_exception.o)
 *fill*         0x000000000800b6f7        0x1 
 .rodata._ZTIN10__cxxabiv115__forced_unwindE
                0x000000000800b6f8        0x8 /opt/gcc-arm/gcc-arm-none-eabi-6_2-2016q4/bin/../lib/gcc/arm-none-eabi/6.2.1/../../../../arm-none-eabi/lib/thumb/v7-m/libstdc++.a(eh_exception.o)
                0x000000000800b6f8                typeinfo for __cxxabiv1::__forced_unwind
 .rodata._ZTIN10__cxxabiv119__foreign_exceptionE
                0x000000000800b700        0x8 /opt/gcc-arm/gcc-arm-none-eabi-6_2-2016q4/bin/../lib/gcc/arm-none-eabi/6.2.1/../../../../arm-none-eabi/lib/thumb/v7-m/libstdc++.a(eh_exception.o)
                0x000000000800b700                typeinfo for __cxxabiv1::__foreign_exception
 .rodata._ZTISt13bad_exception
                0x000000000800b708        0xc /opt/gcc-arm/gcc-arm-none-eabi-6_2-2016q4/bin/../lib/gcc/arm-none-eabi/6.2.1/../../../../arm-none-eabi/lib/thumb/v7-m/libstdc++.a(eh_exception.o)
                0x000000000800b708                typeinfo for std::bad_exception
 .rodata._ZTISt9exception
                0x000000000800b714        0x8 /opt/gcc-arm/gcc-arm-none-eabi-6_2-2016q4/bin/../lib/gcc/arm-none-eabi/6.2.1/../../../../arm-none-eabi/lib/thumb/v7-m/libstdc++.a(eh_exception.o)
                0x000000000800b714                typeinfo for std::exception
 .rodata._ZTSN10__cxxabiv115__forced_unwindE
                0x000000000800b71c       0x20 /opt/gcc-arm/gcc-arm-none-eabi-6_2-2016q4/bin/../lib/gcc/arm-none-eabi/6.2.1/../../../../arm-none-eabi/lib/thumb/v7-m/libstdc++.a(eh_exception.o)
                0x000000000800b71c                typeinfo name for __cxxabiv1::__forced_unwind
 .rodata._ZTSN10__cxxabiv119__foreign_exceptionE
                0x000000000800b73c       0x24 /opt/gcc-arm/gcc-arm-none-eabi-6_2-2016q4/bin/../lib/gcc/arm-none-eabi/6.2.1/../../../../arm-none-eabi/lib/thumb/v7-m/libstdc++.a(eh_exception.o)
                0x000000000800b73c                typeinfo name for __cxxabiv1::__foreign_exception
 .rodata._ZTSSt13bad_exception
                0x000000000800b760       0x12 /opt/gcc-arm/gcc-arm-none-eabi-6_2-2016q4/bin/../lib/gcc/arm-none-eabi/6.2.1/../../../../arm-none-eabi/lib/thumb/v7-m/libstdc++.a(eh_exception.o)
                0x000000000800b760                typeinfo name for std::bad_exception
 *fill*         0x000000000800b772        0x2 
 .rodata._ZTSSt9exception
                0x000000000800b774        0xd /opt/gcc-arm/gcc-arm-none-eabi-6_2-2016q4/bin/../lib/gcc/arm-none-eabi/6.2.1/../../../../arm-none-eabi/lib/thumb/v7-m/libstdc++.a(eh_exception.o)
                0x000000000800b774                typeinfo name for std::exception
 *fill*         0x000000000800b781        0x3 
 .rodata._ZTVSt13bad_exception
                0x000000000800b784       0x14 /opt/gcc-arm/gcc-arm-none-eabi-6_2-2016q4/bin/../lib/gcc/arm-none-eabi/6.2.1/../../../../arm-none-eabi/lib/thumb/v7-m/libstdc++.a(eh_exception.o)
                0x000000000800b784                vtable for std::bad_exception
 .rodata._ZTIN10__cxxabiv120__si_class_type_infoE
                0x000000000800b798        0xc /opt/gcc-arm/gcc-arm-none-eabi-6_2-2016q4/bin/../lib/gcc/arm-none-eabi/6.2.1/../../../../arm-none-eabi/lib/thumb/v7-m/libstdc++.a(si_class_type_info.o)
                0x000000000800b798                typeinfo for __cxxabiv1::__si_class_type_info
 .rodata._ZTSN10__cxxabiv120__si_class_type_infoE
                0x000000000800b7a4       0x25 /opt/gcc-arm/gcc-arm-none-eabi-6_2-2016q4/bin/../lib/gcc/arm-none-eabi/6.2.1/../../../../arm-none-eabi/lib/thumb/v7-m/libstdc++.a(si_class_type_info.o)
                0x000000000800b7a4                typeinfo name for __cxxabiv1::__si_class_type_info
 *fill*         0x000000000800b7c9        0x3 
 .rodata._ZTVN10__cxxabiv120__si_class_type_infoE
                0x000000000800b7cc       0x2c /opt/gcc-arm/gcc-arm-none-eabi-6_2-2016q4/bin/../lib/gcc/arm-none-eabi/6.2.1/../../../../arm-none-eabi/lib/thumb/v7-m/libstdc++.a(si_class_type_info.o)
                0x000000000800b7cc                vtable for __cxxabiv1::__si_class_type_info
 .rodata._ZTISt9type_info
                0x000000000800b7f8        0x8 /opt/gcc-arm/gcc-arm-none-eabi-6_2-2016q4/bin/../lib/gcc/arm-none-eabi/6.2.1/../../../../arm-none-eabi/lib/thumb/v7-m/libstdc++.a(tinfo.o)
                0x000000000800b7f8                typeinfo for std::type_info
 .rodata._ZTSSt9type_info
                0x000000000800b800        0xd /opt/gcc-arm/gcc-arm-none-eabi-6_2-2016q4/bin/../lib/gcc/arm-none-eabi/6.2.1/../../../../arm-none-eabi/lib/thumb/v7-m/libstdc++.a(tinfo.o)
                0x000000000800b800                typeinfo name for std::type_info
 *fill*         0x000000000800b80d        0x3 
 .rodata.atanhi
                0x000000000800b810       0x10 /opt/gcc-arm/gcc-arm-none-eabi-6_2-2016q4/bin/../lib/gcc/arm-none-eabi/6.2.1/../../../../arm-none-eabi/lib/thumb/v7-m/libm.a(lib_a-sf_atan.o)
 .rodata.atanlo
                0x000000000800b820       0x10 /opt/gcc-arm/gcc-arm-none-eabi-6_2-2016q4/bin/../lib/gcc/arm-none-eabi/6.2.1/../../../../arm-none-eabi/lib/thumb/v7-m/libm.a(lib_a-sf_atan.o)
 .rodata.sqrt.str1.4
                0x000000000800b830        0x5 /opt/gcc-arm/gcc-arm-none-eabi-6_2-2016q4/bin/../lib/gcc/arm-none-eabi/6.2.1/../../../../arm-none-eabi/lib/thumb/v7-m/libm.a(lib_a-w_sqrt.o)
 *fill*         0x000000000800b835        0x3 
 .rodata.sqrtf.str1.4
                0x000000000800b838        0x8 /opt/gcc-arm/gcc-arm-none-eabi-6_2-2016q4/bin/../lib/gcc/arm-none-eabi/6.2.1/../../../../arm-none-eabi/lib/thumb/v7-m/libm.a(lib_a-wf_sqrt.o)
                                          0x6 (size before relaxing)
 .rodata.npio2_hw
                0x000000000800b840       0x80 /opt/gcc-arm/gcc-arm-none-eabi-6_2-2016q4/bin/../lib/gcc/arm-none-eabi/6.2.1/../../../../arm-none-eabi/lib/thumb/v7-m/libm.a(lib_a-e_rem_pio2.o)
 .rodata.two_over_pi
                0x000000000800b8c0      0x108 /opt/gcc-arm/gcc-arm-none-eabi-6_2-2016q4/bin/../lib/gcc/arm-none-eabi/6.2.1/../../../../arm-none-eabi/lib/thumb/v7-m/libm.a(lib_a-e_rem_pio2.o)
 .rodata.npio2_hw
                0x000000000800b9c8       0x80 /opt/gcc-arm/gcc-arm-none-eabi-6_2-2016q4/bin/../lib/gcc/arm-none-eabi/6.2.1/../../../../arm-none-eabi/lib/thumb/v7-m/libm.a(lib_a-ef_rem_pio2.o)
 .rodata.two_over_pi
                0x000000000800ba48      0x318 /opt/gcc-arm/gcc-arm-none-eabi-6_2-2016q4/bin/../lib/gcc/arm-none-eabi/6.2.1/../../../../arm-none-eabi/lib/thumb/v7-m/libm.a(lib_a-ef_rem_pio2.o)
 .rodata.PIo2   0x000000000800bd60       0x40 /opt/gcc-arm/gcc-arm-none-eabi-6_2-2016q4/bin/../lib/gcc/arm-none-eabi/6.2.1/../../../../arm-none-eabi/lib/thumb/v7-m/libm.a(lib_a-k_rem_pio2.o)
 .rodata.init_jk
                0x000000000800bda0       0x10 /opt/gcc-arm/gcc-arm-none-eabi-6_2-2016q4/bin/../lib/gcc/arm-none-eabi/6.2.1/../../../../arm-none-eabi/lib/thumb/v7-m/libm.a(lib_a-k_rem_pio2.o)
 .rodata.PIo2   0x000000000800bdb0       0x2c /opt/gcc-arm/gcc-arm-none-eabi-6_2-2016q4/bin/../lib/gcc/arm-none-eabi/6.2.1/../../../../arm-none-eabi/lib/thumb/v7-m/libm.a(lib_a-kf_rem_pio2.o)
 .rodata.init_jk
                0x000000000800bddc        0xc /opt/gcc-arm/gcc-arm-none-eabi-6_2-2016q4/bin/../lib/gcc/arm-none-eabi/6.2.1/../../../../arm-none-eabi/lib/thumb/v7-m/libm.a(lib_a-kf_rem_pio2.o)
 *(.ioview .ioview.*)
 *(.gnu.linkonce.r.*)
 *(.ARM.extab* .gnu.linkonce.armextab.*)
 .ARM.extab.text._ZNK8std_msgs4Time9serializeEPh
                0x000000000800bde8        0x0 ./src/main.o
 .ARM.extab.text._ZN8std_msgs4Time11deserializeEPh
                0x000000000800bde8        0x0 ./src/main.o
 .ARM.extab.text._ZN8std_msgs4Time7getTypeEv
                0x000000000800bde8        0x0 ./src/main.o
 .ARM.extab.text._ZN8std_msgs4Time6getMD5Ev
                0x000000000800bde8        0x0 ./src/main.o
 .ARM.extab.text._ZN14rosserial_msgs9TopicInfo11deserializeEPh
                0x000000000800bde8        0x0 ./src/main.o
 .ARM.extab.text._ZN14rosserial_msgs9TopicInfo7getTypeEv
                0x000000000800bde8        0x0 ./src/main.o
 .ARM.extab.text._ZN14rosserial_msgs9TopicInfo6getMD5Ev
                0x000000000800bde8        0x0 ./src/main.o
 .ARM.extab.text._ZN14rosserial_msgs3Log11deserializeEPh
                0x000000000800bde8        0x0 ./src/main.o
 .ARM.extab.text._ZN14rosserial_msgs3Log7getTypeEv
                0x000000000800bde8        0x0 ./src/main.o
 .ARM.extab.text._ZN14rosserial_msgs3Log6getMD5Ev
                0x000000000800bde8        0x0 ./src/main.o
 .ARM.extab.text._ZN14rosserial_msgs20RequestParamResponse7getTypeEv
                0x000000000800bde8        0x0 ./src/main.o
 .ARM.extab.text._ZN14rosserial_msgs20RequestParamResponse6getMD5Ev
                0x000000000800bde8        0x0 ./src/main.o
 .ARM.extab.text._ZN8std_msgs19MultiArrayDimension11deserializeEPh
                0x000000000800bde8        0x0 ./src/main.o
 .ARM.extab.text._ZN8std_msgs19MultiArrayDimension7getTypeEv
                0x000000000800bde8        0x0 ./src/main.o
 .ARM.extab.text._ZN8std_msgs19MultiArrayDimension6getMD5Ev
                0x000000000800bde8        0x0 ./src/main.o
 .ARM.extab.text._ZNK8std_msgs16MultiArrayLayout9serializeEPh
                0x000000000800bde8        0x0 ./src/main.o
 .ARM.extab.text._ZN8std_msgs16MultiArrayLayout7getTypeEv
                0x000000000800bde8        0x0 ./src/main.o
 .ARM.extab.text._ZN8std_msgs16MultiArrayLayout6getMD5Ev
                0x000000000800bde8        0x0 ./src/main.o
 .ARM.extab.text._ZNK8std_msgs17Float32MultiArray9serializeEPh
                0x000000000800bde8        0x0 ./src/main.o
 .ARM.extab.text._ZN8std_msgs17Float32MultiArray7getTypeEv
                0x000000000800bde8        0x0 ./src/main.o
 .ARM.extab.text._ZN8std_msgs17Float32MultiArray6getMD5Ev
                0x000000000800bde8        0x0 ./src/main.o
 .ARM.extab.text._ZN8std_msgs6Header11deserializeEPh
                0x000000000800bde8        0x0 ./src/main.o
 .ARM.extab.text._ZN8std_msgs6Header7getTypeEv
                0x000000000800bde8        0x0 ./src/main.o
 .ARM.extab.text._ZN8std_msgs6Header6getMD5Ev
                0x000000000800bde8        0x0 ./src/main.o
 .ARM.extab.text._ZN12roberto_msgs10MotorState7getTypeEv
                0x000000000800bde8        0x0 ./src/main.o
 .ARM.extab.text._ZN12roberto_msgs10MotorState6getMD5Ev
                0x000000000800bde8        0x0 ./src/main.o
 .ARM.extab.text._ZN3ros11NodeHandle_I13STM32HardwareLi25ELi25ELi1024ELi1024EE9connectedEv
                0x000000000800bde8        0x0 ./src/main.o
 .ARM.extab.text._ZN3ros10SubscriberIN12roberto_msgs10MotorStateEE15getEndpointTypeEv
                0x000000000800bde8        0x0 ./src/main.o
 .ARM.extab.text._ZN3ros10SubscriberIN12roberto_msgs10MotorStateEE10getMsgTypeEv
                0x000000000800bde8        0x0 ./src/main.o
 .ARM.extab.text._ZN3ros10SubscriberIN12roberto_msgs10MotorStateEE9getMsgMD5Ev
                0x000000000800bde8        0x0 ./src/main.o
 .ARM.extab.text._ZNK8std_msgs6Header9serializeEPh
                0x000000000800bde8        0x0 ./src/main.o
 .ARM.extab.text._ZNK8std_msgs19MultiArrayDimension9serializeEPh
                0x000000000800bde8        0x0 ./src/main.o
 .ARM.extab.text._ZNK14rosserial_msgs20RequestParamResponse9serializeEPh
                0x000000000800bde8        0x0 ./src/main.o
 .ARM.extab.text._ZNK14rosserial_msgs3Log9serializeEPh
                0x000000000800bde8        0x0 ./src/main.o
 .ARM.extab.text._ZNK14rosserial_msgs9TopicInfo9serializeEPh
                0x000000000800bde8        0x0 ./src/main.o
 .ARM.extab.text._ZN14rosserial_msgs20RequestParamResponse11deserializeEPh
                0x000000000800bde8        0x0 ./src/main.o
 .ARM.extab.text._ZN8std_msgs16MultiArrayLayout11deserializeEPh
                0x000000000800bde8        0x0 ./src/main.o
 .ARM.extab.text._ZN8std_msgs17Float32MultiArray11deserializeEPh
                0x000000000800bde8        0x0 ./src/main.o
 .ARM.extab     0x000000000800bde8       0x18 ./src/main.o
 .ARM.extab.text._ZN3ros11NodeHandle_I13STM32HardwareLi25ELi25ELi1024ELi1024EE7publishEiPKNS_3MsgE
                0x000000000800be00        0x0 ./src/main.o
 .ARM.extab.text._ZN3ros3Msg19serializeAvrFloat64EPhf
                0x000000000800be00        0x0 ./src/main.o
 .ARM.extab.text._ZNK12roberto_msgs10MotorState9serializeEPh
                0x000000000800be00        0x0 ./src/main.o
 .ARM.extab.text._ZN3ros3Msg21deserializeAvrFloat64EPKhPf
                0x000000000800be00        0x0 ./src/main.o
 .ARM.extab.text._ZN12roberto_msgs10MotorState11deserializeEPh
                0x000000000800be00        0x0 ./src/main.o
 .ARM.extab.text._ZN3ros10SubscriberIN12roberto_msgs10MotorStateEE8callbackEPh
                0x000000000800be00        0x0 ./src/main.o
 .ARM.extab.text._ZN3ros9Publisher7publishEPKNS_3MsgE
                0x000000000800be00        0x0 ./src/main.o
 .ARM.extab.text._ZN15UsartWithBufferC2Ei
                0x000000000800be00        0x0 ./src/main.o
 .ARM.extab.text._ZN3ros11NodeHandle_I13STM32HardwareLi25ELi25ELi1024ELi1024EE15requestSyncTimeEv
                0x000000000800be00        0x0 ./src/main.o
 .ARM.extab.text._ZN3ros11NodeHandle_I13STM32HardwareLi25ELi25ELi1024ELi1024EE15negotiateTopicsEv
                0x000000000800be00        0x0 ./src/main.o
 .ARM.extab.text._ZN3ros11NodeHandle_I13STM32HardwareLi25ELi25ELi1024ELi1024EE8syncTimeEPh
                0x000000000800be00        0x0 ./src/main.o
 .ARM.extab.text._ZN3ros11NodeHandle_I13STM32HardwareLi25ELi25ELi1024ELi1024EE8spinOnceEv
                0x000000000800be00        0x0 ./src/main.o
 .ARM.extab.text.startup
                0x000000000800be00       0x1a ./src/main.o
 *fill*         0x000000000800be1a        0x2 
 .ARM.extab     0x000000000800be1c       0x20 ./src/motor.o
 .ARM.extab.text._ZN5servo9motorTypeEv
                0x000000000800be3c        0x0 ./src/servo.o
 .ARM.extab.text._ZN7DCMotor9motorTypeEv
                0x000000000800be3c        0x0 ./src/DCMotor.o
 .ARM.extab.text._ZL21base_of_encoded_valuehP15_Unwind_Context
                0x000000000800be3c        0xc /opt/gcc-arm/gcc-arm-none-eabi-6_2-2016q4/bin/../lib/gcc/arm-none-eabi/6.2.1/../../../../arm-none-eabi/lib/thumb/v7-m/libstdc++.a(eh_personality.o)
 .ARM.extab.text.__gxx_personality_v0
                0x000000000800be48       0x20 /opt/gcc-arm/gcc-arm-none-eabi-6_2-2016q4/bin/../lib/gcc/arm-none-eabi/6.2.1/../../../../arm-none-eabi/lib/thumb/v7-m/libstdc++.a(eh_personality.o)
 .ARM.extab.text._ZN10__cxxabiv111__terminateEPFvvE
                0x000000000800be68       0x2c /opt/gcc-arm/gcc-arm-none-eabi-6_2-2016q4/bin/../lib/gcc/arm-none-eabi/6.2.1/../../../../arm-none-eabi/lib/thumb/v7-m/libstdc++.a(eh_terminate.o)
 .ARM.extab.text._ZN10__cxxabiv112__unexpectedEPFvvE
                0x000000000800be94        0xc /opt/gcc-arm/gcc-arm-none-eabi-6_2-2016q4/bin/../lib/gcc/arm-none-eabi/6.2.1/../../../../arm-none-eabi/lib/thumb/v7-m/libstdc++.a(eh_terminate.o)
 .ARM.extab.text._ZSt10unexpectedv
                0x000000000800bea0        0xc /opt/gcc-arm/gcc-arm-none-eabi-6_2-2016q4/bin/../lib/gcc/arm-none-eabi/6.2.1/../../../../arm-none-eabi/lib/thumb/v7-m/libstdc++.a(eh_terminate.o)
 .ARM.extab.text.__cxa_call_unexpected
                0x000000000800beac       0x28 /opt/gcc-arm/gcc-arm-none-eabi-6_2-2016q4/bin/../lib/gcc/arm-none-eabi/6.2.1/../../../../arm-none-eabi/lib/thumb/v7-m/libstdc++.a(eh_call.o)
 .ARM.extab.text.__cxa_begin_catch
                0x000000000800bed4        0xc /opt/gcc-arm/gcc-arm-none-eabi-6_2-2016q4/bin/../lib/gcc/arm-none-eabi/6.2.1/../../../../arm-none-eabi/lib/thumb/v7-m/libstdc++.a(eh_catch.o)
 .ARM.extab     0x000000000800bee0       0x18 /opt/gcc-arm/gcc-arm-none-eabi-6_2-2016q4/bin/../lib/gcc/arm-none-eabi/6.2.1/thumb/v7-m/libgcc.a(pr-support.o)
                0x000000000800bef8                . = ALIGN (0x4)

.iplt           0x000000000800bef8        0x0
 .iplt          0x000000000800bef8        0x0 ./src/f1/startup_stm32f103xb.o

.ctors          0x000000000800bef8        0x0
                [!provide]                        PROVIDE (__ctors_start__, .)
 *(SORT(.ctors.*))
 *(.ctors)
                0x000000000800bef8                . = ALIGN (0x4)
                [!provide]                        PROVIDE (__ctors_end__, .)
                0x000000000800bef8                . = ALIGN (0x4)

.dtors          0x000000000800bef8        0x0
                [!provide]                        PROVIDE (__dtors_start__, .)
 *(SORT(.dtors.*))
 *(.dtors)
                0x000000000800bef8                . = ALIGN (0x4)
                [!provide]                        PROVIDE (__dtors_end__, .)
                0x000000000800bef8                . = ALIGN (0x4)
                0x000000000800bef8                . = ALIGN (0x4)

.eh_frame_hdr
 *(.eh_frame_hdr)

.eh_frame
 *(.eh_frame)
                0x000000000800bef8                PROVIDE (__exidx_start, .)

.ARM.exidx      0x000000000800bef8      0x270
 *(.ARM.exidx* .gnu.linkonce.armexidx.*)
 .ARM.exidx.text._ZNK8std_msgs4Time9serializeEPh
                0x000000000800bf28        0x0 ./src/main.o
                                          0x8 (size before relaxing)
 .ARM.exidx.text._ZN8std_msgs4Time11deserializeEPh
                0x000000000800bf28        0x0 ./src/main.o
                                          0x8 (size before relaxing)
 .ARM.exidx.text._ZN8std_msgs4Time7getTypeEv
                0x000000000800bf28        0x0 ./src/main.o
                                          0x8 (size before relaxing)
 .ARM.exidx.text._ZN8std_msgs4Time6getMD5Ev
                0x000000000800bf28        0x0 ./src/main.o
                                          0x8 (size before relaxing)
 .ARM.exidx.text._ZN14rosserial_msgs9TopicInfo11deserializeEPh
                0x000000000800bf28        0x0 ./src/main.o
                                          0x8 (size before relaxing)
 .ARM.exidx.text._ZN14rosserial_msgs9TopicInfo7getTypeEv
                0x000000000800bf28        0x0 ./src/main.o
                                          0x8 (size before relaxing)
 .ARM.exidx.text._ZN14rosserial_msgs9TopicInfo6getMD5Ev
                0x000000000800bf28        0x0 ./src/main.o
                                          0x8 (size before relaxing)
 .ARM.exidx.text._ZN14rosserial_msgs3Log11deserializeEPh
                0x000000000800bf28        0x0 ./src/main.o
                                          0x8 (size before relaxing)
 .ARM.exidx.text._ZN14rosserial_msgs3Log7getTypeEv
                0x000000000800bf28        0x0 ./src/main.o
                                          0x8 (size before relaxing)
 .ARM.exidx.text._ZN14rosserial_msgs3Log6getMD5Ev
                0x000000000800bf28        0x0 ./src/main.o
                                          0x8 (size before relaxing)
 .ARM.exidx.text._ZN14rosserial_msgs20RequestParamResponse7getTypeEv
                0x000000000800bf28        0x0 ./src/main.o
                                          0x8 (size before relaxing)
 .ARM.exidx.text._ZN14rosserial_msgs20RequestParamResponse6getMD5Ev
                0x000000000800bf28        0x0 ./src/main.o
                                          0x8 (size before relaxing)
 .ARM.exidx.text._ZN8std_msgs19MultiArrayDimension11deserializeEPh
                0x000000000800bf28        0x0 ./src/main.o
                                          0x8 (size before relaxing)
 .ARM.exidx.text._ZN8std_msgs19MultiArrayDimension7getTypeEv
                0x000000000800bf28        0x0 ./src/main.o
                                          0x8 (size before relaxing)
 .ARM.exidx.text._ZN8std_msgs19MultiArrayDimension6getMD5Ev
                0x000000000800bf28        0x0 ./src/main.o
                                          0x8 (size before relaxing)
 .ARM.exidx.text._ZNK8std_msgs16MultiArrayLayout9serializeEPh
                0x000000000800bf28        0x8 ./src/main.o
 .ARM.exidx.text._ZN8std_msgs16MultiArrayLayout7getTypeEv
                0x000000000800bf30        0x8 ./src/main.o
 .ARM.exidx.text._ZN8std_msgs16MultiArrayLayout6getMD5Ev
                0x000000000800bf38        0x0 ./src/main.o
                                          0x8 (size before relaxing)
 .ARM.exidx.text._ZNK8std_msgs17Float32MultiArray9serializeEPh
                0x000000000800bf38        0x8 ./src/main.o
 .ARM.exidx.text._ZN8std_msgs17Float32MultiArray7getTypeEv
                0x000000000800bf40        0x8 ./src/main.o
 .ARM.exidx.text._ZN8std_msgs17Float32MultiArray6getMD5Ev
                0x000000000800bf48        0x0 ./src/main.o
                                          0x8 (size before relaxing)
 .ARM.exidx.text._ZN8std_msgs6Header11deserializeEPh
                0x000000000800bf48        0x0 ./src/main.o
                                          0x8 (size before relaxing)
 .ARM.exidx.text._ZN8std_msgs6Header7getTypeEv
                0x000000000800bf48        0x0 ./src/main.o
                                          0x8 (size before relaxing)
 .ARM.exidx.text._ZN8std_msgs6Header6getMD5Ev
                0x000000000800bf48        0x0 ./src/main.o
                                          0x8 (size before relaxing)
 .ARM.exidx.text._ZN12roberto_msgs10MotorState7getTypeEv
                0x000000000800bf48        0x0 ./src/main.o
                                          0x8 (size before relaxing)
 .ARM.exidx.text._ZN12roberto_msgs10MotorState6getMD5Ev
                0x000000000800bf48        0x0 ./src/main.o
                                          0x8 (size before relaxing)
 .ARM.exidx.text._ZN3ros11NodeHandle_I13STM32HardwareLi25ELi25ELi1024ELi1024EE9connectedEv
                0x000000000800bf48        0x0 ./src/main.o
                                          0x8 (size before relaxing)
 .ARM.exidx.text._ZN3ros10SubscriberIN12roberto_msgs10MotorStateEE15getEndpointTypeEv
                0x000000000800bf48        0x0 ./src/main.o
                                          0x8 (size before relaxing)
 .ARM.exidx.text._ZN3ros10SubscriberIN12roberto_msgs10MotorStateEE10getMsgTypeEv
                0x000000000800bf48        0x0 ./src/main.o
                                          0x8 (size before relaxing)
 .ARM.exidx.text._ZN3ros10SubscriberIN12roberto_msgs10MotorStateEE9getMsgMD5Ev
                0x000000000800bf48        0x0 ./src/main.o
                                          0x8 (size before relaxing)
 .ARM.exidx.text._ZNK8std_msgs6Header9serializeEPh
                0x000000000800bf48        0x0 ./src/main.o
                                          0x8 (size before relaxing)
 .ARM.exidx.text._ZNK8std_msgs19MultiArrayDimension9serializeEPh
                0x000000000800bf48        0x0 ./src/main.o
                                          0x8 (size before relaxing)
 .ARM.exidx.text._ZNK14rosserial_msgs20RequestParamResponse9serializeEPh
                0x000000000800bf48        0x0 ./src/main.o
                                          0x8 (size before relaxing)
 .ARM.exidx.text._ZNK14rosserial_msgs3Log9serializeEPh
                0x000000000800bf48        0x0 ./src/main.o
                                          0x8 (size before relaxing)
 .ARM.exidx.text._ZNK14rosserial_msgs9TopicInfo9serializeEPh
                0x000000000800bf48        0x0 ./src/main.o
                                          0x8 (size before relaxing)
 .ARM.exidx.text._ZN14rosserial_msgs20RequestParamResponse11deserializeEPh
                0x000000000800bf48        0x0 ./src/main.o
                                          0x8 (size before relaxing)
 .ARM.exidx.text._ZN8std_msgs16MultiArrayLayout11deserializeEPh
                0x000000000800bf48        0x0 ./src/main.o
                                          0x8 (size before relaxing)
 .ARM.exidx.text._ZN8std_msgs17Float32MultiArray11deserializeEPh
                0x000000000800bf48        0x0 ./src/main.o
                                          0x8 (size before relaxing)
 .ARM.exidx     0x000000000800bef8       0x30 ./src/main.o
 .ARM.exidx.text._ZN3ros11NodeHandle_I13STM32HardwareLi25ELi25ELi1024ELi1024EE7publishEiPKNS_3MsgE
                0x000000000800bf48        0x8 ./src/main.o
 .ARM.exidx.text._ZN3ros3Msg19serializeAvrFloat64EPhf
                0x000000000800bf50        0x8 ./src/main.o
 .ARM.exidx.text._ZNK12roberto_msgs10MotorState9serializeEPh
                0x000000000800bf58        0x0 ./src/main.o
                                          0x8 (size before relaxing)
 .ARM.exidx.text._ZN3ros3Msg21deserializeAvrFloat64EPKhPf
                0x000000000800bf58        0x0 ./src/main.o
                                          0x8 (size before relaxing)
 .ARM.exidx.text._ZN12roberto_msgs10MotorState11deserializeEPh
                0x000000000800bf58        0x0 ./src/main.o
                                          0x8 (size before relaxing)
 .ARM.exidx.text._ZN3ros10SubscriberIN12roberto_msgs10MotorStateEE8callbackEPh
                0x000000000800bf58        0x0 ./src/main.o
                                          0x8 (size before relaxing)
 .ARM.exidx.text._ZN3ros9Publisher7publishEPKNS_3MsgE
                0x000000000800bf58        0x0 ./src/main.o
                                          0x8 (size before relaxing)
 .ARM.exidx.text._ZN15UsartWithBufferC2Ei
                0x000000000800bf58        0x8 ./src/main.o
 .ARM.exidx.text._ZN3ros11NodeHandle_I13STM32HardwareLi25ELi25ELi1024ELi1024EE15requestSyncTimeEv
                0x000000000800bf60        0x8 ./src/main.o
 .ARM.exidx.text._ZN3ros11NodeHandle_I13STM32HardwareLi25ELi25ELi1024ELi1024EE15negotiateTopicsEv
                0x000000000800bf68        0x8 ./src/main.o
 .ARM.exidx.text._ZN3ros11NodeHandle_I13STM32HardwareLi25ELi25ELi1024ELi1024EE8syncTimeEPh
                0x000000000800bf70        0x8 ./src/main.o
 .ARM.exidx.text._ZN3ros11NodeHandle_I13STM32HardwareLi25ELi25ELi1024ELi1024EE8spinOnceEv
                0x000000000800bf78        0x8 ./src/main.o
 .ARM.exidx.text.startup
                0x000000000800bf80       0x10 ./src/main.o
 .ARM.exidx     0x000000000800bf90       0x10 ./src/motor.o
                                         0x20 (size before relaxing)
 .ARM.exidx.text._ZN5servo9motorTypeEv
                0x000000000800bfb8        0x0 ./src/servo.o
                                          0x8 (size before relaxing)
 .ARM.exidx     0x000000000800bfa0       0x18 ./src/servo.o
                                         0x48 (size before relaxing)
 .ARM.exidx.text._ZN7DCMotor9motorTypeEv
                0x000000000800bff0        0x8 ./src/DCMotor.o
 .ARM.exidx     0x000000000800bfb8       0x38 ./src/DCMotor.o
                                         0x60 (size before relaxing)
 .ARM.exidx     0x000000000800bff8        0x0 ./src/motorSettings.o
                                         0x20 (size before relaxing)
 .ARM.exidx     0x000000000800bff8        0x8 ./src/LibraryHacks.o
                                         0x78 (size before relaxing)
 .ARM.exidx     0x000000000800c000        0x8 ./lib/ros_lib/time.o
                                         0x20 (size before relaxing)
 .ARM.exidx.text._ZNK10__cxxabiv117__class_type_info11__do_upcastEPKS0_PPv
                0x000000000800c008        0x8 /opt/gcc-arm/gcc-arm-none-eabi-6_2-2016q4/bin/../lib/gcc/arm-none-eabi/6.2.1/../../../../arm-none-eabi/lib/thumb/v7-m/libstdc++.a(class_type_info.o)
 .ARM.exidx.text._ZNK10__cxxabiv117__class_type_info20__do_find_public_srcEiPKvPKS0_S2_
                0x000000000800c010        0x8 /opt/gcc-arm/gcc-arm-none-eabi-6_2-2016q4/bin/../lib/gcc/arm-none-eabi/6.2.1/../../../../arm-none-eabi/lib/thumb/v7-m/libstdc++.a(class_type_info.o)
 .ARM.exidx.text._ZN10__cxxabiv117__class_type_infoD2Ev
                0x000000000800c018        0x0 /opt/gcc-arm/gcc-arm-none-eabi-6_2-2016q4/bin/../lib/gcc/arm-none-eabi/6.2.1/../../../../arm-none-eabi/lib/thumb/v7-m/libstdc++.a(class_type_info.o)
                                          0x8 (size before relaxing)
 .ARM.exidx.text._ZN10__cxxabiv117__class_type_infoD0Ev
                0x000000000800c018        0x0 /opt/gcc-arm/gcc-arm-none-eabi-6_2-2016q4/bin/../lib/gcc/arm-none-eabi/6.2.1/../../../../arm-none-eabi/lib/thumb/v7-m/libstdc++.a(class_type_info.o)
                                          0x8 (size before relaxing)
 .ARM.exidx.text._ZNK10__cxxabiv117__class_type_info11__do_upcastEPKS0_PKvRNS0_15__upcast_resultE
                0x000000000800c018        0x0 /opt/gcc-arm/gcc-arm-none-eabi-6_2-2016q4/bin/../lib/gcc/arm-none-eabi/6.2.1/../../../../arm-none-eabi/lib/thumb/v7-m/libstdc++.a(class_type_info.o)
                                          0x8 (size before relaxing)
 .ARM.exidx.text._ZNK10__cxxabiv117__class_type_info10__do_catchEPKSt9type_infoPPvj
                0x000000000800c018        0x0 /opt/gcc-arm/gcc-arm-none-eabi-6_2-2016q4/bin/../lib/gcc/arm-none-eabi/6.2.1/../../../../arm-none-eabi/lib/thumb/v7-m/libstdc++.a(class_type_info.o)
                                          0x8 (size before relaxing)
 .ARM.exidx.text._ZNK10__cxxabiv117__class_type_info12__do_dyncastEiNS0_10__sub_kindEPKS0_PKvS3_S5_RNS0_16__dyncast_resultE
                0x000000000800c018        0x0 /opt/gcc-arm/gcc-arm-none-eabi-6_2-2016q4/bin/../lib/gcc/arm-none-eabi/6.2.1/../../../../arm-none-eabi/lib/thumb/v7-m/libstdc++.a(class_type_info.o)
                                          0x8 (size before relaxing)
 .ARM.exidx.text.__cxa_type_match
                0x000000000800c018        0x8 /opt/gcc-arm/gcc-arm-none-eabi-6_2-2016q4/bin/../lib/gcc/arm-none-eabi/6.2.1/../../../../arm-none-eabi/lib/thumb/v7-m/libstdc++.a(eh_arm.o)
 .ARM.exidx.text.__cxa_begin_cleanup
                0x000000000800c020        0x8 /opt/gcc-arm/gcc-arm-none-eabi-6_2-2016q4/bin/../lib/gcc/arm-none-eabi/6.2.1/../../../../arm-none-eabi/lib/thumb/v7-m/libstdc++.a(eh_arm.o)
 .ARM.exidx.text.__gnu_end_cleanup
                0x000000000800c028        0x0 /opt/gcc-arm/gcc-arm-none-eabi-6_2-2016q4/bin/../lib/gcc/arm-none-eabi/6.2.1/../../../../arm-none-eabi/lib/thumb/v7-m/libstdc++.a(eh_arm.o)
                                          0x8 (size before relaxing)
 .ARM.exidx.text.__cxa_get_globals_fast
                0x000000000800c028        0x0 /opt/gcc-arm/gcc-arm-none-eabi-6_2-2016q4/bin/../lib/gcc/arm-none-eabi/6.2.1/../../../../arm-none-eabi/lib/thumb/v7-m/libstdc++.a(eh_globals.o)
                                          0x8 (size before relaxing)
 .ARM.exidx.text.__cxa_get_globals
                0x000000000800c028        0x0 /opt/gcc-arm/gcc-arm-none-eabi-6_2-2016q4/bin/../lib/gcc/arm-none-eabi/6.2.1/../../../../arm-none-eabi/lib/thumb/v7-m/libstdc++.a(eh_globals.o)
                                          0x8 (size before relaxing)
 .ARM.exidx.text._ZNSt13bad_exceptionD2Ev
                0x000000000800c028        0x0 /opt/gcc-arm/gcc-arm-none-eabi-6_2-2016q4/bin/../lib/gcc/arm-none-eabi/6.2.1/../../../../arm-none-eabi/lib/thumb/v7-m/libstdc++.a(eh_exception.o)
                                          0x8 (size before relaxing)
 .ARM.exidx.text._ZGTtNKSt13bad_exception4whatEv
                0x000000000800c028        0x0 /opt/gcc-arm/gcc-arm-none-eabi-6_2-2016q4/bin/../lib/gcc/arm-none-eabi/6.2.1/../../../../arm-none-eabi/lib/thumb/v7-m/libstdc++.a(eh_exception.o)
                                          0x8 (size before relaxing)
 .ARM.exidx.text._ZNSt13bad_exceptionD0Ev
                0x000000000800c028        0x0 /opt/gcc-arm/gcc-arm-none-eabi-6_2-2016q4/bin/../lib/gcc/arm-none-eabi/6.2.1/../../../../arm-none-eabi/lib/thumb/v7-m/libstdc++.a(eh_exception.o)
                                          0x8 (size before relaxing)
 .ARM.exidx.text._ZN10__cxxabiv120__si_class_type_infoD2Ev
                0x000000000800c028        0x0 /opt/gcc-arm/gcc-arm-none-eabi-6_2-2016q4/bin/../lib/gcc/arm-none-eabi/6.2.1/../../../../arm-none-eabi/lib/thumb/v7-m/libstdc++.a(si_class_type_info.o)
                                          0x8 (size before relaxing)
 .ARM.exidx.text._ZN10__cxxabiv120__si_class_type_infoD0Ev
                0x000000000800c028        0x0 /opt/gcc-arm/gcc-arm-none-eabi-6_2-2016q4/bin/../lib/gcc/arm-none-eabi/6.2.1/../../../../arm-none-eabi/lib/thumb/v7-m/libstdc++.a(si_class_type_info.o)
                                          0x8 (size before relaxing)
 .ARM.exidx.text._ZNK10__cxxabiv120__si_class_type_info20__do_find_public_srcEiPKvPKNS_17__class_type_infoES2_
                0x000000000800c028        0x0 /opt/gcc-arm/gcc-arm-none-eabi-6_2-2016q4/bin/../lib/gcc/arm-none-eabi/6.2.1/../../../../arm-none-eabi/lib/thumb/v7-m/libstdc++.a(si_class_type_info.o)
                                          0x8 (size before relaxing)
 .ARM.exidx.text._ZNK10__cxxabiv120__si_class_type_info12__do_dyncastEiNS_17__class_type_info10__sub_kindEPKS1_PKvS4_S6_RNS1_16__dyncast_resultE
                0x000000000800c028        0x0 /opt/gcc-arm/gcc-arm-none-eabi-6_2-2016q4/bin/../lib/gcc/arm-none-eabi/6.2.1/../../../../arm-none-eabi/lib/thumb/v7-m/libstdc++.a(si_class_type_info.o)
                                          0x8 (size before relaxing)
 .ARM.exidx.text._ZNK10__cxxabiv120__si_class_type_info11__do_upcastEPKNS_17__class_type_infoEPKvRNS1_15__upcast_resultE
                0x000000000800c028        0x8 /opt/gcc-arm/gcc-arm-none-eabi-6_2-2016q4/bin/../lib/gcc/arm-none-eabi/6.2.1/../../../../arm-none-eabi/lib/thumb/v7-m/libstdc++.a(si_class_type_info.o)
 .ARM.exidx.text._ZdlPvj
                0x000000000800c030        0x8 /opt/gcc-arm/gcc-arm-none-eabi-6_2-2016q4/bin/../lib/gcc/arm-none-eabi/6.2.1/../../../../arm-none-eabi/lib/thumb/v7-m/libstdc++.a(del_ops.o)
 .ARM.exidx.text._ZL28read_encoded_value_with_basehjPKhPj
                0x000000000800c038        0x8 /opt/gcc-arm/gcc-arm-none-eabi-6_2-2016q4/bin/../lib/gcc/arm-none-eabi/6.2.1/../../../../arm-none-eabi/lib/thumb/v7-m/libstdc++.a(eh_personality.o)
 .ARM.exidx.text._ZL21base_of_encoded_valuehP15_Unwind_Context
                0x000000000800c040        0x8 /opt/gcc-arm/gcc-arm-none-eabi-6_2-2016q4/bin/../lib/gcc/arm-none-eabi/6.2.1/../../../../arm-none-eabi/lib/thumb/v7-m/libstdc++.a(eh_personality.o)
 .ARM.exidx.text._ZL17parse_lsda_headerP15_Unwind_ContextPKhP16lsda_header_info
                0x000000000800c048        0x8 /opt/gcc-arm/gcc-arm-none-eabi-6_2-2016q4/bin/../lib/gcc/arm-none-eabi/6.2.1/../../../../arm-none-eabi/lib/thumb/v7-m/libstdc++.a(eh_personality.o)
 .ARM.exidx.text.__gxx_personality_v0
                0x000000000800c050        0x8 /opt/gcc-arm/gcc-arm-none-eabi-6_2-2016q4/bin/../lib/gcc/arm-none-eabi/6.2.1/../../../../arm-none-eabi/lib/thumb/v7-m/libstdc++.a(eh_personality.o)
 .ARM.exidx.text._ZN10__cxxabiv111__terminateEPFvvE
                0x000000000800c058        0x8 /opt/gcc-arm/gcc-arm-none-eabi-6_2-2016q4/bin/../lib/gcc/arm-none-eabi/6.2.1/../../../../arm-none-eabi/lib/thumb/v7-m/libstdc++.a(eh_terminate.o)
 .ARM.exidx.text._ZSt9terminatev
                0x000000000800c060        0x8 /opt/gcc-arm/gcc-arm-none-eabi-6_2-2016q4/bin/../lib/gcc/arm-none-eabi/6.2.1/../../../../arm-none-eabi/lib/thumb/v7-m/libstdc++.a(eh_terminate.o)
 .ARM.exidx.text._ZN10__cxxabiv112__unexpectedEPFvvE
                0x000000000800c068        0x8 /opt/gcc-arm/gcc-arm-none-eabi-6_2-2016q4/bin/../lib/gcc/arm-none-eabi/6.2.1/../../../../arm-none-eabi/lib/thumb/v7-m/libstdc++.a(eh_terminate.o)
 .ARM.exidx.text._ZSt10unexpectedv
                0x000000000800c070        0x8 /opt/gcc-arm/gcc-arm-none-eabi-6_2-2016q4/bin/../lib/gcc/arm-none-eabi/6.2.1/../../../../arm-none-eabi/lib/thumb/v7-m/libstdc++.a(eh_terminate.o)
 .ARM.exidx.text._ZSt13get_terminatev
                0x000000000800c078        0x8 /opt/gcc-arm/gcc-arm-none-eabi-6_2-2016q4/bin/../lib/gcc/arm-none-eabi/6.2.1/../../../../arm-none-eabi/lib/thumb/v7-m/libstdc++.a(eh_terminate.o)
 .ARM.exidx.text._ZSt14get_unexpectedv
                0x000000000800c080        0x0 /opt/gcc-arm/gcc-arm-none-eabi-6_2-2016q4/bin/../lib/gcc/arm-none-eabi/6.2.1/../../../../arm-none-eabi/lib/thumb/v7-m/libstdc++.a(eh_terminate.o)
                                          0x8 (size before relaxing)
 .ARM.exidx.text._ZNSt9type_infoD2Ev
                0x000000000800c080        0x0 /opt/gcc-arm/gcc-arm-none-eabi-6_2-2016q4/bin/../lib/gcc/arm-none-eabi/6.2.1/../../../../arm-none-eabi/lib/thumb/v7-m/libstdc++.a(tinfo.o)
                                          0x8 (size before relaxing)
 .ARM.exidx.text._ZNKSt9type_info15__is_function_pEv
                0x000000000800c080        0x0 /opt/gcc-arm/gcc-arm-none-eabi-6_2-2016q4/bin/../lib/gcc/arm-none-eabi/6.2.1/../../../../arm-none-eabi/lib/thumb/v7-m/libstdc++.a(tinfo.o)
                                          0x8 (size before relaxing)
 .ARM.exidx.text._ZNKSt9type_infoeqERKS_
                0x000000000800c080        0x0 /opt/gcc-arm/gcc-arm-none-eabi-6_2-2016q4/bin/../lib/gcc/arm-none-eabi/6.2.1/../../../../arm-none-eabi/lib/thumb/v7-m/libstdc++.a(tinfo.o)
                                          0x8 (size before relaxing)
 .ARM.exidx.text._ZN10__cxxabiv1L24__is_gxx_exception_classEPc
                0x000000000800c080        0x0 /opt/gcc-arm/gcc-arm-none-eabi-6_2-2016q4/bin/../lib/gcc/arm-none-eabi/6.2.1/../../../../arm-none-eabi/lib/thumb/v7-m/libstdc++.a(eh_call.o)
                                          0x8 (size before relaxing)
 .ARM.exidx.text.__cxa_call_terminate
                0x000000000800c080        0x0 /opt/gcc-arm/gcc-arm-none-eabi-6_2-2016q4/bin/../lib/gcc/arm-none-eabi/6.2.1/../../../../arm-none-eabi/lib/thumb/v7-m/libstdc++.a(eh_call.o)
                                          0x8 (size before relaxing)
 .ARM.exidx.text.__cxa_call_unexpected
                0x000000000800c080        0x8 /opt/gcc-arm/gcc-arm-none-eabi-6_2-2016q4/bin/../lib/gcc/arm-none-eabi/6.2.1/../../../../arm-none-eabi/lib/thumb/v7-m/libstdc++.a(eh_call.o)
 .ARM.exidx.text.__cxa_begin_catch
                0x000000000800c088        0x8 /opt/gcc-arm/gcc-arm-none-eabi-6_2-2016q4/bin/../lib/gcc/arm-none-eabi/6.2.1/../../../../arm-none-eabi/lib/thumb/v7-m/libstdc++.a(eh_catch.o)
 .ARM.exidx.text.__cxa_end_catch
                0x000000000800c090        0x8 /opt/gcc-arm/gcc-arm-none-eabi-6_2-2016q4/bin/../lib/gcc/arm-none-eabi/6.2.1/../../../../arm-none-eabi/lib/thumb/v7-m/libstdc++.a(eh_catch.o)
 .ARM.exidx.text._ZN12_GLOBAL__N_14pool4freeEPv.constprop.4
                0x000000000800c098        0x0 /opt/gcc-arm/gcc-arm-none-eabi-6_2-2016q4/bin/../lib/gcc/arm-none-eabi/6.2.1/../../../../arm-none-eabi/lib/thumb/v7-m/libstdc++.a(eh_alloc.o)
                                          0x8 (size before relaxing)
 .ARM.exidx.text._ZN12_GLOBAL__N_14pool8allocateEj.constprop.5
                0x000000000800c098        0x0 /opt/gcc-arm/gcc-arm-none-eabi-6_2-2016q4/bin/../lib/gcc/arm-none-eabi/6.2.1/../../../../arm-none-eabi/lib/thumb/v7-m/libstdc++.a(eh_alloc.o)
                                          0x8 (size before relaxing)
 .ARM.exidx.text.__cxa_allocate_exception
                0x000000000800c098        0x0 /opt/gcc-arm/gcc-arm-none-eabi-6_2-2016q4/bin/../lib/gcc/arm-none-eabi/6.2.1/../../../../arm-none-eabi/lib/thumb/v7-m/libstdc++.a(eh_alloc.o)
                                          0x8 (size before relaxing)
 .ARM.exidx.text.__cxa_free_exception
                0x000000000800c098        0x0 /opt/gcc-arm/gcc-arm-none-eabi-6_2-2016q4/bin/../lib/gcc/arm-none-eabi/6.2.1/../../../../arm-none-eabi/lib/thumb/v7-m/libstdc++.a(eh_alloc.o)
                                          0x8 (size before relaxing)
 .ARM.exidx.text.startup._GLOBAL__sub_I__ZN9__gnu_cxx9__freeresEv
                0x000000000800c098        0x0 /opt/gcc-arm/gcc-arm-none-eabi-6_2-2016q4/bin/../lib/gcc/arm-none-eabi/6.2.1/../../../../arm-none-eabi/lib/thumb/v7-m/libstdc++.a(eh_alloc.o)
                                          0x8 (size before relaxing)
 .ARM.exidx.text._ZL23__gxx_exception_cleanup19_Unwind_Reason_CodeP21_Unwind_Control_Block
                0x000000000800c098        0x8 /opt/gcc-arm/gcc-arm-none-eabi-6_2-2016q4/bin/../lib/gcc/arm-none-eabi/6.2.1/../../../../arm-none-eabi/lib/thumb/v7-m/libstdc++.a(eh_throw.o)
 .ARM.exidx.text.__cxa_throw
                0x000000000800c0a0        0x8 /opt/gcc-arm/gcc-arm-none-eabi-6_2-2016q4/bin/../lib/gcc/arm-none-eabi/6.2.1/../../../../arm-none-eabi/lib/thumb/v7-m/libstdc++.a(eh_throw.o)
 .ARM.exidx.text.__cxa_rethrow
                0x000000000800c0a8       0x10 /opt/gcc-arm/gcc-arm-none-eabi-6_2-2016q4/bin/../lib/gcc/arm-none-eabi/6.2.1/../../../../arm-none-eabi/lib/thumb/v7-m/libstdc++.a(eh_throw.o)
                                          0x8 (size before relaxing)
 .ARM.exidx     0x000000000800c0b8       0x78 /opt/gcc-arm/gcc-arm-none-eabi-6_2-2016q4/bin/../lib/gcc/arm-none-eabi/6.2.1/thumb/v7-m/libgcc.a(unwind-arm.o)
                                         0xd8 (size before relaxing)
 .ARM.exidx     0x000000000800c130       0x38 /opt/gcc-arm/gcc-arm-none-eabi-6_2-2016q4/bin/../lib/gcc/arm-none-eabi/6.2.1/thumb/v7-m/libgcc.a(pr-support.o)
                                         0x48 (size before relaxing)
                0x000000000800c168                PROVIDE (__exidx_end, .)

.rel.dyn        0x000000000800c168        0x0
 .rel.iplt      0x000000000800c168        0x0 ./src/f1/startup_stm32f103xb.o
                0x000000000800c168                . = ALIGN (0x4)
                0x000000000800c168                _etext = .
                [!provide]                        PROVIDE (etext, .)
                0x000000000800c168                _sidata = _etext

.data           0x0000000020000000      0x880 load address 0x000000000800c168
                0x0000000020000000                . = ALIGN (0x4)
                0x0000000020000000                _sdata = .
                0x0000000020000000                _data = .
 *(.data .data.*)
 .data          0x0000000020000000       0x14 ./lib/CMSIS/CM3/DeviceSupport/ST/STM32F10x/system_stm32f10x.o
                0x0000000020000000                SystemCoreClock
                0x0000000020000004                AHBPrescTable
 .data          0x0000000020000014       0x14 ./lib/STM32F10x_StdPeriph_Driver/src/stm32f10x_rcc.o
 .data          0x0000000020000028        0x1 ./src/main.o
                0x0000000020000028                currentMode
 *fill*         0x0000000020000029        0x3 
 .data._ZN10__cxxabiv119__terminate_handlerE
                0x000000002000002c        0x4 /opt/gcc-arm/gcc-arm-none-eabi-6_2-2016q4/bin/../lib/gcc/arm-none-eabi/6.2.1/../../../../arm-none-eabi/lib/thumb/v7-m/libstdc++.a(eh_term_handler.o)
                0x000000002000002c                __cxxabiv1::__terminate_handler
 .data._ZN10__cxxabiv120__unexpected_handlerE
                0x0000000020000030        0x4 /opt/gcc-arm/gcc-arm-none-eabi-6_2-2016q4/bin/../lib/gcc/arm-none-eabi/6.2.1/../../../../arm-none-eabi/lib/thumb/v7-m/libstdc++.a(eh_unex_handler.o)
                0x0000000020000030                __cxxabiv1::__unexpected_handler
 .data.__fdlib_version
                0x0000000020000034        0x1 /opt/gcc-arm/gcc-arm-none-eabi-6_2-2016q4/bin/../lib/gcc/arm-none-eabi/6.2.1/../../../../arm-none-eabi/lib/thumb/v7-m/libm.a(lib_a-s_lib_ver.o)
                0x0000000020000034                __fdlib_version
 *fill*         0x0000000020000035        0x3 
 .data._impure_ptr
                0x0000000020000038        0x4 /opt/gcc-arm/gcc-arm-none-eabi-6_2-2016q4/bin/../lib/gcc/arm-none-eabi/6.2.1/../../../../arm-none-eabi/lib/thumb/v7-m/libg.a(lib_a-impure.o)
                0x0000000020000038                _impure_ptr
 *fill*         0x000000002000003c        0x4 
 .data.impure_data
                0x0000000020000040      0x428 /opt/gcc-arm/gcc-arm-none-eabi-6_2-2016q4/bin/../lib/gcc/arm-none-eabi/6.2.1/../../../../arm-none-eabi/lib/thumb/v7-m/libg.a(lib_a-impure.o)
 .data.__malloc_av_
                0x0000000020000468      0x408 /opt/gcc-arm/gcc-arm-none-eabi-6_2-2016q4/bin/../lib/gcc/arm-none-eabi/6.2.1/../../../../arm-none-eabi/lib/thumb/v7-m/libg.a(lib_a-mallocr.o)
                0x0000000020000468                __malloc_av_
 .data.__malloc_sbrk_base
                0x0000000020000870        0x4 /opt/gcc-arm/gcc-arm-none-eabi-6_2-2016q4/bin/../lib/gcc/arm-none-eabi/6.2.1/../../../../arm-none-eabi/lib/thumb/v7-m/libg.a(lib_a-mallocr.o)
                0x0000000020000870                __malloc_sbrk_base
 .data.__malloc_trim_threshold
                0x0000000020000874        0x4 /opt/gcc-arm/gcc-arm-none-eabi-6_2-2016q4/bin/../lib/gcc/arm-none-eabi/6.2.1/../../../../arm-none-eabi/lib/thumb/v7-m/libg.a(lib_a-mallocr.o)
                0x0000000020000874                __malloc_trim_threshold
 *(.gnu.linkonce.d*)
                0x0000000020000878                . = ALIGN (0x4)
                0x0000000020000878                PROVIDE (__preinit_array_start, .)
 *(.preinit_array)
                0x0000000020000878                PROVIDE (__preinit_array_end, .)
                0x0000000020000878                . = ALIGN (0x4)
                0x0000000020000878                PROVIDE (__init_array_start, .)
 *(SORT(.init_array.*))
 *(.init_array)
 .init_array    0x0000000020000878        0x4 ./src/main.o
 .init_array    0x000000002000087c        0x0 ./src/LibraryHacks.o
                0x000000002000087c                _init_array_start
 .init_array    0x000000002000087c        0x4 /opt/gcc-arm/gcc-arm-none-eabi-6_2-2016q4/bin/../lib/gcc/arm-none-eabi/6.2.1/../../../../arm-none-eabi/lib/thumb/v7-m/libstdc++.a(eh_alloc.o)
                0x0000000020000880                PROVIDE (__init_array_end, .)
                0x0000000020000880                . = ALIGN (0x4)
                0x0000000020000880                PROVIDE (__fini_array_start, .)
 *(SORT(.fini_array.*))
 *(.fini_array)
 .fini_array    0x0000000020000880        0x0 ./src/LibraryHacks.o
                0x0000000020000880                _fini_array_start
                0x0000000020000880                PROVIDE (__fini_array_end, .)
 *(.jcr*)
                0x0000000020000880                . = ALIGN (0x4)
 *(.ramfunc*)
                0x0000000020000880                . = ALIGN (0x4)
 *(.RAMtext)
                0x0000000020000880                . = ALIGN (0x4)
                0x0000000020000880                _edata = .

.igot.plt       0x0000000020000880        0x0 load address 0x000000000800c9e8
 .igot.plt      0x0000000020000880        0x0 ./src/f1/startup_stm32f103xb.o

.bss            0x0000000020000880     0x12e0 load address 0x000000000800c9e8
                0x0000000020000880                . = ALIGN (0x4)
                0x0000000020000880                _sbss = .
                0x0000000020000880                __bss_start = .
                0x0000000020000880                __bss_start__ = .
 *(.bss .bss.*)
 .bss           0x0000000020000880        0x4 ./src/stm32_time.o
 .bss           0x0000000020000884     0x1264 ./src/main.o
                0x0000000020000884                initialized
                0x0000000020000888                lastMsg
                0x000000002000088c                waitForServos
                0x0000000020000890                L
                0x0000000020000894                d
                0x0000000020000898                servo_left
                0x000000002000089c                servo_right
                0x00000000200008a0                motorCmd
                0x00000000200008b0                spinAngle
                0x00000000200008b4                spinningAutonomously
                0x00000000200008b6                TX_Head
                0x00000000200008b8                TX_Tail
                0x00000000200008ba                TX
                0x0000000020000cba                RX_Tail
                0x0000000020000cbc                RX_Head
                0x0000000020000cbe                RX
                0x00000000200010be                shuttingDown
                0x00000000200010c0                nh
                0x00000000200019f0                motor_sub
                0x0000000020001a30                odom_pub
                0x0000000020001a44                debug_pub
                0x0000000020001a58                front_left
                0x0000000020001a5c                front_right
                0x0000000020001a60                rear_left
                0x0000000020001a64                rear_right
                0x0000000020001a68                odom_msg
                0x0000000020001a98                odomDim
                0x0000000020001aa8                debug_msg
                0x0000000020001ad8                debugDim
 .bss           0x0000000020001ae8        0x8 ./src/LibraryHacks.o
                0x0000000020001aec                __dso_handle
 .bss._ZL10eh_globals
                0x0000000020001af0        0xc /opt/gcc-arm/gcc-arm-none-eabi-6_2-2016q4/bin/../lib/gcc/arm-none-eabi/6.2.1/../../../../arm-none-eabi/lib/thumb/v7-m/libstdc++.a(eh_globals.o)
 .bss._ZN12_GLOBAL__N_114emergency_poolE
                0x0000000020001afc       0x10 /opt/gcc-arm/gcc-arm-none-eabi-6_2-2016q4/bin/../lib/gcc/arm-none-eabi/6.2.1/../../../../arm-none-eabi/lib/thumb/v7-m/libstdc++.a(eh_alloc.o)
 .bss.__malloc_current_mallinfo
                0x0000000020001b0c       0x28 /opt/gcc-arm/gcc-arm-none-eabi-6_2-2016q4/bin/../lib/gcc/arm-none-eabi/6.2.1/../../../../arm-none-eabi/lib/thumb/v7-m/libg.a(lib_a-mallocr.o)
                0x0000000020001b0c                __malloc_current_mallinfo
 .bss.__malloc_max_sbrked_mem
                0x0000000020001b34        0x4 /opt/gcc-arm/gcc-arm-none-eabi-6_2-2016q4/bin/../lib/gcc/arm-none-eabi/6.2.1/../../../../arm-none-eabi/lib/thumb/v7-m/libg.a(lib_a-mallocr.o)
                0x0000000020001b34                __malloc_max_sbrked_mem
 .bss.__malloc_max_total_mem
                0x0000000020001b38        0x4 /opt/gcc-arm/gcc-arm-none-eabi-6_2-2016q4/bin/../lib/gcc/arm-none-eabi/6.2.1/../../../../arm-none-eabi/lib/thumb/v7-m/libg.a(lib_a-mallocr.o)
                0x0000000020001b38                __malloc_max_total_mem
 .bss.__malloc_top_pad
                0x0000000020001b3c        0x4 /opt/gcc-arm/gcc-arm-none-eabi-6_2-2016q4/bin/../lib/gcc/arm-none-eabi/6.2.1/../../../../arm-none-eabi/lib/thumb/v7-m/libg.a(lib_a-mallocr.o)
                0x0000000020001b3c                __malloc_top_pad
 *(.gnu.linkonce.b*)
 *(COMMON)
 COMMON         0x0000000020001b40       0x1a ./src/led.o
                0x0000000020001b40                TIM_TimeBaseStructure
                0x0000000020001b4a                TIM_OCInitStructure
 *fill*         0x0000000020001b5a        0x2 
 COMMON         0x0000000020001b5c        0x4 /opt/gcc-arm/gcc-arm-none-eabi-6_2-2016q4/bin/../lib/gcc/arm-none-eabi/6.2.1/../../../../arm-none-eabi/lib/thumb/v7-m/libg.a(lib_a-reent.o)
                0x0000000020001b5c                errno
                0x0000000020001b60                . = ALIGN (0x4)
                0x0000000020001b60                _ebss = .
                0x0000000020001b60                __bss_end__ = _end
                [!provide]                        PROVIDE (__bss_end, _end)

.heap           0x0000000020001b60        0x0
                0x0000000020001b60                _end = .
                0x0000000020001b60                end = _end
                [!provide]                        PROVIDE (_end, .)
                [!provide]                        PROVIDE (end, _end)
                [!provide]                        PROVIDE (_heap, .)
 *(.heap .heap.*)
 *(.HEAP)
                0x0000000020001b60                . = ALIGN (0x4)
                0x0000000020001b60                . = ALIGN (0x4)
                0x0000000020001b60                __heap_end = .
                [!provide]                        PROVIDE (__heap_end, .)

.stack          0x0000000020001b60        0x0
                0x0000000020001b60                _stack_top = .
                [!provide]                        PROVIDE (_stack_top, .)
 *(.stack .stack.*)
 *(.STACK)
                0x0000000020001b60                _stack = .
                [!provide]                        PROVIDE (_stack, .)
                0x0000000020001b60                . = ALIGN (0x8)
                0x0000000020005000                _stack_end = _estack
                [!provide]                        PROVIDE (_stack_end, _estack)

.extram         0x0000000068000000        0x0
                0x0000000068000000                _extram = .
                0x0000000068000000                extram = .
                [!provide]                        PROVIDE (extram, .)
                [!provide]                        PROVIDE (_extram, .)
 *(.extram .extram.*)
 *(.EXTRAM)
                0x0000000068000000                . = ALIGN (0x4)

/DISCARD/
 libc.a(*)
 libm.a(*)
 libgcc.a(*)
 *(.note.GNU-stack)
 *(.gnu.lto*)

.stab
 *(.stab)

.stabstr
 *(.stabstr)

.stab.excl
 *(.stab.excl)

.stab.exclstr
 *(.stab.exclstr)

.stab.index
 *(.stab.index)

.stab.indexstr
 *(.stab.indexstr)

.comment        0x0000000000000000       0x6e
 *(.comment)
 .comment       0x0000000000000000       0x6e ./lib/CMSIS/CM3/DeviceSupport/ST/STM32F10x/system_stm32f10x.o
                                         0x6f (size before relaxing)
 .comment       0x000000000000006e       0x6f ./src/led.o
 .comment       0x000000000000006e       0x6f ./src/encoder.o
 .comment       0x000000000000006e       0x6f ./src/stm32_time.o
 .comment       0x000000000000006e       0x6f ./lib/STM32F10x_StdPeriph_Driver/src/stm32f10x_adc.o
 .comment       0x000000000000006e       0x6f ./lib/STM32F10x_StdPeriph_Driver/src/stm32f10x_bkp.o
 .comment       0x000000000000006e       0x6f ./lib/STM32F10x_StdPeriph_Driver/src/stm32f10x_can.o
 .comment       0x000000000000006e       0x6f ./lib/STM32F10x_StdPeriph_Driver/src/stm32f10x_cec.o
 .comment       0x000000000000006e       0x6f ./lib/STM32F10x_StdPeriph_Driver/src/stm32f10x_crc.o
 .comment       0x000000000000006e       0x6f ./lib/STM32F10x_StdPeriph_Driver/src/stm32f10x_dac.o
 .comment       0x000000000000006e       0x6f ./lib/STM32F10x_StdPeriph_Driver/src/stm32f10x_dma.o
 .comment       0x000000000000006e       0x6f ./lib/STM32F10x_StdPeriph_Driver/src/stm32f10x_exti.o
 .comment       0x000000000000006e       0x6f ./lib/STM32F10x_StdPeriph_Driver/src/stm32f10x_flash.o
 .comment       0x000000000000006e       0x6f ./lib/STM32F10x_StdPeriph_Driver/src/stm32f10x_fsmc.o
 .comment       0x000000000000006e       0x6f ./lib/STM32F10x_StdPeriph_Driver/src/stm32f10x_gpio.o
 .comment       0x000000000000006e       0x6f ./lib/STM32F10x_StdPeriph_Driver/src/stm32f10x_i2c.o
 .comment       0x000000000000006e       0x6f ./lib/STM32F10x_StdPeriph_Driver/src/stm32f10x_iwdg.o
 .comment       0x000000000000006e       0x6f ./lib/STM32F10x_StdPeriph_Driver/src/stm32f10x_pwr.o
 .comment       0x000000000000006e       0x6f ./lib/STM32F10x_StdPeriph_Driver/src/stm32f10x_rcc.o
 .comment       0x000000000000006e       0x6f ./lib/STM32F10x_StdPeriph_Driver/src/stm32f10x_spi.o
 .comment       0x000000000000006e       0x6f ./lib/STM32F10x_StdPeriph_Driver/src/stm32f10x_usart.o
 .comment       0x000000000000006e       0x6f ./lib/STM32F10x_StdPeriph_Driver/src/stm32f10x_tim.o
 .comment       0x000000000000006e       0x6f ./lib/STM32F10x_StdPeriph_Driver/src/stm32f10x_sdio.o
 .comment       0x000000000000006e       0x6f ./lib/STM32F10x_StdPeriph_Driver/src/stm32f10x_wwdg.o
 .comment       0x000000000000006e       0x6f ./lib/STM32F10x_StdPeriph_Driver/src/stm32f10x_dbgmcu.o
 .comment       0x000000000000006e       0x6f ./lib/STM32F10x_StdPeriph_Driver/src/misc.o
 .comment       0x000000000000006e       0x6f ./src/main.o
 .comment       0x000000000000006e       0x6f ./src/motor.o
 .comment       0x000000000000006e       0x6f ./src/servo.o
 .comment       0x000000000000006e       0x6f ./src/DCMotor.o
 .comment       0x000000000000006e       0x6f ./src/motorSettings.o
 .comment       0x000000000000006e       0x6f ./src/LibraryHacks.o
 .comment       0x000000000000006e       0x6f ./lib/ros_lib/duration.o
 .comment       0x000000000000006e       0x6f ./lib/ros_lib/time.o

.debug
 *(.debug)

.line
 *(.line)

.debug_srcinfo
 *(.debug_srcinfo)

.debug_sfnames
 *(.debug_sfnames)

.debug_aranges  0x0000000000000000      0x5f0
 *(.debug_aranges)
 .debug_aranges
                0x0000000000000000       0x20 ./lib/CMSIS/CM3/DeviceSupport/ST/STM32F10x/system_stm32f10x.o
 .debug_aranges
                0x0000000000000020       0x20 ./src/led.o
 .debug_aranges
                0x0000000000000040       0x20 ./src/encoder.o
 .debug_aranges
                0x0000000000000060       0x20 ./src/stm32_time.o
 .debug_aranges
                0x0000000000000080       0x20 ./lib/STM32F10x_StdPeriph_Driver/src/stm32f10x_adc.o
 .debug_aranges
                0x00000000000000a0       0x20 ./lib/STM32F10x_StdPeriph_Driver/src/stm32f10x_bkp.o
 .debug_aranges
                0x00000000000000c0       0x20 ./lib/STM32F10x_StdPeriph_Driver/src/stm32f10x_can.o
 .debug_aranges
                0x00000000000000e0       0x20 ./lib/STM32F10x_StdPeriph_Driver/src/stm32f10x_cec.o
 .debug_aranges
                0x0000000000000100       0x20 ./lib/STM32F10x_StdPeriph_Driver/src/stm32f10x_crc.o
 .debug_aranges
                0x0000000000000120       0x20 ./lib/STM32F10x_StdPeriph_Driver/src/stm32f10x_dac.o
 .debug_aranges
                0x0000000000000140       0x20 ./lib/STM32F10x_StdPeriph_Driver/src/stm32f10x_dma.o
 .debug_aranges
                0x0000000000000160       0x20 ./lib/STM32F10x_StdPeriph_Driver/src/stm32f10x_exti.o
 .debug_aranges
                0x0000000000000180       0x20 ./lib/STM32F10x_StdPeriph_Driver/src/stm32f10x_flash.o
 .debug_aranges
                0x00000000000001a0       0x20 ./lib/STM32F10x_StdPeriph_Driver/src/stm32f10x_fsmc.o
 .debug_aranges
                0x00000000000001c0       0x20 ./lib/STM32F10x_StdPeriph_Driver/src/stm32f10x_gpio.o
 .debug_aranges
                0x00000000000001e0       0x20 ./lib/STM32F10x_StdPeriph_Driver/src/stm32f10x_i2c.o
 .debug_aranges
                0x0000000000000200       0x20 ./lib/STM32F10x_StdPeriph_Driver/src/stm32f10x_iwdg.o
 .debug_aranges
                0x0000000000000220       0x20 ./lib/STM32F10x_StdPeriph_Driver/src/stm32f10x_pwr.o
 .debug_aranges
                0x0000000000000240       0x20 ./lib/STM32F10x_StdPeriph_Driver/src/stm32f10x_rcc.o
 .debug_aranges
                0x0000000000000260       0x20 ./lib/STM32F10x_StdPeriph_Driver/src/stm32f10x_spi.o
 .debug_aranges
                0x0000000000000280       0x20 ./lib/STM32F10x_StdPeriph_Driver/src/stm32f10x_usart.o
 .debug_aranges
                0x00000000000002a0       0x20 ./lib/STM32F10x_StdPeriph_Driver/src/stm32f10x_tim.o
 .debug_aranges
                0x00000000000002c0       0x20 ./lib/STM32F10x_StdPeriph_Driver/src/stm32f10x_sdio.o
 .debug_aranges
                0x00000000000002e0       0x20 ./lib/STM32F10x_StdPeriph_Driver/src/stm32f10x_wwdg.o
 .debug_aranges
                0x0000000000000300       0x20 ./lib/STM32F10x_StdPeriph_Driver/src/stm32f10x_dbgmcu.o
 .debug_aranges
                0x0000000000000320       0x20 ./lib/STM32F10x_StdPeriph_Driver/src/misc.o
 .debug_aranges
                0x0000000000000340      0x1c0 ./src/main.o
 .debug_aranges
                0x0000000000000500       0x20 ./src/motor.o
 .debug_aranges
                0x0000000000000520       0x28 ./src/servo.o
 .debug_aranges
                0x0000000000000548       0x28 ./src/DCMotor.o
 .debug_aranges
                0x0000000000000570       0x20 ./src/motorSettings.o
 .debug_aranges
                0x0000000000000590       0x20 ./src/LibraryHacks.o
 .debug_aranges
                0x00000000000005b0       0x20 ./lib/ros_lib/duration.o
 .debug_aranges
                0x00000000000005d0       0x20 ./lib/ros_lib/time.o

.debug_pubnames
 *(.debug_pubnames)

.debug_info     0x0000000000000000    0x29270
 *(.debug_info .gnu.linkonce.wi.*)
 .debug_info    0x0000000000000000      0x4d2 ./lib/CMSIS/CM3/DeviceSupport/ST/STM32F10x/system_stm32f10x.o
 .debug_info    0x00000000000004d2     0x13e2 ./src/led.o
 .debug_info    0x00000000000018b4      0x472 ./src/encoder.o
 .debug_info    0x0000000000001d26      0x9b5 ./src/stm32_time.o
 .debug_info    0x00000000000026db      0xcae ./lib/STM32F10x_StdPeriph_Driver/src/stm32f10x_adc.o
 .debug_info    0x0000000000003389      0x8e3 ./lib/STM32F10x_StdPeriph_Driver/src/stm32f10x_bkp.o
 .debug_info    0x0000000000003c6c      0xd4d ./lib/STM32F10x_StdPeriph_Driver/src/stm32f10x_can.o
 .debug_info    0x00000000000049b9      0x4b7 ./lib/STM32F10x_StdPeriph_Driver/src/stm32f10x_cec.o
 .debug_info    0x0000000000004e70      0x22a ./lib/STM32F10x_StdPeriph_Driver/src/stm32f10x_crc.o
 .debug_info    0x000000000000509a      0x553 ./lib/STM32F10x_StdPeriph_Driver/src/stm32f10x_dac.o
 .debug_info    0x00000000000055ed      0x49a ./lib/STM32F10x_StdPeriph_Driver/src/stm32f10x_dma.o
 .debug_info    0x0000000000005a87      0x384 ./lib/STM32F10x_StdPeriph_Driver/src/stm32f10x_exti.o
 .debug_info    0x0000000000005e0b      0xa4c ./lib/STM32F10x_StdPeriph_Driver/src/stm32f10x_flash.o
 .debug_info    0x0000000000006857      0x9c6 ./lib/STM32F10x_StdPeriph_Driver/src/stm32f10x_fsmc.o
 .debug_info    0x000000000000721d      0x855 ./lib/STM32F10x_StdPeriph_Driver/src/stm32f10x_gpio.o
 .debug_info    0x0000000000007a72      0xc16 ./lib/STM32F10x_StdPeriph_Driver/src/stm32f10x_i2c.o
 .debug_info    0x0000000000008688      0x226 ./lib/STM32F10x_StdPeriph_Driver/src/stm32f10x_iwdg.o
 .debug_info    0x00000000000088ae      0x4f3 ./lib/STM32F10x_StdPeriph_Driver/src/stm32f10x_pwr.o
 .debug_info    0x0000000000008da1      0x972 ./lib/STM32F10x_StdPeriph_Driver/src/stm32f10x_rcc.o
 .debug_info    0x0000000000009713      0xa4f ./lib/STM32F10x_StdPeriph_Driver/src/stm32f10x_spi.o
 .debug_info    0x000000000000a162      0xb7d ./lib/STM32F10x_StdPeriph_Driver/src/stm32f10x_usart.o
 .debug_info    0x000000000000acdf     0x224b ./lib/STM32F10x_StdPeriph_Driver/src/stm32f10x_tim.o
 .debug_info    0x000000000000cf2a      0x899 ./lib/STM32F10x_StdPeriph_Driver/src/stm32f10x_sdio.o
 .debug_info    0x000000000000d7c3      0x2a4 ./lib/STM32F10x_StdPeriph_Driver/src/stm32f10x_wwdg.o
 .debug_info    0x000000000000da67      0x16f ./lib/STM32F10x_StdPeriph_Driver/src/stm32f10x_dbgmcu.o
 .debug_info    0x000000000000dbd6      0x558 ./lib/STM32F10x_StdPeriph_Driver/src/misc.o
 .debug_info    0x000000000000e12e     0xb02e ./src/main.o
 .debug_info    0x000000000001915c     0x2ff1 ./src/motor.o
 .debug_info    0x000000000001c14d     0x3ac2 ./src/servo.o
 .debug_info    0x000000000001fc0f     0x3b9f ./src/DCMotor.o
 .debug_info    0x00000000000237ae     0x2da1 ./src/motorSettings.o
 .debug_info    0x000000000002654f     0x11de ./src/LibraryHacks.o
 .debug_info    0x000000000002772d      0xccd ./lib/ros_lib/duration.o
 .debug_info    0x00000000000283fa      0xe76 ./lib/ros_lib/time.o

.debug_abbrev   0x0000000000000000     0x6535
 *(.debug_abbrev)
 .debug_abbrev  0x0000000000000000      0x1b7 ./lib/CMSIS/CM3/DeviceSupport/ST/STM32F10x/system_stm32f10x.o
 .debug_abbrev  0x00000000000001b7      0x2b8 ./src/led.o
 .debug_abbrev  0x000000000000046f      0x13a ./src/encoder.o
 .debug_abbrev  0x00000000000005a9      0x29b ./src/stm32_time.o
 .debug_abbrev  0x0000000000000844      0x22b ./lib/STM32F10x_StdPeriph_Driver/src/stm32f10x_adc.o
 .debug_abbrev  0x0000000000000a6f      0x1c2 ./lib/STM32F10x_StdPeriph_Driver/src/stm32f10x_bkp.o
 .debug_abbrev  0x0000000000000c31      0x2f5 ./lib/STM32F10x_StdPeriph_Driver/src/stm32f10x_can.o
 .debug_abbrev  0x0000000000000f26      0x21c ./lib/STM32F10x_StdPeriph_Driver/src/stm32f10x_cec.o
 .debug_abbrev  0x0000000000001142      0x136 ./lib/STM32F10x_StdPeriph_Driver/src/stm32f10x_crc.o
 .debug_abbrev  0x0000000000001278      0x20a ./lib/STM32F10x_StdPeriph_Driver/src/stm32f10x_dac.o
 .debug_abbrev  0x0000000000001482      0x1cf ./lib/STM32F10x_StdPeriph_Driver/src/stm32f10x_dma.o
 .debug_abbrev  0x0000000000001651      0x1db ./lib/STM32F10x_StdPeriph_Driver/src/stm32f10x_exti.o
 .debug_abbrev  0x000000000000182c      0x25a ./lib/STM32F10x_StdPeriph_Driver/src/stm32f10x_flash.o
 .debug_abbrev  0x0000000000001a86      0x1ef ./lib/STM32F10x_StdPeriph_Driver/src/stm32f10x_fsmc.o
 .debug_abbrev  0x0000000000001c75      0x237 ./lib/STM32F10x_StdPeriph_Driver/src/stm32f10x_gpio.o
 .debug_abbrev  0x0000000000001eac      0x271 ./lib/STM32F10x_StdPeriph_Driver/src/stm32f10x_i2c.o
 .debug_abbrev  0x000000000000211d      0x13d ./lib/STM32F10x_StdPeriph_Driver/src/stm32f10x_iwdg.o
 .debug_abbrev  0x000000000000225a      0x1f8 ./lib/STM32F10x_StdPeriph_Driver/src/stm32f10x_pwr.o
 .debug_abbrev  0x0000000000002452      0x22b ./lib/STM32F10x_StdPeriph_Driver/src/stm32f10x_rcc.o
 .debug_abbrev  0x000000000000267d      0x216 ./lib/STM32F10x_StdPeriph_Driver/src/stm32f10x_spi.o
 .debug_abbrev  0x0000000000002893      0x22e ./lib/STM32F10x_StdPeriph_Driver/src/stm32f10x_usart.o
 .debug_abbrev  0x0000000000002ac1      0x31a ./lib/STM32F10x_StdPeriph_Driver/src/stm32f10x_tim.o
 .debug_abbrev  0x0000000000002ddb      0x29c ./lib/STM32F10x_StdPeriph_Driver/src/stm32f10x_sdio.o
 .debug_abbrev  0x0000000000003077      0x176 ./lib/STM32F10x_StdPeriph_Driver/src/stm32f10x_wwdg.o
 .debug_abbrev  0x00000000000031ed      0x102 ./lib/STM32F10x_StdPeriph_Driver/src/stm32f10x_dbgmcu.o
 .debug_abbrev  0x00000000000032ef      0x18c ./lib/STM32F10x_StdPeriph_Driver/src/misc.o
 .debug_abbrev  0x000000000000347b      0xcff ./src/main.o
 .debug_abbrev  0x000000000000417a      0x626 ./src/motor.o
 .debug_abbrev  0x00000000000047a0      0x777 ./src/servo.o
 .debug_abbrev  0x0000000000004f17      0x713 ./src/DCMotor.o
 .debug_abbrev  0x000000000000562a      0x52f ./src/motorSettings.o
 .debug_abbrev  0x0000000000005b59      0x3ed ./src/LibraryHacks.o
 .debug_abbrev  0x0000000000005f46      0x30d ./lib/ros_lib/duration.o
 .debug_abbrev  0x0000000000006253      0x2e2 ./lib/ros_lib/time.o

.debug_line     0x0000000000000000     0x7b6a
 *(.debug_line)
 .debug_line    0x0000000000000000      0x1b7 ./lib/CMSIS/CM3/DeviceSupport/ST/STM32F10x/system_stm32f10x.o
 .debug_line    0x00000000000001b7      0x292 ./src/led.o
 .debug_line    0x0000000000000449      0x1d7 ./src/encoder.o
 .debug_line    0x0000000000000620      0x240 ./src/stm32_time.o
 .debug_line    0x0000000000000860      0x338 ./lib/STM32F10x_StdPeriph_Driver/src/stm32f10x_adc.o
 .debug_line    0x0000000000000b98      0x1ff ./lib/STM32F10x_StdPeriph_Driver/src/stm32f10x_bkp.o
 .debug_line    0x0000000000000d97      0x406 ./lib/STM32F10x_StdPeriph_Driver/src/stm32f10x_can.o
 .debug_line    0x000000000000119d      0x245 ./lib/STM32F10x_StdPeriph_Driver/src/stm32f10x_cec.o
 .debug_line    0x00000000000013e2      0x1ac ./lib/STM32F10x_StdPeriph_Driver/src/stm32f10x_crc.o
 .debug_line    0x000000000000158e      0x23d ./lib/STM32F10x_StdPeriph_Driver/src/stm32f10x_dac.o
 .debug_line    0x00000000000017cb      0x25a ./lib/STM32F10x_StdPeriph_Driver/src/stm32f10x_dma.o
 .debug_line    0x0000000000001a25      0x20c ./lib/STM32F10x_StdPeriph_Driver/src/stm32f10x_exti.o
 .debug_line    0x0000000000001c31      0x357 ./lib/STM32F10x_StdPeriph_Driver/src/stm32f10x_flash.o
 .debug_line    0x0000000000001f88      0x375 ./lib/STM32F10x_StdPeriph_Driver/src/stm32f10x_fsmc.o
 .debug_line    0x00000000000022fd      0x2bb ./lib/STM32F10x_StdPeriph_Driver/src/stm32f10x_gpio.o
 .debug_line    0x00000000000025b8      0x329 ./lib/STM32F10x_StdPeriph_Driver/src/stm32f10x_i2c.o
 .debug_line    0x00000000000028e1      0x1a3 ./lib/STM32F10x_StdPeriph_Driver/src/stm32f10x_iwdg.o
 .debug_line    0x0000000000002a84      0x217 ./lib/STM32F10x_StdPeriph_Driver/src/stm32f10x_pwr.o
 .debug_line    0x0000000000002c9b      0x2de ./lib/STM32F10x_StdPeriph_Driver/src/stm32f10x_rcc.o
 .debug_line    0x0000000000002f79      0x2ec ./lib/STM32F10x_StdPeriph_Driver/src/stm32f10x_spi.o
 .debug_line    0x0000000000003265      0x321 ./lib/STM32F10x_StdPeriph_Driver/src/stm32f10x_usart.o
 .debug_line    0x0000000000003586      0x6b6 ./lib/STM32F10x_StdPeriph_Driver/src/stm32f10x_tim.o
 .debug_line    0x0000000000003c3c      0x27f ./lib/STM32F10x_StdPeriph_Driver/src/stm32f10x_sdio.o
 .debug_line    0x0000000000003ebb      0x1ec ./lib/STM32F10x_StdPeriph_Driver/src/stm32f10x_wwdg.o
 .debug_line    0x00000000000040a7      0x199 ./lib/STM32F10x_StdPeriph_Driver/src/stm32f10x_dbgmcu.o
 .debug_line    0x0000000000004240      0x1da ./lib/STM32F10x_StdPeriph_Driver/src/misc.o
 .debug_line    0x000000000000441a     0x170b ./src/main.o
 .debug_line    0x0000000000005b25      0x567 ./src/motor.o
 .debug_line    0x000000000000608c      0x68b ./src/servo.o
 .debug_line    0x0000000000006717      0x6c2 ./src/DCMotor.o
 .debug_line    0x0000000000006dd9      0x544 ./src/motorSettings.o
 .debug_line    0x000000000000731d      0x27b ./src/LibraryHacks.o
 .debug_line    0x0000000000007598      0x2df ./lib/ros_lib/duration.o
 .debug_line    0x0000000000007877      0x2f3 ./lib/ros_lib/time.o

.debug_frame    0x0000000000000000     0x484c
 *(.debug_frame)
 .debug_frame   0x0000000000000000       0x3c ./lib/CMSIS/CM3/DeviceSupport/ST/STM32F10x/system_stm32f10x.o
 .debug_frame   0x000000000000003c       0xac ./src/led.o
 .debug_frame   0x00000000000000e8       0x30 ./src/encoder.o
 .debug_frame   0x0000000000000118       0xac ./src/stm32_time.o
 .debug_frame   0x00000000000001c4      0x2a0 ./lib/STM32F10x_StdPeriph_Driver/src/stm32f10x_adc.o
 .debug_frame   0x0000000000000464       0xf0 ./lib/STM32F10x_StdPeriph_Driver/src/stm32f10x_bkp.o
 .debug_frame   0x0000000000000554      0x1d0 ./lib/STM32F10x_StdPeriph_Driver/src/stm32f10x_can.o
 .debug_frame   0x0000000000000724      0x100 ./lib/STM32F10x_StdPeriph_Driver/src/stm32f10x_cec.o
 .debug_frame   0x0000000000000824       0x70 ./lib/STM32F10x_StdPeriph_Driver/src/stm32f10x_crc.o
 .debug_frame   0x0000000000000894      0x104 ./lib/STM32F10x_StdPeriph_Driver/src/stm32f10x_dac.o
 .debug_frame   0x0000000000000998       0xcc ./lib/STM32F10x_StdPeriph_Driver/src/stm32f10x_dma.o
 .debug_frame   0x0000000000000a64       0x9c ./lib/STM32F10x_StdPeriph_Driver/src/stm32f10x_exti.o
 .debug_frame   0x0000000000000b00      0x270 ./lib/STM32F10x_StdPeriph_Driver/src/stm32f10x_flash.o
 .debug_frame   0x0000000000000d70      0x170 ./lib/STM32F10x_StdPeriph_Driver/src/stm32f10x_fsmc.o
 .debug_frame   0x0000000000000ee0      0x184 ./lib/STM32F10x_StdPeriph_Driver/src/stm32f10x_gpio.o
 .debug_frame   0x0000000000001064      0x264 ./lib/STM32F10x_StdPeriph_Driver/src/stm32f10x_i2c.o
 .debug_frame   0x00000000000012c8       0x70 ./lib/STM32F10x_StdPeriph_Driver/src/stm32f10x_iwdg.o
 .debug_frame   0x0000000000001338       0xb0 ./lib/STM32F10x_StdPeriph_Driver/src/stm32f10x_pwr.o
 .debug_frame   0x00000000000013e8      0x228 ./lib/STM32F10x_StdPeriph_Driver/src/stm32f10x_rcc.o
 .debug_frame   0x0000000000001610      0x1d4 ./lib/STM32F10x_StdPeriph_Driver/src/stm32f10x_spi.o
 .debug_frame   0x00000000000017e4      0x23c ./lib/STM32F10x_StdPeriph_Driver/src/stm32f10x_usart.o
 .debug_frame   0x0000000000001a20      0x704 ./lib/STM32F10x_StdPeriph_Driver/src/stm32f10x_tim.o
 .debug_frame   0x0000000000002124      0x21c ./lib/STM32F10x_StdPeriph_Driver/src/stm32f10x_sdio.o
 .debug_frame   0x0000000000002340       0xa8 ./lib/STM32F10x_StdPeriph_Driver/src/stm32f10x_wwdg.o
 .debug_frame   0x00000000000023e8       0x40 ./lib/STM32F10x_StdPeriph_Driver/src/stm32f10x_dbgmcu.o
 .debug_frame   0x0000000000002428       0x6c ./lib/STM32F10x_StdPeriph_Driver/src/misc.o
 .debug_frame   0x0000000000002494      0x654 ./src/main.o
 .debug_frame   0x0000000000002ae8       0x6c ./src/motor.o
 .debug_frame   0x0000000000002b54      0x12c ./src/servo.o
 .debug_frame   0x0000000000002c80      0x17c ./src/DCMotor.o
 .debug_frame   0x0000000000002dfc       0x5c ./src/motorSettings.o
 .debug_frame   0x0000000000002e58      0x120 ./src/LibraryHacks.o
 .debug_frame   0x0000000000002f78       0x84 ./lib/ros_lib/duration.o
 .debug_frame   0x0000000000002ffc       0x80 ./lib/ros_lib/time.o
 .debug_frame   0x000000000000307c       0xe4 /opt/gcc-arm/gcc-arm-none-eabi-6_2-2016q4/bin/../lib/gcc/arm-none-eabi/6.2.1/../../../../arm-none-eabi/lib/thumb/v7-m/libstdc++.a(class_type_info.o)
 .debug_frame   0x0000000000003160       0x6c /opt/gcc-arm/gcc-arm-none-eabi-6_2-2016q4/bin/../lib/gcc/arm-none-eabi/6.2.1/../../../../arm-none-eabi/lib/thumb/v7-m/libstdc++.a(eh_arm.o)
 .debug_frame   0x00000000000031cc       0x30 /opt/gcc-arm/gcc-arm-none-eabi-6_2-2016q4/bin/../lib/gcc/arm-none-eabi/6.2.1/../../../../arm-none-eabi/lib/thumb/v7-m/libstdc++.a(eh_globals.o)
 .debug_frame   0x00000000000031fc       0xf0 /opt/gcc-arm/gcc-arm-none-eabi-6_2-2016q4/bin/../lib/gcc/arm-none-eabi/6.2.1/../../../../arm-none-eabi/lib/thumb/v7-m/libstdc++.a(eh_exception.o)
 .debug_frame   0x00000000000032ec       0xdc /opt/gcc-arm/gcc-arm-none-eabi-6_2-2016q4/bin/../lib/gcc/arm-none-eabi/6.2.1/../../../../arm-none-eabi/lib/thumb/v7-m/libstdc++.a(si_class_type_info.o)
 .debug_frame   0x00000000000033c8       0x20 /opt/gcc-arm/gcc-arm-none-eabi-6_2-2016q4/bin/../lib/gcc/arm-none-eabi/6.2.1/../../../../arm-none-eabi/lib/thumb/v7-m/libstdc++.a(del_ops.o)
 .debug_frame   0x00000000000033e8       0xac /opt/gcc-arm/gcc-arm-none-eabi-6_2-2016q4/bin/../lib/gcc/arm-none-eabi/6.2.1/../../../../arm-none-eabi/lib/thumb/v7-m/libstdc++.a(eh_personality.o)
 .debug_frame   0x0000000000003494       0xb0 /opt/gcc-arm/gcc-arm-none-eabi-6_2-2016q4/bin/../lib/gcc/arm-none-eabi/6.2.1/../../../../arm-none-eabi/lib/thumb/v7-m/libstdc++.a(eh_terminate.o)
 .debug_frame   0x0000000000003544       0x84 /opt/gcc-arm/gcc-arm-none-eabi-6_2-2016q4/bin/../lib/gcc/arm-none-eabi/6.2.1/../../../../arm-none-eabi/lib/thumb/v7-m/libstdc++.a(tinfo.o)
 .debug_frame   0x00000000000035c8       0x60 /opt/gcc-arm/gcc-arm-none-eabi-6_2-2016q4/bin/../lib/gcc/arm-none-eabi/6.2.1/../../../../arm-none-eabi/lib/thumb/v7-m/libstdc++.a(eh_call.o)
 .debug_frame   0x0000000000003628       0x94 /opt/gcc-arm/gcc-arm-none-eabi-6_2-2016q4/bin/../lib/gcc/arm-none-eabi/6.2.1/../../../../arm-none-eabi/lib/thumb/v7-m/libstdc++.a(eh_catch.o)
 .debug_frame   0x00000000000036bc       0xf0 /opt/gcc-arm/gcc-arm-none-eabi-6_2-2016q4/bin/../lib/gcc/arm-none-eabi/6.2.1/../../../../arm-none-eabi/lib/thumb/v7-m/libstdc++.a(eh_alloc.o)
 .debug_frame   0x00000000000037ac       0x68 /opt/gcc-arm/gcc-arm-none-eabi-6_2-2016q4/bin/../lib/gcc/arm-none-eabi/6.2.1/../../../../arm-none-eabi/lib/thumb/v7-m/libstdc++.a(eh_throw.o)
 .debug_frame   0x0000000000003814       0x38 /opt/gcc-arm/gcc-arm-none-eabi-6_2-2016q4/bin/../lib/gcc/arm-none-eabi/6.2.1/../../../../arm-none-eabi/lib/thumb/v7-m/libm.a(lib_a-s_sin.o)
 .debug_frame   0x000000000000384c       0x30 /opt/gcc-arm/gcc-arm-none-eabi-6_2-2016q4/bin/../lib/gcc/arm-none-eabi/6.2.1/../../../../arm-none-eabi/lib/thumb/v7-m/libm.a(lib_a-sf_atan.o)
 .debug_frame   0x000000000000387c       0x34 /opt/gcc-arm/gcc-arm-none-eabi-6_2-2016q4/bin/../lib/gcc/arm-none-eabi/6.2.1/../../../../arm-none-eabi/lib/thumb/v7-m/libm.a(lib_a-sf_cos.o)
 .debug_frame   0x00000000000038b0       0x20 /opt/gcc-arm/gcc-arm-none-eabi-6_2-2016q4/bin/../lib/gcc/arm-none-eabi/6.2.1/../../../../arm-none-eabi/lib/thumb/v7-m/libm.a(lib_a-sf_fabs.o)
 .debug_frame   0x00000000000038d0       0x34 /opt/gcc-arm/gcc-arm-none-eabi-6_2-2016q4/bin/../lib/gcc/arm-none-eabi/6.2.1/../../../../arm-none-eabi/lib/thumb/v7-m/libm.a(lib_a-sf_sin.o)
 .debug_frame   0x0000000000003904       0x44 /opt/gcc-arm/gcc-arm-none-eabi-6_2-2016q4/bin/../lib/gcc/arm-none-eabi/6.2.1/../../../../arm-none-eabi/lib/thumb/v7-m/libm.a(lib_a-w_sqrt.o)
 .debug_frame   0x0000000000003948       0x3c /opt/gcc-arm/gcc-arm-none-eabi-6_2-2016q4/bin/../lib/gcc/arm-none-eabi/6.2.1/../../../../arm-none-eabi/lib/thumb/v7-m/libm.a(lib_a-wf_sqrt.o)
 .debug_frame   0x0000000000003984       0x48 /opt/gcc-arm/gcc-arm-none-eabi-6_2-2016q4/bin/../lib/gcc/arm-none-eabi/6.2.1/../../../../arm-none-eabi/lib/thumb/v7-m/libm.a(lib_a-e_rem_pio2.o)
 .debug_frame   0x00000000000039cc       0x34 /opt/gcc-arm/gcc-arm-none-eabi-6_2-2016q4/bin/../lib/gcc/arm-none-eabi/6.2.1/../../../../arm-none-eabi/lib/thumb/v7-m/libm.a(lib_a-e_sqrt.o)
 .debug_frame   0x0000000000003a00       0x48 /opt/gcc-arm/gcc-arm-none-eabi-6_2-2016q4/bin/../lib/gcc/arm-none-eabi/6.2.1/../../../../arm-none-eabi/lib/thumb/v7-m/libm.a(lib_a-ef_rem_pio2.o)
 .debug_frame   0x0000000000003a48       0x30 /opt/gcc-arm/gcc-arm-none-eabi-6_2-2016q4/bin/../lib/gcc/arm-none-eabi/6.2.1/../../../../arm-none-eabi/lib/thumb/v7-m/libm.a(lib_a-ef_sqrt.o)
 .debug_frame   0x0000000000003a78       0x4c /opt/gcc-arm/gcc-arm-none-eabi-6_2-2016q4/bin/../lib/gcc/arm-none-eabi/6.2.1/../../../../arm-none-eabi/lib/thumb/v7-m/libm.a(lib_a-k_cos.o)
 .debug_frame   0x0000000000003ac4       0x50 /opt/gcc-arm/gcc-arm-none-eabi-6_2-2016q4/bin/../lib/gcc/arm-none-eabi/6.2.1/../../../../arm-none-eabi/lib/thumb/v7-m/libm.a(lib_a-k_rem_pio2.o)
 .debug_frame   0x0000000000003b14       0x48 /opt/gcc-arm/gcc-arm-none-eabi-6_2-2016q4/bin/../lib/gcc/arm-none-eabi/6.2.1/../../../../arm-none-eabi/lib/thumb/v7-m/libm.a(lib_a-k_sin.o)
 .debug_frame   0x0000000000003b5c       0x34 /opt/gcc-arm/gcc-arm-none-eabi-6_2-2016q4/bin/../lib/gcc/arm-none-eabi/6.2.1/../../../../arm-none-eabi/lib/thumb/v7-m/libm.a(lib_a-kf_cos.o)
 .debug_frame   0x0000000000003b90       0x50 /opt/gcc-arm/gcc-arm-none-eabi-6_2-2016q4/bin/../lib/gcc/arm-none-eabi/6.2.1/../../../../arm-none-eabi/lib/thumb/v7-m/libm.a(lib_a-kf_rem_pio2.o)
 .debug_frame   0x0000000000003be0       0x34 /opt/gcc-arm/gcc-arm-none-eabi-6_2-2016q4/bin/../lib/gcc/arm-none-eabi/6.2.1/../../../../arm-none-eabi/lib/thumb/v7-m/libm.a(lib_a-kf_sin.o)
 .debug_frame   0x0000000000003c14       0x20 /opt/gcc-arm/gcc-arm-none-eabi-6_2-2016q4/bin/../lib/gcc/arm-none-eabi/6.2.1/../../../../arm-none-eabi/lib/thumb/v7-m/libm.a(lib_a-s_fabs.o)
 .debug_frame   0x0000000000003c34       0x34 /opt/gcc-arm/gcc-arm-none-eabi-6_2-2016q4/bin/../lib/gcc/arm-none-eabi/6.2.1/../../../../arm-none-eabi/lib/thumb/v7-m/libm.a(lib_a-s_floor.o)
 .debug_frame   0x0000000000003c68       0x20 /opt/gcc-arm/gcc-arm-none-eabi-6_2-2016q4/bin/../lib/gcc/arm-none-eabi/6.2.1/../../../../arm-none-eabi/lib/thumb/v7-m/libm.a(lib_a-s_matherr.o)
 .debug_frame   0x0000000000003c88       0x30 /opt/gcc-arm/gcc-arm-none-eabi-6_2-2016q4/bin/../lib/gcc/arm-none-eabi/6.2.1/../../../../arm-none-eabi/lib/thumb/v7-m/libm.a(lib_a-s_scalbn.o)
 .debug_frame   0x0000000000003cb8       0x30 /opt/gcc-arm/gcc-arm-none-eabi-6_2-2016q4/bin/../lib/gcc/arm-none-eabi/6.2.1/../../../../arm-none-eabi/lib/thumb/v7-m/libm.a(lib_a-sf_floor.o)
 .debug_frame   0x0000000000003ce8       0x2c /opt/gcc-arm/gcc-arm-none-eabi-6_2-2016q4/bin/../lib/gcc/arm-none-eabi/6.2.1/../../../../arm-none-eabi/lib/thumb/v7-m/libm.a(lib_a-sf_scalbn.o)
 .debug_frame   0x0000000000003d14       0x20 /opt/gcc-arm/gcc-arm-none-eabi-6_2-2016q4/bin/../lib/gcc/arm-none-eabi/6.2.1/../../../../arm-none-eabi/lib/thumb/v7-m/libm.a(lib_a-s_copysign.o)
 .debug_frame   0x0000000000003d34       0x20 /opt/gcc-arm/gcc-arm-none-eabi-6_2-2016q4/bin/../lib/gcc/arm-none-eabi/6.2.1/../../../../arm-none-eabi/lib/thumb/v7-m/libm.a(lib_a-sf_copysign.o)
 .debug_frame   0x0000000000003d54       0xac /opt/gcc-arm/gcc-arm-none-eabi-6_2-2016q4/bin/../lib/gcc/arm-none-eabi/6.2.1/thumb/v7-m/libgcc.a(_arm_addsubdf3.o)
 .debug_frame   0x0000000000003e00       0x50 /opt/gcc-arm/gcc-arm-none-eabi-6_2-2016q4/bin/../lib/gcc/arm-none-eabi/6.2.1/thumb/v7-m/libgcc.a(_arm_muldivdf3.o)
 .debug_frame   0x0000000000003e50       0xc4 /opt/gcc-arm/gcc-arm-none-eabi-6_2-2016q4/bin/../lib/gcc/arm-none-eabi/6.2.1/thumb/v7-m/libgcc.a(_arm_cmpdf2.o)
 .debug_frame   0x0000000000003f14       0x20 /opt/gcc-arm/gcc-arm-none-eabi-6_2-2016q4/bin/../lib/gcc/arm-none-eabi/6.2.1/thumb/v7-m/libgcc.a(_arm_unorddf2.o)
 .debug_frame   0x0000000000003f34       0x24 /opt/gcc-arm/gcc-arm-none-eabi-6_2-2016q4/bin/../lib/gcc/arm-none-eabi/6.2.1/thumb/v7-m/libgcc.a(_arm_fixdfsi.o)
 .debug_frame   0x0000000000003f58       0x24 /opt/gcc-arm/gcc-arm-none-eabi-6_2-2016q4/bin/../lib/gcc/arm-none-eabi/6.2.1/thumb/v7-m/libgcc.a(_arm_truncdfsf2.o)
 .debug_frame   0x0000000000003f7c       0x4c /opt/gcc-arm/gcc-arm-none-eabi-6_2-2016q4/bin/../lib/gcc/arm-none-eabi/6.2.1/thumb/v7-m/libgcc.a(_arm_addsubsf3.o)
 .debug_frame   0x0000000000003fc8       0x38 /opt/gcc-arm/gcc-arm-none-eabi-6_2-2016q4/bin/../lib/gcc/arm-none-eabi/6.2.1/thumb/v7-m/libgcc.a(_arm_muldivsf3.o)
 .debug_frame   0x0000000000004000       0xc8 /opt/gcc-arm/gcc-arm-none-eabi-6_2-2016q4/bin/../lib/gcc/arm-none-eabi/6.2.1/thumb/v7-m/libgcc.a(_arm_cmpsf2.o)
 .debug_frame   0x00000000000040c8       0x24 /opt/gcc-arm/gcc-arm-none-eabi-6_2-2016q4/bin/../lib/gcc/arm-none-eabi/6.2.1/thumb/v7-m/libgcc.a(_arm_unordsf2.o)
 .debug_frame   0x00000000000040ec       0x24 /opt/gcc-arm/gcc-arm-none-eabi-6_2-2016q4/bin/../lib/gcc/arm-none-eabi/6.2.1/thumb/v7-m/libgcc.a(_arm_fixsfsi.o)
 .debug_frame   0x0000000000004110      0x300 /opt/gcc-arm/gcc-arm-none-eabi-6_2-2016q4/bin/../lib/gcc/arm-none-eabi/6.2.1/thumb/v7-m/libgcc.a(unwind-arm.o)
 .debug_frame   0x0000000000004410      0x104 /opt/gcc-arm/gcc-arm-none-eabi-6_2-2016q4/bin/../lib/gcc/arm-none-eabi/6.2.1/thumb/v7-m/libgcc.a(pr-support.o)
 .debug_frame   0x0000000000004514       0x20 /opt/gcc-arm/gcc-arm-none-eabi-6_2-2016q4/bin/../lib/gcc/arm-none-eabi/6.2.1/../../../../arm-none-eabi/lib/thumb/v7-m/libg.a(lib_a-errno.o)
 .debug_frame   0x0000000000004534       0x2c /opt/gcc-arm/gcc-arm-none-eabi-6_2-2016q4/bin/../lib/gcc/arm-none-eabi/6.2.1/../../../../arm-none-eabi/lib/thumb/v7-m/libg.a(lib_a-init.o)
 .debug_frame   0x0000000000004560       0x30 /opt/gcc-arm/gcc-arm-none-eabi-6_2-2016q4/bin/../lib/gcc/arm-none-eabi/6.2.1/../../../../arm-none-eabi/lib/thumb/v7-m/libg.a(lib_a-malloc.o)
 .debug_frame   0x0000000000004590       0x54 /opt/gcc-arm/gcc-arm-none-eabi-6_2-2016q4/bin/../lib/gcc/arm-none-eabi/6.2.1/../../../../arm-none-eabi/lib/thumb/v7-m/libg.a(lib_a-mallocr.o)
 .debug_frame   0x00000000000045e4       0x34 /opt/gcc-arm/gcc-arm-none-eabi-6_2-2016q4/bin/../lib/gcc/arm-none-eabi/6.2.1/../../../../arm-none-eabi/lib/thumb/v7-m/libg.a(lib_a-memset.o)
 .debug_frame   0x0000000000004618       0x30 /opt/gcc-arm/gcc-arm-none-eabi-6_2-2016q4/bin/../lib/gcc/arm-none-eabi/6.2.1/../../../../arm-none-eabi/lib/thumb/v7-m/libg.a(lib_a-mlock.o)
 .debug_frame   0x0000000000004648       0x20 /opt/gcc-arm/gcc-arm-none-eabi-6_2-2016q4/bin/../lib/gcc/arm-none-eabi/6.2.1/../../../../arm-none-eabi/lib/thumb/v7-m/libg.a(lib_a-realloc.o)
 .debug_frame   0x0000000000004668       0x68 /opt/gcc-arm/gcc-arm-none-eabi-6_2-2016q4/bin/../lib/gcc/arm-none-eabi/6.2.1/../../../../arm-none-eabi/lib/thumb/v7-m/libg.a(lib_a-reallocr.o)
 .debug_frame   0x00000000000046d0       0x2c /opt/gcc-arm/gcc-arm-none-eabi-6_2-2016q4/bin/../lib/gcc/arm-none-eabi/6.2.1/../../../../arm-none-eabi/lib/thumb/v7-m/libg.a(lib_a-sbrkr.o)
 .debug_frame   0x00000000000046fc       0x34 /opt/gcc-arm/gcc-arm-none-eabi-6_2-2016q4/bin/../lib/gcc/arm-none-eabi/6.2.1/../../../../arm-none-eabi/lib/thumb/v7-m/libg.a(lib_a-strcmp.o)
 .debug_frame   0x0000000000004730       0x20 /opt/gcc-arm/gcc-arm-none-eabi-6_2-2016q4/bin/../lib/gcc/arm-none-eabi/6.2.1/../../../../arm-none-eabi/lib/thumb/v7-m/libg.a(lib_a-strlen-stub.o)
 .debug_frame   0x0000000000004750       0x74 /opt/gcc-arm/gcc-arm-none-eabi-6_2-2016q4/bin/../lib/gcc/arm-none-eabi/6.2.1/../../../../arm-none-eabi/lib/thumb/v7-m/libg.a(lib_a-freer.o)
 .debug_frame   0x00000000000047c4       0x30 /opt/gcc-arm/gcc-arm-none-eabi-6_2-2016q4/bin/../lib/gcc/arm-none-eabi/6.2.1/../../../../arm-none-eabi/lib/thumb/v7-m/libg.a(lib_a-memmove.o)
 .debug_frame   0x00000000000047f4       0x58 /opt/gcc-arm/gcc-arm-none-eabi-6_2-2016q4/bin/../lib/gcc/arm-none-eabi/6.2.1/../../../../arm-none-eabi/lib/thumb/v7-m/libg.a(lib_a-reent.o)

.debug_str      0x0000000000000000     0xa7af
 *(.debug_str)
 .debug_str     0x0000000000000000      0x28e ./lib/CMSIS/CM3/DeviceSupport/ST/STM32F10x/system_stm32f10x.o
                                        0x303 (size before relaxing)
 .debug_str     0x000000000000028e      0xbbf ./src/led.o
                                        0xe46 (size before relaxing)
 .debug_str     0x0000000000000e4d       0xc8 ./src/encoder.o
                                        0x3fa (size before relaxing)
 .debug_str     0x0000000000000f15      0x218 ./src/stm32_time.o
                                        0x743 (size before relaxing)
 .debug_str     0x000000000000112d      0x552 ./lib/STM32F10x_StdPeriph_Driver/src/stm32f10x_adc.o
                                        0x73f (size before relaxing)
 .debug_str     0x000000000000167f      0x32f ./lib/STM32F10x_StdPeriph_Driver/src/stm32f10x_bkp.o
                                        0x5f5 (size before relaxing)
 .debug_str     0x00000000000019ae      0x525 ./lib/STM32F10x_StdPeriph_Driver/src/stm32f10x_can.o
                                        0x772 (size before relaxing)
 .debug_str     0x0000000000001ed3      0x1a4 ./lib/STM32F10x_StdPeriph_Driver/src/stm32f10x_cec.o
                                        0x3ba (size before relaxing)
 .debug_str     0x0000000000002077       0xba ./lib/STM32F10x_StdPeriph_Driver/src/stm32f10x_crc.o
                                        0x268 (size before relaxing)
 .debug_str     0x0000000000002131      0x205 ./lib/STM32F10x_StdPeriph_Driver/src/stm32f10x_dac.o
                                        0x3f3 (size before relaxing)
 .debug_str     0x0000000000002336      0x20e ./lib/STM32F10x_StdPeriph_Driver/src/stm32f10x_dma.o
                                        0x3e4 (size before relaxing)
 .debug_str     0x0000000000002544       0xd0 ./lib/STM32F10x_StdPeriph_Driver/src/stm32f10x_exti.o
                                        0x376 (size before relaxing)
 .debug_str     0x0000000000002614      0x3ca ./lib/STM32F10x_StdPeriph_Driver/src/stm32f10x_flash.o
                                        0x615 (size before relaxing)
 .debug_str     0x00000000000029de      0x5c5 ./lib/STM32F10x_StdPeriph_Driver/src/stm32f10x_fsmc.o
                                        0x7a7 (size before relaxing)
 .debug_str     0x0000000000002fa3      0x202 ./lib/STM32F10x_StdPeriph_Driver/src/stm32f10x_gpio.o
                                        0x55d (size before relaxing)
 .debug_str     0x00000000000031a5      0x38e ./lib/STM32F10x_StdPeriph_Driver/src/stm32f10x_i2c.o
                                        0x6bc (size before relaxing)
 .debug_str     0x0000000000003533       0xd2 ./lib/STM32F10x_StdPeriph_Driver/src/stm32f10x_iwdg.o
                                        0x289 (size before relaxing)
 .debug_str     0x0000000000003605      0x112 ./lib/STM32F10x_StdPeriph_Driver/src/stm32f10x_pwr.o
                                        0x356 (size before relaxing)
 .debug_str     0x0000000000003717      0x21d ./lib/STM32F10x_StdPeriph_Driver/src/stm32f10x_rcc.o
                                        0x647 (size before relaxing)
 .debug_str     0x0000000000003934      0x35b ./lib/STM32F10x_StdPeriph_Driver/src/stm32f10x_spi.o
                                        0x66a (size before relaxing)
 .debug_str     0x0000000000003c8f      0x3fa ./lib/STM32F10x_StdPeriph_Driver/src/stm32f10x_usart.o
                                        0x6fd (size before relaxing)
 .debug_str     0x0000000000004089      0x95e ./lib/STM32F10x_StdPeriph_Driver/src/stm32f10x_tim.o
                                        0xe38 (size before relaxing)
 .debug_str     0x00000000000049e7      0x470 ./lib/STM32F10x_StdPeriph_Driver/src/stm32f10x_sdio.o
                                        0x65d (size before relaxing)
 .debug_str     0x0000000000004e57       0xce ./lib/STM32F10x_StdPeriph_Driver/src/stm32f10x_wwdg.o
                                        0x2a1 (size before relaxing)
 .debug_str     0x0000000000004f25       0x88 ./lib/STM32F10x_StdPeriph_Driver/src/stm32f10x_dbgmcu.o
                                        0x21f (size before relaxing)
 .debug_str     0x0000000000004fad       0xec ./lib/STM32F10x_StdPeriph_Driver/src/misc.o
                                        0x3e5 (size before relaxing)
 .debug_str     0x0000000000005099     0x4cf6 ./src/main.o
                                       0x5e73 (size before relaxing)
 .debug_str     0x0000000000009d8f      0x161 ./src/motor.o
                                       0x1a95 (size before relaxing)
 .debug_str     0x0000000000009ef0      0x38b ./src/servo.o
                                       0x2018 (size before relaxing)
 .debug_str     0x000000000000a27b      0x238 ./src/DCMotor.o
                                       0x1fb8 (size before relaxing)
 .debug_str     0x000000000000a4b3       0xfa ./src/motorSettings.o
                                       0x195e (size before relaxing)
 .debug_str     0x000000000000a5ad      0x187 ./src/LibraryHacks.o
                                        0x882 (size before relaxing)
 .debug_str     0x000000000000a734       0x66 ./lib/ros_lib/duration.o
                                        0x6fb (size before relaxing)
 .debug_str     0x000000000000a79a       0x15 ./lib/ros_lib/time.o
                                        0x7fd (size before relaxing)

.debug_loc      0x0000000000000000     0xbbe6
 *(.debug_loc)
 .debug_loc     0x0000000000000000       0xf4 ./lib/CMSIS/CM3/DeviceSupport/ST/STM32F10x/system_stm32f10x.o
 .debug_loc     0x00000000000000f4      0x108 ./src/led.o
 .debug_loc     0x00000000000001fc       0x38 ./src/encoder.o
 .debug_loc     0x0000000000000234      0x122 ./src/stm32_time.o
 .debug_loc     0x0000000000000356      0xb74 ./lib/STM32F10x_StdPeriph_Driver/src/stm32f10x_adc.o
 .debug_loc     0x0000000000000eca      0x172 ./lib/STM32F10x_StdPeriph_Driver/src/stm32f10x_bkp.o
 .debug_loc     0x000000000000103c      0x8e7 ./lib/STM32F10x_StdPeriph_Driver/src/stm32f10x_can.o
 .debug_loc     0x0000000000001923      0x1fe ./lib/STM32F10x_StdPeriph_Driver/src/stm32f10x_cec.o
 .debug_loc     0x0000000000001b21       0x75 ./lib/STM32F10x_StdPeriph_Driver/src/stm32f10x_crc.o
 .debug_loc     0x0000000000001b96      0x35f ./lib/STM32F10x_StdPeriph_Driver/src/stm32f10x_dac.o
 .debug_loc     0x0000000000001ef5      0x161 ./lib/STM32F10x_StdPeriph_Driver/src/stm32f10x_dma.o
 .debug_loc     0x0000000000002056      0x1a8 ./lib/STM32F10x_StdPeriph_Driver/src/stm32f10x_exti.o
 .debug_loc     0x00000000000021fe      0x9b3 ./lib/STM32F10x_StdPeriph_Driver/src/stm32f10x_flash.o
 .debug_loc     0x0000000000002bb1      0x4a7 ./lib/STM32F10x_StdPeriph_Driver/src/stm32f10x_fsmc.o
 .debug_loc     0x0000000000003058      0x5e4 ./lib/STM32F10x_StdPeriph_Driver/src/stm32f10x_gpio.o
 .debug_loc     0x000000000000363c      0x726 ./lib/STM32F10x_StdPeriph_Driver/src/stm32f10x_i2c.o
 .debug_loc     0x0000000000003d62       0x62 ./lib/STM32F10x_StdPeriph_Driver/src/stm32f10x_iwdg.o
 .debug_loc     0x0000000000003dc4      0x13d ./lib/STM32F10x_StdPeriph_Driver/src/stm32f10x_pwr.o
 .debug_loc     0x0000000000003f01      0x70f ./lib/STM32F10x_StdPeriph_Driver/src/stm32f10x_rcc.o
 .debug_loc     0x0000000000004610      0x646 ./lib/STM32F10x_StdPeriph_Driver/src/stm32f10x_spi.o
 .debug_loc     0x0000000000004c56      0x875 ./lib/STM32F10x_StdPeriph_Driver/src/stm32f10x_usart.o
 .debug_loc     0x00000000000054cb     0x1d64 ./lib/STM32F10x_StdPeriph_Driver/src/stm32f10x_tim.o
 .debug_loc     0x000000000000722f      0x21e ./lib/STM32F10x_StdPeriph_Driver/src/stm32f10x_sdio.o
 .debug_loc     0x000000000000744d      0x106 ./lib/STM32F10x_StdPeriph_Driver/src/stm32f10x_wwdg.o
 .debug_loc     0x0000000000007553       0x3a ./lib/STM32F10x_StdPeriph_Driver/src/stm32f10x_dbgmcu.o
 .debug_loc     0x000000000000758d      0x18c ./lib/STM32F10x_StdPeriph_Driver/src/misc.o
 .debug_loc     0x0000000000007719     0x3254 ./src/main.o
 .debug_loc     0x000000000000a96d       0xa8 ./src/motor.o
 .debug_loc     0x000000000000aa15      0x6ec ./src/servo.o
 .debug_loc     0x000000000000b101      0x718 ./src/DCMotor.o
 .debug_loc     0x000000000000b819       0x7e ./src/motorSettings.o
 .debug_loc     0x000000000000b897      0x104 ./src/LibraryHacks.o
 .debug_loc     0x000000000000b99b      0x108 ./lib/ros_lib/duration.o
 .debug_loc     0x000000000000baa3      0x143 ./lib/ros_lib/time.o

.debug_macinfo
 *(.debug_macinfo)

.debug_weaknames
 *(.debug_weaknames)

.debug_funcnames
 *(.debug_funcnames)

.debug_typenames
 *(.debug_typenames)

.debug_varnames
 *(.debug_varnames)

.note.gnu.arm.ident
 *(.note.gnu.arm.ident)

.ARM.attributes
                0x0000000000000000       0x2f
 *(.ARM.attributes)
 .ARM.attributes
                0x0000000000000000       0x21 ./src/f1/startup_stm32f103xb.o
 .ARM.attributes
                0x0000000000000021       0x33 ./lib/CMSIS/CM3/DeviceSupport/ST/STM32F10x/system_stm32f10x.o
 .ARM.attributes
                0x0000000000000054       0x33 ./src/led.o
 .ARM.attributes
                0x0000000000000087       0x33 ./src/encoder.o
 .ARM.attributes
                0x00000000000000ba       0x33 ./src/stm32_time.o
 .ARM.attributes
                0x00000000000000ed       0x33 ./lib/STM32F10x_StdPeriph_Driver/src/stm32f10x_adc.o
 .ARM.attributes
                0x0000000000000120       0x33 ./lib/STM32F10x_StdPeriph_Driver/src/stm32f10x_bkp.o
 .ARM.attributes
                0x0000000000000153       0x33 ./lib/STM32F10x_StdPeriph_Driver/src/stm32f10x_can.o
 .ARM.attributes
                0x0000000000000186       0x33 ./lib/STM32F10x_StdPeriph_Driver/src/stm32f10x_cec.o
 .ARM.attributes
                0x00000000000001b9       0x33 ./lib/STM32F10x_StdPeriph_Driver/src/stm32f10x_crc.o
 .ARM.attributes
                0x00000000000001ec       0x33 ./lib/STM32F10x_StdPeriph_Driver/src/stm32f10x_dac.o
 .ARM.attributes
                0x000000000000021f       0x33 ./lib/STM32F10x_StdPeriph_Driver/src/stm32f10x_dma.o
 .ARM.attributes
                0x0000000000000252       0x33 ./lib/STM32F10x_StdPeriph_Driver/src/stm32f10x_exti.o
 .ARM.attributes
                0x0000000000000285       0x33 ./lib/STM32F10x_StdPeriph_Driver/src/stm32f10x_flash.o
 .ARM.attributes
                0x00000000000002b8       0x33 ./lib/STM32F10x_StdPeriph_Driver/src/stm32f10x_fsmc.o
 .ARM.attributes
                0x00000000000002eb       0x33 ./lib/STM32F10x_StdPeriph_Driver/src/stm32f10x_gpio.o
 .ARM.attributes
                0x000000000000031e       0x33 ./lib/STM32F10x_StdPeriph_Driver/src/stm32f10x_i2c.o
 .ARM.attributes
                0x0000000000000351       0x33 ./lib/STM32F10x_StdPeriph_Driver/src/stm32f10x_iwdg.o
 .ARM.attributes
                0x0000000000000384       0x33 ./lib/STM32F10x_StdPeriph_Driver/src/stm32f10x_pwr.o
 .ARM.attributes
                0x00000000000003b7       0x33 ./lib/STM32F10x_StdPeriph_Driver/src/stm32f10x_rcc.o
 .ARM.attributes
                0x00000000000003ea       0x33 ./lib/STM32F10x_StdPeriph_Driver/src/stm32f10x_spi.o
 .ARM.attributes
                0x000000000000041d       0x33 ./lib/STM32F10x_StdPeriph_Driver/src/stm32f10x_usart.o
 .ARM.attributes
                0x0000000000000450       0x33 ./lib/STM32F10x_StdPeriph_Driver/src/stm32f10x_tim.o
 .ARM.attributes
                0x0000000000000483       0x33 ./lib/STM32F10x_StdPeriph_Driver/src/stm32f10x_sdio.o
 .ARM.attributes
                0x00000000000004b6       0x33 ./lib/STM32F10x_StdPeriph_Driver/src/stm32f10x_wwdg.o
 .ARM.attributes
                0x00000000000004e9       0x33 ./lib/STM32F10x_StdPeriph_Driver/src/stm32f10x_dbgmcu.o
 .ARM.attributes
                0x000000000000051c       0x33 ./lib/STM32F10x_StdPeriph_Driver/src/misc.o
 .ARM.attributes
                0x000000000000054f       0x33 ./src/main.o
 .ARM.attributes
                0x0000000000000582       0x33 ./src/motor.o
 .ARM.attributes
                0x00000000000005b5       0x33 ./src/servo.o
 .ARM.attributes
                0x00000000000005e8       0x33 ./src/DCMotor.o
 .ARM.attributes
                0x000000000000061b       0x33 ./src/motorSettings.o
 .ARM.attributes
                0x000000000000064e       0x33 ./src/LibraryHacks.o
 .ARM.attributes
                0x0000000000000681       0x33 ./lib/ros_lib/duration.o
 .ARM.attributes
                0x00000000000006b4       0x33 ./lib/ros_lib/time.o
 .ARM.attributes
                0x00000000000006e7       0x2d /opt/gcc-arm/gcc-arm-none-eabi-6_2-2016q4/bin/../lib/gcc/arm-none-eabi/6.2.1/../../../../arm-none-eabi/lib/thumb/v7-m/libstdc++.a(class_type_info.o)
 .ARM.attributes
                0x0000000000000714       0x2d /opt/gcc-arm/gcc-arm-none-eabi-6_2-2016q4/bin/../lib/gcc/arm-none-eabi/6.2.1/../../../../arm-none-eabi/lib/thumb/v7-m/libstdc++.a(eh_arm.o)
 .ARM.attributes
                0x0000000000000741       0x2d /opt/gcc-arm/gcc-arm-none-eabi-6_2-2016q4/bin/../lib/gcc/arm-none-eabi/6.2.1/../../../../arm-none-eabi/lib/thumb/v7-m/libstdc++.a(eh_globals.o)
 .ARM.attributes
                0x000000000000076e       0x2d /opt/gcc-arm/gcc-arm-none-eabi-6_2-2016q4/bin/../lib/gcc/arm-none-eabi/6.2.1/../../../../arm-none-eabi/lib/thumb/v7-m/libstdc++.a(eh_exception.o)
 .ARM.attributes
                0x000000000000079b       0x2d /opt/gcc-arm/gcc-arm-none-eabi-6_2-2016q4/bin/../lib/gcc/arm-none-eabi/6.2.1/../../../../arm-none-eabi/lib/thumb/v7-m/libstdc++.a(si_class_type_info.o)
 .ARM.attributes
                0x00000000000007c8       0x2d /opt/gcc-arm/gcc-arm-none-eabi-6_2-2016q4/bin/../lib/gcc/arm-none-eabi/6.2.1/../../../../arm-none-eabi/lib/thumb/v7-m/libstdc++.a(del_ops.o)
 .ARM.attributes
                0x00000000000007f5       0x2d /opt/gcc-arm/gcc-arm-none-eabi-6_2-2016q4/bin/../lib/gcc/arm-none-eabi/6.2.1/../../../../arm-none-eabi/lib/thumb/v7-m/libstdc++.a(eh_personality.o)
 .ARM.attributes
                0x0000000000000822       0x2d /opt/gcc-arm/gcc-arm-none-eabi-6_2-2016q4/bin/../lib/gcc/arm-none-eabi/6.2.1/../../../../arm-none-eabi/lib/thumb/v7-m/libstdc++.a(eh_terminate.o)
 .ARM.attributes
                0x000000000000084f       0x2d /opt/gcc-arm/gcc-arm-none-eabi-6_2-2016q4/bin/../lib/gcc/arm-none-eabi/6.2.1/../../../../arm-none-eabi/lib/thumb/v7-m/libstdc++.a(tinfo.o)
 .ARM.attributes
                0x000000000000087c       0x2d /opt/gcc-arm/gcc-arm-none-eabi-6_2-2016q4/bin/../lib/gcc/arm-none-eabi/6.2.1/../../../../arm-none-eabi/lib/thumb/v7-m/libstdc++.a(eh_term_handler.o)
 .ARM.attributes
                0x00000000000008a9       0x2d /opt/gcc-arm/gcc-arm-none-eabi-6_2-2016q4/bin/../lib/gcc/arm-none-eabi/6.2.1/../../../../arm-none-eabi/lib/thumb/v7-m/libstdc++.a(eh_call.o)
 .ARM.attributes
                0x00000000000008d6       0x2d /opt/gcc-arm/gcc-arm-none-eabi-6_2-2016q4/bin/../lib/gcc/arm-none-eabi/6.2.1/../../../../arm-none-eabi/lib/thumb/v7-m/libstdc++.a(eh_catch.o)
 .ARM.attributes
                0x0000000000000903       0x2d /opt/gcc-arm/gcc-arm-none-eabi-6_2-2016q4/bin/../lib/gcc/arm-none-eabi/6.2.1/../../../../arm-none-eabi/lib/thumb/v7-m/libstdc++.a(eh_unex_handler.o)
 .ARM.attributes
                0x0000000000000930       0x2d /opt/gcc-arm/gcc-arm-none-eabi-6_2-2016q4/bin/../lib/gcc/arm-none-eabi/6.2.1/../../../../arm-none-eabi/lib/thumb/v7-m/libstdc++.a(eh_alloc.o)
 .ARM.attributes
                0x000000000000095d       0x2d /opt/gcc-arm/gcc-arm-none-eabi-6_2-2016q4/bin/../lib/gcc/arm-none-eabi/6.2.1/../../../../arm-none-eabi/lib/thumb/v7-m/libstdc++.a(eh_throw.o)
 .ARM.attributes
                0x000000000000098a       0x2d /opt/gcc-arm/gcc-arm-none-eabi-6_2-2016q4/bin/../lib/gcc/arm-none-eabi/6.2.1/../../../../arm-none-eabi/lib/thumb/v7-m/libm.a(lib_a-s_sin.o)
 .ARM.attributes
                0x00000000000009b7       0x2d /opt/gcc-arm/gcc-arm-none-eabi-6_2-2016q4/bin/../lib/gcc/arm-none-eabi/6.2.1/../../../../arm-none-eabi/lib/thumb/v7-m/libm.a(lib_a-sf_atan.o)
 .ARM.attributes
                0x00000000000009e4       0x2d /opt/gcc-arm/gcc-arm-none-eabi-6_2-2016q4/bin/../lib/gcc/arm-none-eabi/6.2.1/../../../../arm-none-eabi/lib/thumb/v7-m/libm.a(lib_a-sf_cos.o)
 .ARM.attributes
                0x0000000000000a11       0x2d /opt/gcc-arm/gcc-arm-none-eabi-6_2-2016q4/bin/../lib/gcc/arm-none-eabi/6.2.1/../../../../arm-none-eabi/lib/thumb/v7-m/libm.a(lib_a-sf_fabs.o)
 .ARM.attributes
                0x0000000000000a3e       0x2d /opt/gcc-arm/gcc-arm-none-eabi-6_2-2016q4/bin/../lib/gcc/arm-none-eabi/6.2.1/../../../../arm-none-eabi/lib/thumb/v7-m/libm.a(lib_a-sf_sin.o)
 .ARM.attributes
                0x0000000000000a6b       0x2d /opt/gcc-arm/gcc-arm-none-eabi-6_2-2016q4/bin/../lib/gcc/arm-none-eabi/6.2.1/../../../../arm-none-eabi/lib/thumb/v7-m/libm.a(lib_a-w_sqrt.o)
 .ARM.attributes
                0x0000000000000a98       0x2d /opt/gcc-arm/gcc-arm-none-eabi-6_2-2016q4/bin/../lib/gcc/arm-none-eabi/6.2.1/../../../../arm-none-eabi/lib/thumb/v7-m/libm.a(lib_a-wf_sqrt.o)
 .ARM.attributes
                0x0000000000000ac5       0x2d /opt/gcc-arm/gcc-arm-none-eabi-6_2-2016q4/bin/../lib/gcc/arm-none-eabi/6.2.1/../../../../arm-none-eabi/lib/thumb/v7-m/libm.a(lib_a-e_rem_pio2.o)
 .ARM.attributes
                0x0000000000000af2       0x2d /opt/gcc-arm/gcc-arm-none-eabi-6_2-2016q4/bin/../lib/gcc/arm-none-eabi/6.2.1/../../../../arm-none-eabi/lib/thumb/v7-m/libm.a(lib_a-e_sqrt.o)
 .ARM.attributes
                0x0000000000000b1f       0x2d /opt/gcc-arm/gcc-arm-none-eabi-6_2-2016q4/bin/../lib/gcc/arm-none-eabi/6.2.1/../../../../arm-none-eabi/lib/thumb/v7-m/libm.a(lib_a-ef_rem_pio2.o)
 .ARM.attributes
                0x0000000000000b4c       0x2d /opt/gcc-arm/gcc-arm-none-eabi-6_2-2016q4/bin/../lib/gcc/arm-none-eabi/6.2.1/../../../../arm-none-eabi/lib/thumb/v7-m/libm.a(lib_a-ef_sqrt.o)
 .ARM.attributes
                0x0000000000000b79       0x2d /opt/gcc-arm/gcc-arm-none-eabi-6_2-2016q4/bin/../lib/gcc/arm-none-eabi/6.2.1/../../../../arm-none-eabi/lib/thumb/v7-m/libm.a(lib_a-k_cos.o)
 .ARM.attributes
                0x0000000000000ba6       0x2d /opt/gcc-arm/gcc-arm-none-eabi-6_2-2016q4/bin/../lib/gcc/arm-none-eabi/6.2.1/../../../../arm-none-eabi/lib/thumb/v7-m/libm.a(lib_a-k_rem_pio2.o)
 .ARM.attributes
                0x0000000000000bd3       0x2d /opt/gcc-arm/gcc-arm-none-eabi-6_2-2016q4/bin/../lib/gcc/arm-none-eabi/6.2.1/../../../../arm-none-eabi/lib/thumb/v7-m/libm.a(lib_a-k_sin.o)
 .ARM.attributes
                0x0000000000000c00       0x2d /opt/gcc-arm/gcc-arm-none-eabi-6_2-2016q4/bin/../lib/gcc/arm-none-eabi/6.2.1/../../../../arm-none-eabi/lib/thumb/v7-m/libm.a(lib_a-kf_cos.o)
 .ARM.attributes
                0x0000000000000c2d       0x2d /opt/gcc-arm/gcc-arm-none-eabi-6_2-2016q4/bin/../lib/gcc/arm-none-eabi/6.2.1/../../../../arm-none-eabi/lib/thumb/v7-m/libm.a(lib_a-kf_rem_pio2.o)
 .ARM.attributes
                0x0000000000000c5a       0x2d /opt/gcc-arm/gcc-arm-none-eabi-6_2-2016q4/bin/../lib/gcc/arm-none-eabi/6.2.1/../../../../arm-none-eabi/lib/thumb/v7-m/libm.a(lib_a-kf_sin.o)
 .ARM.attributes
                0x0000000000000c87       0x2d /opt/gcc-arm/gcc-arm-none-eabi-6_2-2016q4/bin/../lib/gcc/arm-none-eabi/6.2.1/../../../../arm-none-eabi/lib/thumb/v7-m/libm.a(lib_a-s_fabs.o)
 .ARM.attributes
                0x0000000000000cb4       0x2d /opt/gcc-arm/gcc-arm-none-eabi-6_2-2016q4/bin/../lib/gcc/arm-none-eabi/6.2.1/../../../../arm-none-eabi/lib/thumb/v7-m/libm.a(lib_a-s_floor.o)
 .ARM.attributes
                0x0000000000000ce1       0x2d /opt/gcc-arm/gcc-arm-none-eabi-6_2-2016q4/bin/../lib/gcc/arm-none-eabi/6.2.1/../../../../arm-none-eabi/lib/thumb/v7-m/libm.a(lib_a-s_lib_ver.o)
 .ARM.attributes
                0x0000000000000d0e       0x2d /opt/gcc-arm/gcc-arm-none-eabi-6_2-2016q4/bin/../lib/gcc/arm-none-eabi/6.2.1/../../../../arm-none-eabi/lib/thumb/v7-m/libm.a(lib_a-s_matherr.o)
 .ARM.attributes
                0x0000000000000d3b       0x2d /opt/gcc-arm/gcc-arm-none-eabi-6_2-2016q4/bin/../lib/gcc/arm-none-eabi/6.2.1/../../../../arm-none-eabi/lib/thumb/v7-m/libm.a(lib_a-s_scalbn.o)
 .ARM.attributes
                0x0000000000000d68       0x2d /opt/gcc-arm/gcc-arm-none-eabi-6_2-2016q4/bin/../lib/gcc/arm-none-eabi/6.2.1/../../../../arm-none-eabi/lib/thumb/v7-m/libm.a(lib_a-sf_floor.o)
 .ARM.attributes
                0x0000000000000d95       0x2d /opt/gcc-arm/gcc-arm-none-eabi-6_2-2016q4/bin/../lib/gcc/arm-none-eabi/6.2.1/../../../../arm-none-eabi/lib/thumb/v7-m/libm.a(lib_a-sf_scalbn.o)
 .ARM.attributes
                0x0000000000000dc2       0x2d /opt/gcc-arm/gcc-arm-none-eabi-6_2-2016q4/bin/../lib/gcc/arm-none-eabi/6.2.1/../../../../arm-none-eabi/lib/thumb/v7-m/libm.a(lib_a-s_copysign.o)
 .ARM.attributes
                0x0000000000000def       0x2d /opt/gcc-arm/gcc-arm-none-eabi-6_2-2016q4/bin/../lib/gcc/arm-none-eabi/6.2.1/../../../../arm-none-eabi/lib/thumb/v7-m/libm.a(lib_a-sf_copysign.o)
 .ARM.attributes
                0x0000000000000e1c       0x1d /opt/gcc-arm/gcc-arm-none-eabi-6_2-2016q4/bin/../lib/gcc/arm-none-eabi/6.2.1/thumb/v7-m/libgcc.a(_arm_addsubdf3.o)
 .ARM.attributes
                0x0000000000000e39       0x1d /opt/gcc-arm/gcc-arm-none-eabi-6_2-2016q4/bin/../lib/gcc/arm-none-eabi/6.2.1/thumb/v7-m/libgcc.a(_arm_muldivdf3.o)
 .ARM.attributes
                0x0000000000000e56       0x1d /opt/gcc-arm/gcc-arm-none-eabi-6_2-2016q4/bin/../lib/gcc/arm-none-eabi/6.2.1/thumb/v7-m/libgcc.a(_arm_cmpdf2.o)
 .ARM.attributes
                0x0000000000000e73       0x1d /opt/gcc-arm/gcc-arm-none-eabi-6_2-2016q4/bin/../lib/gcc/arm-none-eabi/6.2.1/thumb/v7-m/libgcc.a(_arm_unorddf2.o)
 .ARM.attributes
                0x0000000000000e90       0x1d /opt/gcc-arm/gcc-arm-none-eabi-6_2-2016q4/bin/../lib/gcc/arm-none-eabi/6.2.1/thumb/v7-m/libgcc.a(_arm_fixdfsi.o)
 .ARM.attributes
                0x0000000000000ead       0x1d /opt/gcc-arm/gcc-arm-none-eabi-6_2-2016q4/bin/../lib/gcc/arm-none-eabi/6.2.1/thumb/v7-m/libgcc.a(_arm_truncdfsf2.o)
 .ARM.attributes
                0x0000000000000eca       0x1d /opt/gcc-arm/gcc-arm-none-eabi-6_2-2016q4/bin/../lib/gcc/arm-none-eabi/6.2.1/thumb/v7-m/libgcc.a(_arm_addsubsf3.o)
 .ARM.attributes
                0x0000000000000ee7       0x1d /opt/gcc-arm/gcc-arm-none-eabi-6_2-2016q4/bin/../lib/gcc/arm-none-eabi/6.2.1/thumb/v7-m/libgcc.a(_arm_muldivsf3.o)
 .ARM.attributes
                0x0000000000000f04       0x1d /opt/gcc-arm/gcc-arm-none-eabi-6_2-2016q4/bin/../lib/gcc/arm-none-eabi/6.2.1/thumb/v7-m/libgcc.a(_arm_cmpsf2.o)
 .ARM.attributes
                0x0000000000000f21       0x1d /opt/gcc-arm/gcc-arm-none-eabi-6_2-2016q4/bin/../lib/gcc/arm-none-eabi/6.2.1/thumb/v7-m/libgcc.a(_arm_unordsf2.o)
 .ARM.attributes
                0x0000000000000f3e       0x1d /opt/gcc-arm/gcc-arm-none-eabi-6_2-2016q4/bin/../lib/gcc/arm-none-eabi/6.2.1/thumb/v7-m/libgcc.a(_arm_fixsfsi.o)
 .ARM.attributes
                0x0000000000000f5b       0x2d /opt/gcc-arm/gcc-arm-none-eabi-6_2-2016q4/bin/../lib/gcc/arm-none-eabi/6.2.1/thumb/v7-m/libgcc.a(unwind-arm.o)
 .ARM.attributes
                0x0000000000000f88       0x1d /opt/gcc-arm/gcc-arm-none-eabi-6_2-2016q4/bin/../lib/gcc/arm-none-eabi/6.2.1/thumb/v7-m/libgcc.a(libunwind.o)
 .ARM.attributes
                0x0000000000000fa5       0x2d /opt/gcc-arm/gcc-arm-none-eabi-6_2-2016q4/bin/../lib/gcc/arm-none-eabi/6.2.1/thumb/v7-m/libgcc.a(pr-support.o)
 .ARM.attributes
                0x0000000000000fd2       0x2d /opt/gcc-arm/gcc-arm-none-eabi-6_2-2016q4/bin/../lib/gcc/arm-none-eabi/6.2.1/../../../../arm-none-eabi/lib/thumb/v7-m/libg.a(lib_a-errno.o)
 .ARM.attributes
                0x0000000000000fff       0x2d /opt/gcc-arm/gcc-arm-none-eabi-6_2-2016q4/bin/../lib/gcc/arm-none-eabi/6.2.1/../../../../arm-none-eabi/lib/thumb/v7-m/libg.a(lib_a-impure.o)
 .ARM.attributes
                0x000000000000102c       0x2d /opt/gcc-arm/gcc-arm-none-eabi-6_2-2016q4/bin/../lib/gcc/arm-none-eabi/6.2.1/../../../../arm-none-eabi/lib/thumb/v7-m/libg.a(lib_a-init.o)
 .ARM.attributes
                0x0000000000001059       0x2d /opt/gcc-arm/gcc-arm-none-eabi-6_2-2016q4/bin/../lib/gcc/arm-none-eabi/6.2.1/../../../../arm-none-eabi/lib/thumb/v7-m/libg.a(lib_a-malloc.o)
 .ARM.attributes
                0x0000000000001086       0x2d /opt/gcc-arm/gcc-arm-none-eabi-6_2-2016q4/bin/../lib/gcc/arm-none-eabi/6.2.1/../../../../arm-none-eabi/lib/thumb/v7-m/libg.a(lib_a-mallocr.o)
 .ARM.attributes
                0x00000000000010b3       0x1b /opt/gcc-arm/gcc-arm-none-eabi-6_2-2016q4/bin/../lib/gcc/arm-none-eabi/6.2.1/../../../../arm-none-eabi/lib/thumb/v7-m/libg.a(lib_a-memcpy.o)
 .ARM.attributes
                0x00000000000010ce       0x2d /opt/gcc-arm/gcc-arm-none-eabi-6_2-2016q4/bin/../lib/gcc/arm-none-eabi/6.2.1/../../../../arm-none-eabi/lib/thumb/v7-m/libg.a(lib_a-memset.o)
 .ARM.attributes
                0x00000000000010fb       0x2d /opt/gcc-arm/gcc-arm-none-eabi-6_2-2016q4/bin/../lib/gcc/arm-none-eabi/6.2.1/../../../../arm-none-eabi/lib/thumb/v7-m/libg.a(lib_a-mlock.o)
 .ARM.attributes
                0x0000000000001128       0x2d /opt/gcc-arm/gcc-arm-none-eabi-6_2-2016q4/bin/../lib/gcc/arm-none-eabi/6.2.1/../../../../arm-none-eabi/lib/thumb/v7-m/libg.a(lib_a-realloc.o)
 .ARM.attributes
                0x0000000000001155       0x2d /opt/gcc-arm/gcc-arm-none-eabi-6_2-2016q4/bin/../lib/gcc/arm-none-eabi/6.2.1/../../../../arm-none-eabi/lib/thumb/v7-m/libg.a(lib_a-reallocr.o)
 .ARM.attributes
                0x0000000000001182       0x2d /opt/gcc-arm/gcc-arm-none-eabi-6_2-2016q4/bin/../lib/gcc/arm-none-eabi/6.2.1/../../../../arm-none-eabi/lib/thumb/v7-m/libg.a(lib_a-sbrkr.o)
 .ARM.attributes
                0x00000000000011af       0x1b /opt/gcc-arm/gcc-arm-none-eabi-6_2-2016q4/bin/../lib/gcc/arm-none-eabi/6.2.1/../../../../arm-none-eabi/lib/thumb/v7-m/libg.a(lib_a-strcmp.o)
 .ARM.attributes
                0x00000000000011ca       0x2d /opt/gcc-arm/gcc-arm-none-eabi-6_2-2016q4/bin/../lib/gcc/arm-none-eabi/6.2.1/../../../../arm-none-eabi/lib/thumb/v7-m/libg.a(lib_a-strlen-stub.o)
 .ARM.attributes
                0x00000000000011f7       0x2d /opt/gcc-arm/gcc-arm-none-eabi-6_2-2016q4/bin/../lib/gcc/arm-none-eabi/6.2.1/../../../../arm-none-eabi/lib/thumb/v7-m/libg.a(lib_a-freer.o)
 .ARM.attributes
                0x0000000000001224       0x2d /opt/gcc-arm/gcc-arm-none-eabi-6_2-2016q4/bin/../lib/gcc/arm-none-eabi/6.2.1/../../../../arm-none-eabi/lib/thumb/v7-m/libg.a(lib_a-memmove.o)
 .ARM.attributes
                0x0000000000001251       0x2d /opt/gcc-arm/gcc-arm-none-eabi-6_2-2016q4/bin/../lib/gcc/arm-none-eabi/6.2.1/../../../../arm-none-eabi/lib/thumb/v7-m/libg.a(lib_a-reent.o)
OUTPUT(motors.none-eabi elf32-littlearm)

.debug_ranges   0x0000000000000000      0x8a8
 .debug_ranges  0x0000000000000000       0x18 ./lib/CMSIS/CM3/DeviceSupport/ST/STM32F10x/system_stm32f10x.o
 .debug_ranges  0x0000000000000018       0x68 ./src/stm32_time.o
 .debug_ranges  0x0000000000000080       0x58 ./lib/STM32F10x_StdPeriph_Driver/src/stm32f10x_can.o
 .debug_ranges  0x00000000000000d8       0x48 ./lib/STM32F10x_StdPeriph_Driver/src/stm32f10x_tim.o
 .debug_ranges  0x0000000000000120      0x700 ./src/main.o
 .debug_ranges  0x0000000000000820       0x70 ./src/servo.o
 .debug_ranges  0x0000000000000890       0x18 ./src/DCMotor.o
